---
triple:          'arm64-apple-darwin'
binary-path:     '/Users/borjafernandezangulo/30_CORTEX/cortex-rust/target/debug/deps/libcortex_rust.dylib'
relocations:
  - { offset: 0x1E, size: 0x8, addend: 0x0, symName: '__ZN55_$LT$$RF$T$u20$as$u20$core..convert..AsRef$LT$U$GT$$GT$6as_ref17hd62dec7eceff7f19E', symObjAddr: 0x0, symBinAddr: 0x888, symSize: 0x28 }
  - { offset: 0x3A, size: 0x8, addend: 0x0, symName: '__ZN55_$LT$$RF$T$u20$as$u20$core..convert..AsRef$LT$U$GT$$GT$6as_ref17hd62dec7eceff7f19E', symObjAddr: 0x0, symBinAddr: 0x888, symSize: 0x28 }
  - { offset: 0xFE, size: 0x8, addend: 0x0, symName: '__ZN44_$LT$D$u20$as$u20$digest..digest..Digest$GT$3new17hf44fe1fa6841e570E', symObjAddr: 0x0, symBinAddr: 0x8B0, symSize: 0x14 }
  - { offset: 0x11A, size: 0x8, addend: 0x0, symName: '__ZN44_$LT$D$u20$as$u20$digest..digest..Digest$GT$3new17hf44fe1fa6841e570E', symObjAddr: 0x0, symBinAddr: 0x8B0, symSize: 0x14 }
  - { offset: 0x141, size: 0x8, addend: 0x0, symName: '__ZN44_$LT$D$u20$as$u20$digest..digest..Digest$GT$6update17h2148dc11065b968fE', symObjAddr: 0x14, symBinAddr: 0x8C4, symSize: 0x6C }
  - { offset: 0x189, size: 0x8, addend: 0x0, symName: '__ZN44_$LT$D$u20$as$u20$digest..digest..Digest$GT$6update17hf2d004a04a8c6e97E', symObjAddr: 0x80, symBinAddr: 0x930, symSize: 0x68 }
  - { offset: 0x1D1, size: 0x8, addend: 0x0, symName: '__ZN44_$LT$D$u20$as$u20$digest..digest..Digest$GT$8finalize17he3150db372ca86e5E', symObjAddr: 0xE8, symBinAddr: 0x998, symSize: 0x40 }
  - { offset: 0x20E, size: 0x8, addend: 0x0, symName: __ZN6digest11FixedOutput14finalize_fixed17h6c85859166bbaf83E, symObjAddr: 0x128, symBinAddr: 0x9D8, symSize: 0xB8 }
  - { offset: 0x27D, size: 0x8, addend: 0x0, symName: '__ZN82_$LT$digest..core_api..wrapper..CoreWrapper$LT$T$GT$$u20$as$u20$digest..Update$GT$6update17h23649dfa4149c434E', symObjAddr: 0x1E0, symBinAddr: 0xA90, symSize: 0x40 }
  - { offset: 0x2ED, size: 0x8, addend: 0x0, symName: '__ZN82_$LT$digest..core_api..wrapper..CoreWrapper$LT$T$GT$$u20$as$u20$digest..Update$GT$6update28_$u7b$$u7b$closure$u7d$$u7d$17h2f3470aede3bb672E', symObjAddr: 0x220, symBinAddr: 0xAD0, symSize: 0x38 }
  - { offset: 0x336, size: 0x8, addend: 0x0, symName: '__ZN87_$LT$digest..core_api..wrapper..CoreWrapper$LT$T$GT$$u20$as$u20$digest..FixedOutput$GT$13finalize_into17h6a8107ddf0cd139fE', symObjAddr: 0x258, symBinAddr: 0xB08, symSize: 0x58 }
  - { offset: 0x3A8, size: 0x8, addend: 0x0, symName: '__ZN90_$LT$digest..core_api..wrapper..CoreWrapper$LT$T$GT$$u20$as$u20$core..default..Default$GT$7default17h09cdd60140bcd7beE', symObjAddr: 0x2B0, symBinAddr: 0xB60, symSize: 0x74 }
  - { offset: 0x9E3, size: 0x8, addend: 0x0, symName: '__ZN153_$LT$core..result..Result$LT$T$C$F$GT$$u20$as$u20$core..ops..try_trait..FromResidual$LT$core..result..Result$LT$core..convert..Infallible$C$E$GT$$GT$$GT$13from_residual17h5be38f5a19d9b3faE', symObjAddr: 0x0, symBinAddr: 0xBD4, symSize: 0x6C }
  - { offset: 0x1E42, size: 0x8, addend: 0x0, symName: '__ZN153_$LT$core..result..Result$LT$T$C$F$GT$$u20$as$u20$core..ops..try_trait..FromResidual$LT$core..result..Result$LT$core..convert..Infallible$C$E$GT$$GT$$GT$13from_residual17h5be38f5a19d9b3faE', symObjAddr: 0x0, symBinAddr: 0xBD4, symSize: 0x6C }
  - { offset: 0x1EC8, size: 0x8, addend: 0x0, symName: '__ZN153_$LT$core..result..Result$LT$T$C$F$GT$$u20$as$u20$core..ops..try_trait..FromResidual$LT$core..result..Result$LT$core..convert..Infallible$C$E$GT$$GT$$GT$13from_residual17h5f4e28734875a29dE', symObjAddr: 0x6C, symBinAddr: 0xC40, symSize: 0x6C }
  - { offset: 0x1F4E, size: 0x8, addend: 0x0, symName: '__ZN153_$LT$core..result..Result$LT$T$C$F$GT$$u20$as$u20$core..ops..try_trait..FromResidual$LT$core..result..Result$LT$core..convert..Infallible$C$E$GT$$GT$$GT$13from_residual17h614a442d2aad2548E', symObjAddr: 0xD8, symBinAddr: 0xCAC, symSize: 0x6C }
  - { offset: 0x1FD4, size: 0x8, addend: 0x0, symName: '__ZN153_$LT$core..result..Result$LT$T$C$F$GT$$u20$as$u20$core..ops..try_trait..FromResidual$LT$core..result..Result$LT$core..convert..Infallible$C$E$GT$$GT$$GT$13from_residual17hc80ffbf90ca6afb0E', symObjAddr: 0x144, symBinAddr: 0xD18, symSize: 0x6C }
  - { offset: 0x205A, size: 0x8, addend: 0x0, symName: '__ZN153_$LT$core..result..Result$LT$T$C$F$GT$$u20$as$u20$core..ops..try_trait..FromResidual$LT$core..result..Result$LT$core..convert..Infallible$C$E$GT$$GT$$GT$13from_residual17hcf8df582c53f38f3E', symObjAddr: 0x1B0, symBinAddr: 0xD84, symSize: 0x6C }
  - { offset: 0x281A, size: 0x8, addend: 0x0, symName: '__ZN79_$LT$core..result..Result$LT$T$C$E$GT$$u20$as$u20$core..ops..try_trait..Try$GT$11from_output17hc938c015720d6ce7E', symObjAddr: 0x8CC, symBinAddr: 0x14A0, symSize: 0x18 }
  - { offset: 0x285A, size: 0x8, addend: 0x0, symName: '__ZN79_$LT$core..result..Result$LT$T$C$E$GT$$u20$as$u20$core..ops..try_trait..Try$GT$6branch17h16451249c6c3f78fE', symObjAddr: 0x8E4, symBinAddr: 0x14B8, symSize: 0x90 }
  - { offset: 0x28D7, size: 0x8, addend: 0x0, symName: '__ZN79_$LT$core..result..Result$LT$T$C$E$GT$$u20$as$u20$core..ops..try_trait..Try$GT$6branch17h390952db640502faE', symObjAddr: 0x974, symBinAddr: 0x1548, symSize: 0xB4 }
  - { offset: 0x2955, size: 0x8, addend: 0x0, symName: '__ZN79_$LT$core..result..Result$LT$T$C$E$GT$$u20$as$u20$core..ops..try_trait..Try$GT$6branch17h664674a9017d8fe9E', symObjAddr: 0xA28, symBinAddr: 0x15FC, symSize: 0xB4 }
  - { offset: 0x29D3, size: 0x8, addend: 0x0, symName: '__ZN79_$LT$core..result..Result$LT$T$C$E$GT$$u20$as$u20$core..ops..try_trait..Try$GT$6branch17hbbdc779b8670db4dE', symObjAddr: 0xADC, symBinAddr: 0x16B0, symSize: 0xB4 }
  - { offset: 0x38CB, size: 0x8, addend: 0x0, symName: '__ZN4core6result19Result$LT$T$C$E$GT$3map17h014c6e586826e82fE', symObjAddr: 0x21C, symBinAddr: 0xDF0, symSize: 0x90 }
  - { offset: 0x395E, size: 0x8, addend: 0x0, symName: '__ZN4core6result19Result$LT$T$C$E$GT$3map17h0172f8a67bbc07e3E', symObjAddr: 0x2AC, symBinAddr: 0xE80, symSize: 0x90 }
  - { offset: 0x3A09, size: 0x8, addend: 0x0, symName: '__ZN4core6result19Result$LT$T$C$E$GT$3map17h7438e20972f74710E', symObjAddr: 0x33C, symBinAddr: 0xF10, symSize: 0x90 }
  - { offset: 0x3AD5, size: 0x8, addend: 0x0, symName: '__ZN4core6result19Result$LT$T$C$E$GT$6is_err17h098509e3997c3f3fE', symObjAddr: 0x3CC, symBinAddr: 0xFA0, symSize: 0x20 }
  - { offset: 0x3CF0, size: 0x8, addend: 0x0, symName: '__ZN4core6result19Result$LT$T$C$E$GT$7map_err17h3492c8ecd366837fE', symObjAddr: 0x3EC, symBinAddr: 0xFC0, symSize: 0xCC }
  - { offset: 0x3D84, size: 0x8, addend: 0x0, symName: '__ZN4core6result19Result$LT$T$C$E$GT$7map_err17h50fca06fdca3ceb5E', symObjAddr: 0x4B8, symBinAddr: 0x108C, symSize: 0xCC }
  - { offset: 0x3E18, size: 0x8, addend: 0x0, symName: '__ZN4core6result19Result$LT$T$C$E$GT$7map_err17ha4042f9158079961E', symObjAddr: 0x584, symBinAddr: 0x1158, symSize: 0xCC }
  - { offset: 0x3EB9, size: 0x8, addend: 0x0, symName: '__ZN4core6result19Result$LT$T$C$E$GT$8and_then17h4685aabf5a2510ffE', symObjAddr: 0x650, symBinAddr: 0x1224, symSize: 0xB0 }
  - { offset: 0x3F4C, size: 0x8, addend: 0x0, symName: '__ZN4core6result19Result$LT$T$C$E$GT$8and_then17h4ca552e298b510bcE', symObjAddr: 0x700, symBinAddr: 0x12D4, symSize: 0xB0 }
  - { offset: 0x3FDF, size: 0x8, addend: 0x0, symName: '__ZN4core6result19Result$LT$T$C$E$GT$8and_then17hb02414f89ac5ff5eE', symObjAddr: 0x7B0, symBinAddr: 0x1384, symSize: 0xB0 }
  - { offset: 0x4072, size: 0x8, addend: 0x0, symName: '__ZN4core6result19Result$LT$T$C$E$GT$9unwrap_or17ha79b96cf24dd0178E', symObjAddr: 0x860, symBinAddr: 0x1434, symSize: 0x6C }
  - { offset: 0x40F3, size: 0x8, addend: 0x0, symName: '__ZN52_$LT$Q$u20$as$u20$hashbrown..Equivalent$LT$K$GT$$GT$10equivalent17hfad9496534daa6d1E', symObjAddr: 0x0, symBinAddr: 0x1764, symSize: 0x40 }
  - { offset: 0x41A4, size: 0x8, addend: 0x0, symName: '__ZN52_$LT$Q$u20$as$u20$hashbrown..Equivalent$LT$K$GT$$GT$10equivalent17hfad9496534daa6d1E', symObjAddr: 0x0, symBinAddr: 0x1764, symSize: 0x40 }
  - { offset: 0x4224, size: 0x8, addend: 0x0, symName: '__ZN9hashbrown3map11make_hasher28_$u7b$$u7b$closure$u7d$$u7d$17he9505937bbb5814bE', symObjAddr: 0x0, symBinAddr: 0x17A4, symSize: 0x3C }
  - { offset: 0x4279, size: 0x8, addend: 0x0, symName: '__ZN9hashbrown3map11make_hasher28_$u7b$$u7b$closure$u7d$$u7d$17he9505937bbb5814bE', symObjAddr: 0x0, symBinAddr: 0x17A4, symSize: 0x3C }
  - { offset: 0x42FB, size: 0x8, addend: 0x0, symName: '__ZN9hashbrown3map14equivalent_key28_$u7b$$u7b$closure$u7d$$u7d$17hdfe7c2f0502fcb39E', symObjAddr: 0x3C, symBinAddr: 0x17E0, symSize: 0x30 }
  - { offset: 0x4C10, size: 0x8, addend: 0x0, symName: '__ZN9hashbrown3map28HashMap$LT$K$C$V$C$S$C$A$GT$12contains_key17hda733ca0f71051d3E', symObjAddr: 0x6C, symBinAddr: 0x1810, symSize: 0x10C }
  - { offset: 0x4EFC, size: 0x8, addend: 0x0, symName: '__ZN9hashbrown3map28HashMap$LT$K$C$V$C$S$C$A$GT$6insert17ha837929580f90c0bE', symObjAddr: 0x178, symBinAddr: 0x191C, symSize: 0x190 }
  - { offset: 0x50E4, size: 0x8, addend: 0x0, symName: '__ZN106_$LT$core..ops..range..Range$LT$usize$GT$$u20$as$u20$core..slice..index..SliceIndex$LT$$u5b$T$u5d$$GT$$GT$9index_mut17he84f093885f41643E', symObjAddr: 0x0, symBinAddr: 0x1AAC, symSize: 0xBC }
  - { offset: 0x62CD, size: 0x8, addend: 0x0, symName: '__ZN106_$LT$core..ops..range..Range$LT$usize$GT$$u20$as$u20$core..slice..index..SliceIndex$LT$$u5b$T$u5d$$GT$$GT$9index_mut17he84f093885f41643E', symObjAddr: 0x0, symBinAddr: 0x1AAC, symSize: 0xBC }
  - { offset: 0x637E, size: 0x8, addend: 0x0, symName: '__ZN108_$LT$core..ops..range..RangeTo$LT$usize$GT$$u20$as$u20$core..slice..index..SliceIndex$LT$$u5b$T$u5d$$GT$$GT$9index_mut17h666d0f3e299244abE', symObjAddr: 0xBC, symBinAddr: 0x1B68, symSize: 0x54 }
  - { offset: 0x6405, size: 0x8, addend: 0x0, symName: '__ZN110_$LT$core..ops..range..RangeFrom$LT$usize$GT$$u20$as$u20$core..slice..index..SliceIndex$LT$$u5b$T$u5d$$GT$$GT$5index17ha3dd9e719c2a7602E', symObjAddr: 0x110, symBinAddr: 0x1BBC, symSize: 0x70 }
  - { offset: 0x6497, size: 0x8, addend: 0x0, symName: '__ZN110_$LT$core..ops..range..RangeFrom$LT$usize$GT$$u20$as$u20$core..slice..index..SliceIndex$LT$$u5b$T$u5d$$GT$$GT$9index_mut17h248e7bb41fe11d7fE', symObjAddr: 0x180, symBinAddr: 0x1C2C, symSize: 0x78 }
  - { offset: 0x656A, size: 0x8, addend: 0x0, symName: '__ZN97_$LT$core..ops..range..RangeFull$u20$as$u20$core..slice..index..SliceIndex$LT$$u5b$T$u5d$$GT$$GT$5index17h4901c71b75837ff4E', symObjAddr: 0x228, symBinAddr: 0x1CD4, symSize: 0x18 }
  - { offset: 0x665A, size: 0x8, addend: 0x0, symName: '__ZN86_$LT$core..ops..range..RangeFull$u20$as$u20$core..ops..range..RangeBounds$LT$T$GT$$GT$11start_bound17h381556fa3a9f80dcE', symObjAddr: 0x1F8, symBinAddr: 0x1CA4, symSize: 0x18 }
  - { offset: 0x6691, size: 0x8, addend: 0x0, symName: '__ZN86_$LT$core..ops..range..RangeFull$u20$as$u20$core..ops..range..RangeBounds$LT$T$GT$$GT$9end_bound17hdb7998ee6c155708E', symObjAddr: 0x210, symBinAddr: 0x1CBC, symSize: 0x18 }
  - { offset: 0x6EB2, size: 0x8, addend: 0x0, symName: '__ZN4core4hash5impls52_$LT$impl$u20$core..hash..Hash$u20$for$u20$$RF$T$GT$4hash17h2093eef1df72765cE', symObjAddr: 0x0, symBinAddr: 0x1CEC, symSize: 0x30 }
  - { offset: 0x6ED3, size: 0x8, addend: 0x0, symName: '__ZN4core4hash5impls52_$LT$impl$u20$core..hash..Hash$u20$for$u20$$RF$T$GT$4hash17h2093eef1df72765cE', symObjAddr: 0x0, symBinAddr: 0x1CEC, symSize: 0x30 }
  - { offset: 0x6F24, size: 0x8, addend: 0x0, symName: '__ZN4core4hash5impls52_$LT$impl$u20$core..hash..Hash$u20$for$u20$usize$GT$4hash17h2002f2ab5ec3d250E', symObjAddr: 0x30, symBinAddr: 0x1D1C, symSize: 0x38 }
  - { offset: 0x6F6C, size: 0x8, addend: 0x0, symName: '__ZN4core4hash5impls60_$LT$impl$u20$core..hash..Hash$u20$for$u20$$LP$T$C$B$RP$$GT$4hash17ha5fcc6d3be4b3493E', symObjAddr: 0x68, symBinAddr: 0x1D54, symSize: 0x4C }
  - { offset: 0x7171, size: 0x8, addend: 0x0, symName: '__ZN4core5array92_$LT$impl$u20$core..convert..AsRef$LT$$u5b$T$u5d$$GT$$u20$for$u20$$u5b$T$u3b$$u20$N$u5d$$GT$6as_ref17hb4d36399b1052ec6E', symObjAddr: 0x0, symBinAddr: 0x1DA0, symSize: 0x1C }
  - { offset: 0x718D, size: 0x8, addend: 0x0, symName: '__ZN4core5array92_$LT$impl$u20$core..convert..AsRef$LT$$u5b$T$u5d$$GT$$u20$for$u20$$u5b$T$u3b$$u20$N$u5d$$GT$6as_ref17hb4d36399b1052ec6E', symObjAddr: 0x0, symBinAddr: 0x1DA0, symSize: 0x1C }
  - { offset: 0x71C8, size: 0x8, addend: 0x0, symName: '__ZN4core5array98_$LT$impl$u20$core..iter..traits..collect..IntoIterator$u20$for$u20$$RF$$u5b$T$u3b$$u20$N$u5d$$GT$9into_iter17h263bb6dfdebe17b3E', symObjAddr: 0x1C, symBinAddr: 0x1DBC, symSize: 0x58 }
  - { offset: 0x767E, size: 0x8, addend: 0x0, symName: '__ZN106_$LT$pyo3..impl_..extract_argument..NoVarargs$u20$as$u20$pyo3..impl_..extract_argument..VarargsHandler$GT$23handle_varargs_fastcall17hc495531c914b50bbE', symObjAddr: 0x0, symBinAddr: 0x1E14, symSize: 0xB4 }
  - { offset: 0x8F1F, size: 0x8, addend: 0x0, symName: '__ZN106_$LT$pyo3..impl_..extract_argument..NoVarargs$u20$as$u20$pyo3..impl_..extract_argument..VarargsHandler$GT$23handle_varargs_fastcall17hc495531c914b50bbE', symObjAddr: 0x0, symBinAddr: 0x1E14, symSize: 0xB4 }
  - { offset: 0x8F93, size: 0x8, addend: 0x0, symName: '__ZN114_$LT$pyo3..impl_..extract_argument..NoVarkeywords$u20$as$u20$pyo3..impl_..extract_argument..VarkeywordsHandler$GT$17handle_varkeyword17h094074b86c8b0aeaE', symObjAddr: 0xB4, symBinAddr: 0x1EC8, symSize: 0x6C }
  - { offset: 0x90D2, size: 0x8, addend: 0x0, symName: __ZN4pyo35impl_16extract_argument24unwrap_required_argument17hce9902a27527b699E, symObjAddr: 0x4D4, symBinAddr: 0x22E8, symSize: 0x58 }
  - { offset: 0x93D6, size: 0x8, addend: 0x0, symName: __ZN4pyo35impl_16extract_argument19FunctionDescription36find_keyword_parameter_in_positional17h204b4abd098032bcE, symObjAddr: 0x120, symBinAddr: 0x1F34, symSize: 0x5C }
  - { offset: 0x9408, size: 0x8, addend: 0x0, symName: __ZN4pyo35impl_16extract_argument19FunctionDescription38find_keyword_parameter_in_keyword_only17h7f2b777d83bda2cdE, symObjAddr: 0x17C, symBinAddr: 0x1F90, symSize: 0x5C }
  - { offset: 0x9AFC, size: 0x8, addend: 0x0, symName: __ZN4pyo35impl_16extract_argument19FunctionDescription44ensure_no_missing_required_keyword_arguments17h370140230c284b0bE, symObjAddr: 0x1D8, symBinAddr: 0x1FEC, symSize: 0x160 }
  - { offset: 0x9BC8, size: 0x8, addend: 0x0, symName: __ZN4pyo35impl_16extract_argument19FunctionDescription47ensure_no_missing_required_positional_arguments17h90968b263214c585E, symObjAddr: 0x338, symBinAddr: 0x214C, symSize: 0x19C }
  - { offset: 0x9D50, size: 0x8, addend: 0x0, symName: __ZN4core5slice5index5range17h2e8d43dc7c8b268bE, symObjAddr: 0x0, symBinAddr: 0x2340, symSize: 0x218 }
  - { offset: 0x9D6C, size: 0x8, addend: 0x0, symName: __ZN4core5slice5index5range17h2e8d43dc7c8b268bE, symObjAddr: 0x0, symBinAddr: 0x2340, symSize: 0x218 }
  - { offset: 0x9EFC, size: 0x8, addend: 0x0, symName: '__ZN75_$LT$usize$u20$as$u20$core..slice..index..SliceIndex$LT$$u5b$T$u5d$$GT$$GT$5index17h7b3501f4f3a8e0baE', symObjAddr: 0x218, symBinAddr: 0x2558, symSize: 0x64 }
  - { offset: 0x9F42, size: 0x8, addend: 0x0, symName: '__ZN75_$LT$usize$u20$as$u20$core..slice..index..SliceIndex$LT$$u5b$T$u5d$$GT$$GT$5index17hae3fc782b8917b7bE', symObjAddr: 0x27C, symBinAddr: 0x25BC, symSize: 0x5C }
  - { offset: 0x9F88, size: 0x8, addend: 0x0, symName: '__ZN75_$LT$usize$u20$as$u20$core..slice..index..SliceIndex$LT$$u5b$T$u5d$$GT$$GT$9index_mut17h6220f59356b5905aE', symObjAddr: 0x2D8, symBinAddr: 0x2618, symSize: 0x5C }
  - { offset: 0x9FCE, size: 0x8, addend: 0x0, symName: '__ZN75_$LT$usize$u20$as$u20$core..slice..index..SliceIndex$LT$$u5b$T$u5d$$GT$$GT$9index_mut17he79a90d433af62ebE', symObjAddr: 0x334, symBinAddr: 0x2674, symSize: 0x64 }
  - { offset: 0xA2C7, size: 0x8, addend: 0x0, symName: __ZN4core3fmt9Arguments17from_str_nonconst17h72cab66fa1177dd4E, symObjAddr: 0x0, symBinAddr: 0x26D8, symSize: 0x28 }
  - { offset: 0xA613, size: 0x8, addend: 0x0, symName: __ZN4core3fmt9Arguments17from_str_nonconst17h72cab66fa1177dd4E, symObjAddr: 0x0, symBinAddr: 0x26D8, symSize: 0x28 }
  - { offset: 0xA636, size: 0x8, addend: 0x0, symName: __ZN4core3fmt9Arguments8from_str17hbee544ff64340920E, symObjAddr: 0x28, symBinAddr: 0x2700, symSize: 0x20 }
  - { offset: 0xA677, size: 0x8, addend: 0x0, symName: '__ZN13generic_array5impls93_$LT$impl$u20$core..default..Default$u20$for$u20$generic_array..GenericArray$LT$T$C$N$GT$$GT$7default28_$u7b$$u7b$closure$u7d$$u7d$17h4eeeb79d3f63f703E', symObjAddr: 0x0, symBinAddr: 0x2720, symSize: 0x18 }
  - { offset: 0xA698, size: 0x8, addend: 0x0, symName: '__ZN13generic_array5impls93_$LT$impl$u20$core..default..Default$u20$for$u20$generic_array..GenericArray$LT$T$C$N$GT$$GT$7default28_$u7b$$u7b$closure$u7d$$u7d$17h4eeeb79d3f63f703E', symObjAddr: 0x0, symBinAddr: 0x2720, symSize: 0x18 }
  - { offset: 0xA6DC, size: 0x8, addend: 0x0, symName: '__ZN13generic_array5impls93_$LT$impl$u20$core..default..Default$u20$for$u20$generic_array..GenericArray$LT$T$C$N$GT$$GT$7default28_$u7b$$u7b$closure$u7d$$u7d$17hddd487a9da4eb009E', symObjAddr: 0x18, symBinAddr: 0x2738, symSize: 0x18 }
  - { offset: 0xA907, size: 0x8, addend: 0x0, symName: __ZN4pyo35impl_5panic9PanicTrap3new17he6abf5c5d649da90E, symObjAddr: 0x0, symBinAddr: 0x2750, symSize: 0x18 }
  - { offset: 0xA996, size: 0x8, addend: 0x0, symName: __ZN4pyo35impl_5panic9PanicTrap3new17he6abf5c5d649da90E, symObjAddr: 0x0, symBinAddr: 0x2750, symSize: 0x18 }
  - { offset: 0xA9B8, size: 0x8, addend: 0x0, symName: __ZN4pyo35impl_5panic9PanicTrap6disarm17h431b9a74583f6abcE, symObjAddr: 0x18, symBinAddr: 0x2768, symSize: 0x28 }
  - { offset: 0xA9F8, size: 0x8, addend: 0x0, symName: '__ZN5alloc3vec16Vec$LT$T$C$A$GT$7set_len18precondition_check17h3135877b5683195cE', symObjAddr: 0x0, symBinAddr: 0x2790, symSize: 0x60 }
  - { offset: 0xAA19, size: 0x8, addend: 0x0, symName: '__ZN5alloc3vec16Vec$LT$T$C$A$GT$7set_len18precondition_check17h3135877b5683195cE', symObjAddr: 0x0, symBinAddr: 0x2790, symSize: 0x60 }
  - { offset: 0xAAC3, size: 0x8, addend: 0x0, symName: __ZN4pyo35impl_10trampoline11module_init17h25b62dcd9274c2dbE, symObjAddr: 0x0, symBinAddr: 0x27F0, symSize: 0x28 }
  - { offset: 0xBF42, size: 0x8, addend: 0x0, symName: __ZN4pyo35impl_10trampoline11module_init17h25b62dcd9274c2dbE, symObjAddr: 0x0, symBinAddr: 0x27F0, symSize: 0x28 }
  - { offset: 0xBF6E, size: 0x8, addend: 0x0, symName: __ZN4pyo35impl_10trampoline22fastcall_with_keywords17h9ce2cd45fb046dc7E, symObjAddr: 0x28, symBinAddr: 0x2818, symSize: 0x5C }
  - { offset: 0xC8CC, size: 0x8, addend: 0x0, symName: '__ZN4core4iter6traits8iterator8Iterator8for_each4call28_$u7b$$u7b$closure$u7d$$u7d$17h6d49d8c52ed75285E', symObjAddr: 0x0, symBinAddr: 0x2874, symSize: 0x30 }
  - { offset: 0xC8FC, size: 0x8, addend: 0x0, symName: '__ZN4core4iter6traits8iterator8Iterator8for_each4call28_$u7b$$u7b$closure$u7d$$u7d$17h6d49d8c52ed75285E', symObjAddr: 0x0, symBinAddr: 0x2874, symSize: 0x30 }
  - { offset: 0xC954, size: 0x8, addend: 0x0, symName: '__ZN4core4iter6traits8iterator8Iterator8for_each4call28_$u7b$$u7b$closure$u7d$$u7d$17hb677c51cb372d439E', symObjAddr: 0x30, symBinAddr: 0x28A4, symSize: 0x28 }
  - { offset: 0xC9AC, size: 0x8, addend: 0x0, symName: '__ZN4core4iter6traits8iterator8Iterator8for_each4call28_$u7b$$u7b$closure$u7d$$u7d$17hc28e985f1c1a9ffcE', symObjAddr: 0x58, symBinAddr: 0x28CC, symSize: 0x30 }
  - { offset: 0xCCB5, size: 0x8, addend: 0x0, symName: __ZN4core3mem10needs_drop17hfde3f7bb8490fdf8E, symObjAddr: 0x0, symBinAddr: 0x28FC, symSize: 0xC }
  - { offset: 0xCCCC, size: 0x8, addend: 0x0, symName: __ZN4core3mem10needs_drop17hfde3f7bb8490fdf8E, symObjAddr: 0x0, symBinAddr: 0x28FC, symSize: 0xC }
  - { offset: 0xCCF4, size: 0x8, addend: 0x0, symName: __ZN4core3mem6forget17hdf2255555439cfbfE, symObjAddr: 0xC, symBinAddr: 0x2908, symSize: 0x4 }
  - { offset: 0xCD22, size: 0x8, addend: 0x0, symName: __ZN4core3mem6forget17hf2006833807eee25E, symObjAddr: 0x10, symBinAddr: 0x290C, symSize: 0x4 }
  - { offset: 0xD292, size: 0x8, addend: 0x0, symName: '__ZN63_$LT$u8$u20$as$u20$alloc..vec..spec_from_elem..SpecFromElem$GT$9from_elem17hc80a3387125c0c95E', symObjAddr: 0x0, symBinAddr: 0x2910, symSize: 0x158 }
  - { offset: 0xD996, size: 0x8, addend: 0x0, symName: '__ZN63_$LT$u8$u20$as$u20$alloc..vec..spec_from_elem..SpecFromElem$GT$9from_elem17hc80a3387125c0c95E', symObjAddr: 0x0, symBinAddr: 0x2910, symSize: 0x158 }
  - { offset: 0xDE2F, size: 0x8, addend: 0x0, symName: __ZN4pyo35types8sequence16extract_sequence17h0dca67239e09b47fE, symObjAddr: 0x0, symBinAddr: 0x2A68, symSize: 0x41C }
  - { offset: 0xF522, size: 0x8, addend: 0x0, symName: __ZN4pyo35types8sequence16extract_sequence17h0dca67239e09b47fE, symObjAddr: 0x0, symBinAddr: 0x2A68, symSize: 0x41C }
  - { offset: 0xF622, size: 0x8, addend: 0x0, symName: __ZN4pyo35types8sequence16extract_sequence17h91748c6bd8847438E, symObjAddr: 0x41C, symBinAddr: 0x2E84, symSize: 0x3F8 }
  - { offset: 0x10208, size: 0x8, addend: 0x0, symName: '__ZN100_$LT$pyo3..types..tuple..BorrowedTupleIterator$u20$as$u20$core..iter..traits..iterator..Iterator$GT$4next17h26737c435c031607E', symObjAddr: 0x0, symBinAddr: 0x327C, symSize: 0x9C }
  - { offset: 0x113F2, size: 0x8, addend: 0x0, symName: '__ZN100_$LT$pyo3..types..tuple..BorrowedTupleIterator$u20$as$u20$core..iter..traits..iterator..Iterator$GT$4next17h26737c435c031607E', symObjAddr: 0x0, symBinAddr: 0x327C, symSize: 0x9C }
  - { offset: 0x11AC8, size: 0x8, addend: 0x0, symName: __ZN8pyo3_ffi7cpython10listobject15PyList_SET_ITEM17hfc59a30c66a41270E, symObjAddr: 0x0, symBinAddr: 0x3318, symSize: 0x110 }
  - { offset: 0x120AA, size: 0x8, addend: 0x0, symName: __ZN8pyo3_ffi7cpython10listobject15PyList_SET_ITEM17hfc59a30c66a41270E, symObjAddr: 0x0, symBinAddr: 0x3318, symSize: 0x110 }
  - { offset: 0x13082, size: 0x8, addend: 0x0, symName: __ZN9hashbrown3raw11TableLayout20calculate_layout_for17h78e2b57dd82cc1eaE, symObjAddr: 0x0, symBinAddr: 0x3428, symSize: 0x220 }
  - { offset: 0x147AA, size: 0x8, addend: 0x0, symName: __ZN9hashbrown3raw11TableLayout20calculate_layout_for17h78e2b57dd82cc1eaE, symObjAddr: 0x0, symBinAddr: 0x3428, symSize: 0x220 }
  - { offset: 0x14CE9, size: 0x8, addend: 0x0, symName: __ZN9hashbrown3raw13RawTableInner15rehash_in_place17h2f424fc1bfcdc937E, symObjAddr: 0x220, symBinAddr: 0x3648, symSize: 0x41C }
  - { offset: 0x1564A, size: 0x8, addend: 0x0, symName: __ZN9hashbrown3raw13RawTableInner16fix_insert_index17he857e842409002fcE, symObjAddr: 0x63C, symBinAddr: 0x3A64, symSize: 0x100 }
  - { offset: 0x158BC, size: 0x8, addend: 0x0, symName: __ZN9hashbrown3raw13RawTableInner17find_insert_index17ha48733be3e49340bE, symObjAddr: 0x73C, symBinAddr: 0x3B64, symSize: 0xFC }
  - { offset: 0x15BB9, size: 0x8, addend: 0x0, symName: __ZN9hashbrown3raw13RawTableInner23prepare_rehash_in_place17h1c6d313da46ae9d3E, symObjAddr: 0x838, symBinAddr: 0x3C60, symSize: 0x204 }
  - { offset: 0x161AF, size: 0x8, addend: 0x0, symName: __ZN9hashbrown3raw13RawTableInner26find_insert_index_in_group17h73cf64de8438d548E, symObjAddr: 0xA3C, symBinAddr: 0x3E64, symSize: 0x120 }
  - { offset: 0x1646C, size: 0x8, addend: 0x0, symName: __ZN9hashbrown3raw13RawTableInner31find_or_find_insert_index_inner17hcc2883297e140f95E, symObjAddr: 0xB5C, symBinAddr: 0x3F84, symSize: 0x2A0 }
  - { offset: 0x16818, size: 0x8, addend: 0x0, symName: '__ZN51_$LT$T$u20$as$u20$core..borrow..Borrow$LT$T$GT$$GT$6borrow17hf947a3a8fded13abE', symObjAddr: 0x0, symBinAddr: 0x4224, symSize: 0x14 }
  - { offset: 0x16834, size: 0x8, addend: 0x0, symName: '__ZN51_$LT$T$u20$as$u20$core..borrow..Borrow$LT$T$GT$$GT$6borrow17hf947a3a8fded13abE', symObjAddr: 0x0, symBinAddr: 0x4224, symSize: 0x14 }
  - { offset: 0x168BC, size: 0x8, addend: 0x0, symName: '__ZN104_$LT$core..iter..adapters..copied..Copied$LT$I$GT$$u20$as$u20$core..iter..traits..iterator..Iterator$GT$4next17hc5618e1e18491427E', symObjAddr: 0x0, symBinAddr: 0x4238, symSize: 0x5C }
  - { offset: 0x17B23, size: 0x8, addend: 0x0, symName: '__ZN104_$LT$core..iter..adapters..copied..Copied$LT$I$GT$$u20$as$u20$core..iter..traits..iterator..Iterator$GT$4next17hc5618e1e18491427E', symObjAddr: 0x0, symBinAddr: 0x4238, symSize: 0x5C }
  - { offset: 0x17BC8, size: 0x8, addend: 0x0, symName: '__ZN63_$LT$I$u20$as$u20$core..iter..traits..collect..IntoIterator$GT$9into_iter17h2ff5f57fd4e6e2c9E', symObjAddr: 0x5C, symBinAddr: 0x4294, symSize: 0x1C }
  - { offset: 0x18284, size: 0x8, addend: 0x0, symName: __ZN5alloc6string6String4push17hddd9e654fccbade3E, symObjAddr: 0x0, symBinAddr: 0x42B0, symSize: 0x114 }
  - { offset: 0x185B4, size: 0x8, addend: 0x0, symName: '__ZN77_$LT$alloc..string..String$u20$as$u20$core..cmp..PartialEq$LT$$RF$str$GT$$GT$2eq17h576d79a56b411a24E', symObjAddr: 0x114, symBinAddr: 0x43C4, symSize: 0x64 }
  - { offset: 0x18BAD, size: 0x8, addend: 0x0, symName: __ZN5alloc6string6String4push17hddd9e654fccbade3E, symObjAddr: 0x0, symBinAddr: 0x42B0, symSize: 0x114 }
  - { offset: 0x18EDD, size: 0x8, addend: 0x0, symName: '__ZN60_$LT$i32$u20$as$u20$core..ops..arith..Add$LT$$RF$i32$GT$$GT$3add17hc1cb349cd0d95317E', symObjAddr: 0x0, symBinAddr: 0x4428, symSize: 0x50 }
  - { offset: 0x18F2B, size: 0x8, addend: 0x0, symName: '__ZN60_$LT$i32$u20$as$u20$core..ops..arith..Add$LT$$RF$i32$GT$$GT$3add17hc1cb349cd0d95317E', symObjAddr: 0x0, symBinAddr: 0x4428, symSize: 0x50 }
  - { offset: 0x18FB8, size: 0x8, addend: 0x0, symName: __ZN3std9panicking12catch_unwind7do_call17hb6dadfdc5a1b0083E, symObjAddr: 0x0, symBinAddr: 0x4478, symSize: 0x88 }
  - { offset: 0x1AE4D, size: 0x8, addend: 0x0, symName: __ZN3std9panicking12catch_unwind7do_call17hb6dadfdc5a1b0083E, symObjAddr: 0x0, symBinAddr: 0x4478, symSize: 0x88 }
  - { offset: 0x1AF48, size: 0x8, addend: 0x0, symName: __ZN3std9panicking12catch_unwind7do_call17hbb5468896a429f0fE, symObjAddr: 0x88, symBinAddr: 0x4500, symSize: 0x94 }
  - { offset: 0x1B043, size: 0x8, addend: 0x0, symName: __ZN3std9panicking12catch_unwind8do_catch17ha19d0064b7d03a07E, symObjAddr: 0x11C, symBinAddr: 0x4594, symSize: 0x70 }
  - { offset: 0x1B0D8, size: 0x8, addend: 0x0, symName: __ZN3std9panicking12catch_unwind8do_catch17hfa8ad22115003220E, symObjAddr: 0x18C, symBinAddr: 0x4604, symSize: 0x70 }
  - { offset: 0x1B45F, size: 0x8, addend: 0x0, symName: __ZN4core4iter6traits8iterator8Iterator9enumerate17hcf0d3f6aa5537b48E, symObjAddr: 0x0, symBinAddr: 0x4674, symSize: 0x38 }
  - { offset: 0x1BCB7, size: 0x8, addend: 0x0, symName: __ZN4core4iter6traits8iterator8Iterator9enumerate17hcf0d3f6aa5537b48E, symObjAddr: 0x0, symBinAddr: 0x4674, symSize: 0x38 }
  - { offset: 0x1BD65, size: 0x8, addend: 0x0, symName: '__ZN99_$LT$core..array..iter..IntoIter$LT$T$C$_$GT$$u20$as$u20$core..iter..traits..iterator..Iterator$GT$4next17h3c04aae0b65e19b4E', symObjAddr: 0x38, symBinAddr: 0x46AC, symSize: 0x2C }
  - { offset: 0x1CE63, size: 0x8, addend: 0x0, symName: '__ZN102_$LT$core..iter..adapters..zip..Zip$LT$A$C$B$GT$$u20$as$u20$core..iter..traits..iterator..Iterator$GT$4next17h5f1b5daa3e8d8d41E', symObjAddr: 0x0, symBinAddr: 0x46D8, symSize: 0x24 }
  - { offset: 0x1D660, size: 0x8, addend: 0x0, symName: '__ZN102_$LT$core..iter..adapters..zip..Zip$LT$A$C$B$GT$$u20$as$u20$core..iter..traits..iterator..Iterator$GT$4next17h5f1b5daa3e8d8d41E', symObjAddr: 0x0, symBinAddr: 0x46D8, symSize: 0x24 }
  - { offset: 0x1D69E, size: 0x8, addend: 0x0, symName: '__ZN102_$LT$core..iter..adapters..zip..Zip$LT$A$C$B$GT$$u20$as$u20$core..iter..traits..iterator..Iterator$GT$4next17hefac57980f89825bE', symObjAddr: 0x24, symBinAddr: 0x46FC, symSize: 0x24 }
  - { offset: 0x1D6E2, size: 0x8, addend: 0x0, symName: '__ZN111_$LT$core..iter..adapters..zip..Zip$LT$A$C$B$GT$$u20$as$u20$core..iter..adapters..zip..ZipImpl$LT$A$C$B$GT$$GT$3new17h4e882b647396c55cE', symObjAddr: 0x48, symBinAddr: 0x4720, symSize: 0x3C }
  - { offset: 0x1D72E, size: 0x8, addend: 0x0, symName: '__ZN111_$LT$core..iter..adapters..zip..Zip$LT$A$C$B$GT$$u20$as$u20$core..iter..adapters..zip..ZipImpl$LT$A$C$B$GT$$GT$4next17h3d575fd405686b24E', symObjAddr: 0x238, symBinAddr: 0x4910, symSize: 0xE0 }
  - { offset: 0x1D895, size: 0x8, addend: 0x0, symName: '__ZN111_$LT$core..iter..adapters..zip..Zip$LT$A$C$B$GT$$u20$as$u20$core..iter..adapters..zip..ZipImpl$LT$A$C$B$GT$$GT$3new17h52bfb30ad83348f7E', symObjAddr: 0x84, symBinAddr: 0x475C, symSize: 0xE0 }
  - { offset: 0x1D92A, size: 0x8, addend: 0x0, symName: '__ZN111_$LT$core..iter..adapters..zip..Zip$LT$A$C$B$GT$$u20$as$u20$core..iter..adapters..zip..ZipImpl$LT$A$C$B$GT$$GT$4next17h04d6235bd0085773E', symObjAddr: 0x164, symBinAddr: 0x483C, symSize: 0xD4 }
  - { offset: 0x1DA97, size: 0x8, addend: 0x0, symName: '__ZN63_$LT$I$u20$as$u20$core..iter..traits..collect..IntoIterator$GT$9into_iter17h93216d8fba7e0fc2E', symObjAddr: 0x318, symBinAddr: 0x49F0, symSize: 0x30 }
  - { offset: 0x1DACF, size: 0x8, addend: 0x0, symName: '__ZN63_$LT$I$u20$as$u20$core..iter..traits..collect..IntoIterator$GT$9into_iter17hb2f2618f00b64699E', symObjAddr: 0x348, symBinAddr: 0x4A20, symSize: 0x30 }
  - { offset: 0x1DB07, size: 0x8, addend: 0x0, symName: '__ZN63_$LT$I$u20$as$u20$core..iter..traits..collect..IntoIterator$GT$9into_iter17hc9adab52a6d58c4cE', symObjAddr: 0x378, symBinAddr: 0x4A50, symSize: 0x30 }
  - { offset: 0x1F16E, size: 0x8, addend: 0x0, symName: '__ZN4core3ptr9const_ptr33_$LT$impl$u20$$BP$const$u20$T$GT$20offset_from_unsigned18precondition_check17h7f64b0e7697ea1f3E', symObjAddr: 0x0, symBinAddr: 0x4A80, symSize: 0x60 }
  - { offset: 0x1F194, size: 0x8, addend: 0x0, symName: '__ZN4core3ptr9const_ptr33_$LT$impl$u20$$BP$const$u20$T$GT$20offset_from_unsigned18precondition_check17h7f64b0e7697ea1f3E', symObjAddr: 0x0, symBinAddr: 0x4A80, symSize: 0x60 }
  - { offset: 0x1F27D, size: 0x8, addend: 0x0, symName: '__ZN4core3ptr9const_ptr33_$LT$impl$u20$$BP$const$u20$T$GT$6offset18precondition_check17h8ee6d4375c6bbb51E', symObjAddr: 0x60, symBinAddr: 0x4AE0, symSize: 0xC4 }
  - { offset: 0x1F664, size: 0x8, addend: 0x0, symName: __ZN4core4hash11BuildHasher8hash_one17h2365c35139954c25E, symObjAddr: 0x0, symBinAddr: 0x4BA4, symSize: 0x84 }
  - { offset: 0x1F680, size: 0x8, addend: 0x0, symName: __ZN4core4hash11BuildHasher8hash_one17h2365c35139954c25E, symObjAddr: 0x0, symBinAddr: 0x4BA4, symSize: 0x84 }
  - { offset: 0x1F86E, size: 0x8, addend: 0x0, symName: '__ZN123_$LT$pyo3..instance..Bound$LT$pyo3..types..sequence..PySequence$GT$$u20$as$u20$pyo3..types..sequence..PySequenceMethods$GT$3len17h96d001585a5fe38bE', symObjAddr: 0x0, symBinAddr: 0x4C28, symSize: 0xD4 }
  - { offset: 0x20FA8, size: 0x8, addend: 0x0, symName: '__ZN123_$LT$pyo3..instance..Bound$LT$pyo3..types..sequence..PySequence$GT$$u20$as$u20$pyo3..types..sequence..PySequenceMethods$GT$3len17h96d001585a5fe38bE', symObjAddr: 0x0, symBinAddr: 0x4C28, symSize: 0xD4 }
  - { offset: 0x21032, size: 0x8, addend: 0x0, symName: '__ZN4pyo35types8iterator131_$LT$impl$u20$core..iter..traits..iterator..Iterator$u20$for$u20$pyo3..instance..Bound$LT$pyo3..types..iterator..PyIterator$GT$$GT$4next17h68511840371f1fe2E', symObjAddr: 0xD4, symBinAddr: 0x4CFC, symSize: 0x30 }
  - { offset: 0x2187F, size: 0x8, addend: 0x0, symName: '__ZN4pyo38instance36Bound$LT$pyo3..types..any..PyAny$GT$14from_owned_ptr17h0a31e098c2e9dde2E', symObjAddr: 0x104, symBinAddr: 0x4D2C, symSize: 0x2C }
  - { offset: 0x218C7, size: 0x8, addend: 0x0, symName: '__ZN4pyo38instance39Borrowed$LT$pyo3..types..any..PyAny$GT$15from_ptr_or_opt17he963bf704d95eb18E', symObjAddr: 0x130, symBinAddr: 0x4D58, symSize: 0x2C }
  - { offset: 0x21B43, size: 0x8, addend: 0x0, symName: '__ZN59_$LT$alloc..alloc..Global$u20$as$u20$core..clone..Clone$GT$5clone17h1230b7e604f09c30E', symObjAddr: 0x0, symBinAddr: 0x4D84, symSize: 0x10 }
  - { offset: 0x21E8E, size: 0x8, addend: 0x0, symName: '__ZN59_$LT$alloc..alloc..Global$u20$as$u20$core..clone..Clone$GT$5clone17h1230b7e604f09c30E', symObjAddr: 0x0, symBinAddr: 0x4D84, symSize: 0x10 }
  - { offset: 0x21F1A, size: 0x8, addend: 0x0, symName: '__ZN63_$LT$alloc..alloc..Global$u20$as$u20$core..alloc..Allocator$GT$10deallocate17h976cf627ebe8e264E', symObjAddr: 0x10, symBinAddr: 0x4D94, symSize: 0x58 }
  - { offset: 0x220A2, size: 0x8, addend: 0x0, symName: '__ZN4core5slice29_$LT$impl$u20$$u5b$T$u5d$$GT$12split_at_mut17h136fcf0734dc2d31E', symObjAddr: 0x0, symBinAddr: 0x4DEC, symSize: 0xAC }
  - { offset: 0x23370, size: 0x8, addend: 0x0, symName: '__ZN4core5slice29_$LT$impl$u20$$u5b$T$u5d$$GT$12split_at_mut17h136fcf0734dc2d31E', symObjAddr: 0x0, symBinAddr: 0x4DEC, symSize: 0xAC }
  - { offset: 0x233FB, size: 0x8, addend: 0x0, symName: '__ZN4core5slice29_$LT$impl$u20$$u5b$T$u5d$$GT$22split_at_mut_unchecked17h8f294aef50a60ccaE', symObjAddr: 0xAC, symBinAddr: 0x4E98, symSize: 0xF8 }
  - { offset: 0x2355B, size: 0x8, addend: 0x0, symName: '__ZN4core5slice29_$LT$impl$u20$$u5b$T$u5d$$GT$7reverse17hb197cf082cdec1e1E', symObjAddr: 0x1A4, symBinAddr: 0x4F90, symSize: 0xFC }
  - { offset: 0x236E7, size: 0x8, addend: 0x0, symName: '__ZN4core5slice29_$LT$impl$u20$$u5b$T$u5d$$GT$8iter_mut17he9ba2c69542b4654E', symObjAddr: 0x2A0, symBinAddr: 0x508C, symSize: 0x28 }
  - { offset: 0x25685, size: 0x8, addend: 0x0, symName: __ZN5alloc3vec9from_elem17h2f6796d0e8bc1e66E, symObjAddr: 0x1118, symBinAddr: 0x5F04, symSize: 0x24 }
  - { offset: 0x256CB, size: 0x8, addend: 0x0, symName: __ZN5alloc3vec9from_elem17h2fa07c900f413b78E, symObjAddr: 0x113C, symBinAddr: 0x5F28, symSize: 0x20 }
  - { offset: 0x2571C, size: 0x8, addend: 0x0, symName: '__ZN62_$LT$T$u20$as$u20$alloc..vec..spec_from_elem..SpecFromElem$GT$9from_elem17h843c11a4a4c87060E', symObjAddr: 0x115C, symBinAddr: 0x5F48, symSize: 0xF8 }
  - { offset: 0x258FC, size: 0x8, addend: 0x0, symName: '__ZN67_$LT$alloc..vec..Vec$LT$T$C$A$GT$$u20$as$u20$core..clone..Clone$GT$5clone17hc0d8fac18a517a7eE', symObjAddr: 0x1254, symBinAddr: 0x6040, symSize: 0x4C }
  - { offset: 0x25A64, size: 0x8, addend: 0x0, symName: '__ZN67_$LT$alloc..vec..Vec$LT$T$C$A$GT$$u20$as$u20$core..clone..Clone$GT$5clone17hd0b70dca8e53cabbE', symObjAddr: 0x12A0, symBinAddr: 0x608C, symSize: 0x4C }
  - { offset: 0x25BD2, size: 0x8, addend: 0x0, symName: '__ZN75_$LT$alloc..vec..Vec$LT$T$C$A$GT$$u20$as$u20$core..ops..deref..DerefMut$GT$9deref_mut17hc6fc39c0646697aeE', symObjAddr: 0x1314, symBinAddr: 0x6100, symSize: 0x20 }
  - { offset: 0x25CF5, size: 0x8, addend: 0x0, symName: '__ZN81_$LT$alloc..vec..Vec$LT$T$C$A$GT$$u20$as$u20$core..ops..index..Index$LT$I$GT$$GT$5index17hc83e8d0968ace318E', symObjAddr: 0x1334, symBinAddr: 0x6120, symSize: 0x44 }
  - { offset: 0x25E0E, size: 0x8, addend: 0x0, symName: '__ZN81_$LT$alloc..vec..Vec$LT$T$C$A$GT$$u20$as$u20$core..ops..index..Index$LT$I$GT$$GT$5index17hc8654f417d219e6bE', symObjAddr: 0x1378, symBinAddr: 0x6164, symSize: 0x44 }
  - { offset: 0x25F2D, size: 0x8, addend: 0x0, symName: '__ZN84_$LT$alloc..vec..Vec$LT$T$C$A$GT$$u20$as$u20$core..ops..index..IndexMut$LT$I$GT$$GT$9index_mut17h08f9f60a8eb57a83E', symObjAddr: 0x13BC, symBinAddr: 0x61A8, symSize: 0x44 }
  - { offset: 0x26046, size: 0x8, addend: 0x0, symName: '__ZN84_$LT$alloc..vec..Vec$LT$T$C$A$GT$$u20$as$u20$core..ops..index..IndexMut$LT$I$GT$$GT$9index_mut17h346408c09203f535E', symObjAddr: 0x1400, symBinAddr: 0x61EC, symSize: 0x44 }
  - { offset: 0x26165, size: 0x8, addend: 0x0, symName: '__ZN88_$LT$alloc..vec..Vec$LT$T$C$A$GT$$u20$as$u20$core..convert..AsRef$LT$$u5b$T$u5d$$GT$$GT$6as_ref17h98b75de4a154ae22E', symObjAddr: 0x17D0, symBinAddr: 0x65BC, symSize: 0x20 }
  - { offset: 0x26246, size: 0x8, addend: 0x0, symName: '__ZN90_$LT$alloc..vec..Vec$LT$T$C$A$GT$$u20$as$u20$core..iter..traits..collect..IntoIterator$GT$9into_iter17h13d4ba3c97986362E', symObjAddr: 0x17F0, symBinAddr: 0x65DC, symSize: 0xA8 }
  - { offset: 0x2643D, size: 0x8, addend: 0x0, symName: '__ZN90_$LT$alloc..vec..Vec$LT$T$C$A$GT$$u20$as$u20$core..iter..traits..collect..IntoIterator$GT$9into_iter17h1fc5095b1e80e8fcE', symObjAddr: 0x1898, symBinAddr: 0x6684, symSize: 0xA8 }
  - { offset: 0x26634, size: 0x8, addend: 0x0, symName: '__ZN90_$LT$alloc..vec..Vec$LT$T$C$A$GT$$u20$as$u20$core..iter..traits..collect..IntoIterator$GT$9into_iter17hcd2ea34d8393c076E', symObjAddr: 0x1940, symBinAddr: 0x672C, symSize: 0xB0 }
  - { offset: 0x26831, size: 0x8, addend: 0x0, symName: '__ZN94_$LT$$RF$alloc..vec..Vec$LT$T$C$A$GT$$u20$as$u20$core..iter..traits..collect..IntoIterator$GT$9into_iter17h07d8670dc543560cE', symObjAddr: 0x19F0, symBinAddr: 0x67DC, symSize: 0x60 }
  - { offset: 0x271D1, size: 0x8, addend: 0x0, symName: '__ZN87_$LT$T$u20$as$u20$alloc..slice..$LT$impl$u20$$u5b$T$u5d$$GT$..to_vec_in..ConvertVec$GT$6to_vec17h0bd3eb4b133e24ccE', symObjAddr: 0x1444, symBinAddr: 0x6230, symSize: 0x38C }
  - { offset: 0x2778D, size: 0x8, addend: 0x0, symName: __ZN4pyo310conversion12IntoPyObject28owned_sequence_into_pyobject17hde5923cf84c68facE, symObjAddr: 0x2C8, symBinAddr: 0x50B4, symSize: 0xDC }
  - { offset: 0x27843, size: 0x8, addend: 0x0, symName: __ZN4pyo310conversion15IntoPyObjectExt17into_bound_py_any17h800dd7faed7f577cE, symObjAddr: 0x3A4, symBinAddr: 0x5190, symSize: 0xE0 }
  - { offset: 0x278D6, size: 0x8, addend: 0x0, symName: __ZN4pyo310conversion15IntoPyObjectExt17into_bound_py_any17haa85b897ec12d4a9E, symObjAddr: 0x484, symBinAddr: 0x5270, symSize: 0xE0 }
  - { offset: 0x27969, size: 0x8, addend: 0x0, symName: __ZN4pyo310conversion15IntoPyObjectExt17into_bound_py_any17hb67e1fd4e2d066e6E, symObjAddr: 0x564, symBinAddr: 0x5350, symSize: 0xE0 }
  - { offset: 0x279FC, size: 0x8, addend: 0x0, symName: __ZN4pyo310conversion15IntoPyObjectExt22into_pyobject_or_pyerr17h17ebf123f7834459E, symObjAddr: 0x644, symBinAddr: 0x5430, symSize: 0xD8 }
  - { offset: 0x27A95, size: 0x8, addend: 0x0, symName: '__ZN57_$LT$T$u20$as$u20$pyo3..conversion..FromPyObjectBound$GT$20from_py_object_bound17h9992d59a8529fd0bE', symObjAddr: 0x8FC, symBinAddr: 0x56E8, symSize: 0x34 }
  - { offset: 0x27ACC, size: 0x8, addend: 0x0, symName: '__ZN57_$LT$T$u20$as$u20$pyo3..conversion..FromPyObjectBound$GT$20from_py_object_bound17hb987d48a5729623cE', symObjAddr: 0x930, symBinAddr: 0x571C, symSize: 0x34 }
  - { offset: 0x27B27, size: 0x8, addend: 0x0, symName: '__ZN4pyo311conversions3std3vec85_$LT$impl$u20$pyo3..conversion..IntoPyObject$u20$for$u20$alloc..vec..Vec$LT$T$GT$$GT$13into_pyobject17h133a34ca7099c0b7E', symObjAddr: 0x71C, symBinAddr: 0x5508, symSize: 0x34 }
  - { offset: 0x27B76, size: 0x8, addend: 0x0, symName: '__ZN4pyo311conversions3std3vec85_$LT$impl$u20$pyo3..conversion..IntoPyObject$u20$for$u20$alloc..vec..Vec$LT$T$GT$$GT$13into_pyobject17h5280b9be865c3052E', symObjAddr: 0x750, symBinAddr: 0x553C, symSize: 0x34 }
  - { offset: 0x27BC5, size: 0x8, addend: 0x0, symName: '__ZN4pyo311conversions3std3vec85_$LT$impl$u20$pyo3..conversion..IntoPyObject$u20$for$u20$alloc..vec..Vec$LT$T$GT$$GT$13into_pyobject17h7c254b07e7c13004E', symObjAddr: 0x784, symBinAddr: 0x5570, symSize: 0x34 }
  - { offset: 0x27C14, size: 0x8, addend: 0x0, symName: '__ZN4pyo311conversions3std3vec85_$LT$impl$u20$pyo3..conversion..IntoPyObject$u20$for$u20$alloc..vec..Vec$LT$T$GT$$GT$13into_pyobject17h94a47d386f7cce96E', symObjAddr: 0x7B8, symBinAddr: 0x55A4, symSize: 0x34 }
  - { offset: 0x27C76, size: 0x8, addend: 0x0, symName: '__ZN4pyo35types8sequence85_$LT$impl$u20$pyo3..conversion..FromPyObject$u20$for$u20$alloc..vec..Vec$LT$T$GT$$GT$13extract_bound17hc485c7a3d7cbe7e0E', symObjAddr: 0x7EC, symBinAddr: 0x55D8, symSize: 0x88 }
  - { offset: 0x27CAD, size: 0x8, addend: 0x0, symName: '__ZN4pyo35types8sequence85_$LT$impl$u20$pyo3..conversion..FromPyObject$u20$for$u20$alloc..vec..Vec$LT$T$GT$$GT$13extract_bound17hdeacb83ea7750a8dE', symObjAddr: 0x874, symBinAddr: 0x5660, symSize: 0x88 }
  - { offset: 0x27E3A, size: 0x8, addend: 0x0, symName: '__ZN71_$LT$T$u20$as$u20$pyo3..impl_..extract_argument..PyFunctionArgument$GT$7extract17hfc13edea62a166f3E', symObjAddr: 0x12EC, symBinAddr: 0x60D8, symSize: 0x28 }
  - { offset: 0x28042, size: 0x8, addend: 0x0, symName: '__ZN5alloc3vec12Vec$LT$T$GT$13with_capacity17h91bc43310449bce4E', symObjAddr: 0x964, symBinAddr: 0x5750, symSize: 0x44 }
  - { offset: 0x280E1, size: 0x8, addend: 0x0, symName: '__ZN5alloc3vec12Vec$LT$T$GT$3new17h1f5158bc41678fa9E', symObjAddr: 0x9A8, symBinAddr: 0x5794, symSize: 0x14 }
  - { offset: 0x2854E, size: 0x8, addend: 0x0, symName: '__ZN5alloc3vec12Vec$LT$T$GT$3new17h4d64912f91c11c36E', symObjAddr: 0x9BC, symBinAddr: 0x57A8, symSize: 0x14 }
  - { offset: 0x2856B, size: 0x8, addend: 0x0, symName: '__ZN5alloc3vec12Vec$LT$T$GT$3new17h85f019ceb26635c6E', symObjAddr: 0x9D0, symBinAddr: 0x57BC, symSize: 0x14 }
  - { offset: 0x285A6, size: 0x8, addend: 0x0, symName: '__ZN5alloc3vec12Vec$LT$T$GT$3new17hd1c1c1982f0ea440E', symObjAddr: 0x9E4, symBinAddr: 0x57D0, symSize: 0x14 }
  - { offset: 0x28714, size: 0x8, addend: 0x0, symName: '__ZN5alloc3vec16Vec$LT$T$C$A$GT$11extend_with17hdae4a520a32839bbE', symObjAddr: 0x9F8, symBinAddr: 0x57E4, symSize: 0x214 }
  - { offset: 0x289A1, size: 0x8, addend: 0x0, symName: '__ZN5alloc3vec16Vec$LT$T$C$A$GT$3len17h2d803350a87e24b5E', symObjAddr: 0xC0C, symBinAddr: 0x59F8, symSize: 0x18 }
  - { offset: 0x289E3, size: 0x8, addend: 0x0, symName: '__ZN5alloc3vec16Vec$LT$T$C$A$GT$3len17hd48e0a218cc36779E', symObjAddr: 0xC24, symBinAddr: 0x5A10, symSize: 0x18 }
  - { offset: 0x28A25, size: 0x8, addend: 0x0, symName: '__ZN5alloc3vec16Vec$LT$T$C$A$GT$4push17h2c2a18590503e361E', symObjAddr: 0xC3C, symBinAddr: 0x5A28, symSize: 0x2C }
  - { offset: 0x28A69, size: 0x8, addend: 0x0, symName: '__ZN5alloc3vec16Vec$LT$T$C$A$GT$4push17h3238c96617a7e034E', symObjAddr: 0xC68, symBinAddr: 0x5A54, symSize: 0x24 }
  - { offset: 0x28ABB, size: 0x8, addend: 0x0, symName: '__ZN5alloc3vec16Vec$LT$T$C$A$GT$4push17h480fa5dabed74a99E', symObjAddr: 0xC8C, symBinAddr: 0x5A78, symSize: 0x30 }
  - { offset: 0x28B0C, size: 0x8, addend: 0x0, symName: '__ZN5alloc3vec16Vec$LT$T$C$A$GT$4push17h8b2c94407fb912a8E', symObjAddr: 0xCBC, symBinAddr: 0x5AA8, symSize: 0x2C }
  - { offset: 0x28C80, size: 0x8, addend: 0x0, symName: '__ZN5alloc3vec16Vec$LT$T$C$A$GT$7reserve17h50256b4c16ed4449E', symObjAddr: 0xCE8, symBinAddr: 0x5AD4, symSize: 0xA8 }
  - { offset: 0x28EE2, size: 0x8, addend: 0x0, symName: '__ZN5alloc3vec16Vec$LT$T$C$A$GT$8push_mut17h40f7b6ae354f6629E', symObjAddr: 0xD90, symBinAddr: 0x5B7C, symSize: 0xD8 }
  - { offset: 0x29178, size: 0x8, addend: 0x0, symName: '__ZN5alloc3vec16Vec$LT$T$C$A$GT$8push_mut17h4762dc839d74a639E', symObjAddr: 0xE68, symBinAddr: 0x5C54, symSize: 0xDC }
  - { offset: 0x2940F, size: 0x8, addend: 0x0, symName: '__ZN5alloc3vec16Vec$LT$T$C$A$GT$8push_mut17h6809bf3a9b704d4aE', symObjAddr: 0xF44, symBinAddr: 0x5D30, symSize: 0xE0 }
  - { offset: 0x2967F, size: 0x8, addend: 0x0, symName: '__ZN5alloc3vec16Vec$LT$T$C$A$GT$8push_mut17h7edda5279b47f20bE', symObjAddr: 0x1024, symBinAddr: 0x5E10, symSize: 0xF4 }
  - { offset: 0x2A971, size: 0x8, addend: 0x0, symName: '__ZN87_$LT$$BP$mut$u20$pyo3_ffi..object..PyObject$u20$as$u20$pyo3..ffi_ptr_ext..FfiPtrExt$GT$12assume_owned17ha0dff2cb23f267ceE', symObjAddr: 0x0, symBinAddr: 0x683C, symSize: 0x24 }
  - { offset: 0x2BB0D, size: 0x8, addend: 0x0, symName: '__ZN87_$LT$$BP$mut$u20$pyo3_ffi..object..PyObject$u20$as$u20$pyo3..ffi_ptr_ext..FfiPtrExt$GT$12assume_owned17ha0dff2cb23f267ceE', symObjAddr: 0x0, symBinAddr: 0x683C, symSize: 0x24 }
  - { offset: 0x2C114, size: 0x8, addend: 0x0, symName: '__ZN78_$LT$sha2..core_api..Sha256VarCore$u20$as$u20$digest..core_api..UpdateCore$GT$13update_blocks17hd95788790c89aeabE', symObjAddr: 0x0, symBinAddr: 0x6860, symSize: 0x70 }
  - { offset: 0x2C130, size: 0x8, addend: 0x0, symName: '__ZN78_$LT$sha2..core_api..Sha256VarCore$u20$as$u20$digest..core_api..UpdateCore$GT$13update_blocks17hd95788790c89aeabE', symObjAddr: 0x0, symBinAddr: 0x6860, symSize: 0x70 }
  - { offset: 0x2C16C, size: 0x8, addend: 0x0, symName: '__ZN86_$LT$sha2..core_api..Sha256VarCore$u20$as$u20$digest..core_api..VariableOutputCore$GT$22finalize_variable_core17h07c12986fa7e7a22E', symObjAddr: 0x70, symBinAddr: 0x68D0, symSize: 0x234 }
  - { offset: 0x2C27F, size: 0x8, addend: 0x0, symName: '__ZN86_$LT$sha2..core_api..Sha256VarCore$u20$as$u20$digest..core_api..VariableOutputCore$GT$3new17hf773b8af7b62db54E', symObjAddr: 0x2A4, symBinAddr: 0x6B04, symSize: 0xD4 }
  - { offset: 0x2CA84, size: 0x8, addend: 0x0, symName: __ZN4core4hint16assert_unchecked18precondition_check17h640b0c43f8c2557bE, symObjAddr: 0x0, symBinAddr: 0x6BD8, symSize: 0x58 }
  - { offset: 0x2CAA0, size: 0x8, addend: 0x0, symName: __ZN4core4hint16assert_unchecked18precondition_check17h640b0c43f8c2557bE, symObjAddr: 0x0, symBinAddr: 0x6BD8, symSize: 0x58 }
  - { offset: 0x2CB42, size: 0x8, addend: 0x0, symName: '__ZN102_$LT$core..iter..adapters..map..Map$LT$I$C$F$GT$$u20$as$u20$core..iter..traits..iterator..Iterator$GT$4next17h84359259141ad6a9E', symObjAddr: 0x0, symBinAddr: 0x6C30, symSize: 0x98 }
  - { offset: 0x2E4CC, size: 0x8, addend: 0x0, symName: '__ZN102_$LT$core..iter..adapters..map..Map$LT$I$C$F$GT$$u20$as$u20$core..iter..traits..iterator..Iterator$GT$4next17h84359259141ad6a9E', symObjAddr: 0x0, symBinAddr: 0x6C30, symSize: 0x98 }
  - { offset: 0x2E568, size: 0x8, addend: 0x0, symName: '__ZN102_$LT$core..iter..adapters..map..Map$LT$I$C$F$GT$$u20$as$u20$core..iter..traits..iterator..Iterator$GT$4next17hc3a0ce2674208325E', symObjAddr: 0x98, symBinAddr: 0x6CC8, symSize: 0x98 }
  - { offset: 0x2E604, size: 0x8, addend: 0x0, symName: '__ZN102_$LT$core..iter..adapters..map..Map$LT$I$C$F$GT$$u20$as$u20$core..iter..traits..iterator..Iterator$GT$4next17hc727c4feee4fd343E', symObjAddr: 0x130, symBinAddr: 0x6D60, symSize: 0xB0 }
  - { offset: 0x2E6A0, size: 0x8, addend: 0x0, symName: '__ZN102_$LT$core..iter..adapters..map..Map$LT$I$C$F$GT$$u20$as$u20$core..iter..traits..iterator..Iterator$GT$8try_fold17h81f78c1fc2df9dfbE', symObjAddr: 0x1E0, symBinAddr: 0x6E10, symSize: 0x58 }
  - { offset: 0x2E743, size: 0x8, addend: 0x0, symName: '__ZN102_$LT$core..iter..adapters..map..Map$LT$I$C$F$GT$$u20$as$u20$core..iter..traits..iterator..Iterator$GT$8try_fold17h8da30251cdab980fE', symObjAddr: 0x238, symBinAddr: 0x6E68, symSize: 0x58 }
  - { offset: 0x2E7E6, size: 0x8, addend: 0x0, symName: '__ZN102_$LT$core..iter..adapters..map..Map$LT$I$C$F$GT$$u20$as$u20$core..iter..traits..iterator..Iterator$GT$8try_fold17ha81242107dd79790E', symObjAddr: 0x290, symBinAddr: 0x6EC0, symSize: 0x58 }
  - { offset: 0x2E946, size: 0x8, addend: 0x0, symName: '__ZN4core4iter8adapters3map12map_try_fold28_$u7b$$u7b$closure$u7d$$u7d$17h6e096867da2121c7E', symObjAddr: 0x39C, symBinAddr: 0x6FCC, symSize: 0xC8 }
  - { offset: 0x2E9D8, size: 0x8, addend: 0x0, symName: '__ZN4core4iter8adapters3map12map_try_fold28_$u7b$$u7b$closure$u7d$$u7d$17h8907370d5a89c94cE', symObjAddr: 0x464, symBinAddr: 0x7094, symSize: 0xC4 }
  - { offset: 0x2EA6A, size: 0x8, addend: 0x0, symName: '__ZN4core4iter8adapters3map12map_try_fold28_$u7b$$u7b$closure$u7d$$u7d$17hd19bcc0d42ac954eE', symObjAddr: 0x528, symBinAddr: 0x7158, symSize: 0xD0 }
  - { offset: 0x2EBBD, size: 0x8, addend: 0x0, symName: '__ZN113_$LT$core..iter..adapters..map..Map$LT$I$C$F$GT$$u20$as$u20$core..iter..traits..exact_size..ExactSizeIterator$GT$3len17h23379fe6d10f2e6bE', symObjAddr: 0x2E8, symBinAddr: 0x6F18, symSize: 0x24 }
  - { offset: 0x2EC04, size: 0x8, addend: 0x0, symName: '__ZN113_$LT$core..iter..adapters..map..Map$LT$I$C$F$GT$$u20$as$u20$core..iter..traits..exact_size..ExactSizeIterator$GT$3len17h7e32ec70956c7652E', symObjAddr: 0x30C, symBinAddr: 0x6F3C, symSize: 0x24 }
  - { offset: 0x2EC4B, size: 0x8, addend: 0x0, symName: '__ZN113_$LT$core..iter..adapters..map..Map$LT$I$C$F$GT$$u20$as$u20$core..iter..traits..exact_size..ExactSizeIterator$GT$3len17hfa936bb61911a21dE', symObjAddr: 0x330, symBinAddr: 0x6F60, symSize: 0x24 }
  - { offset: 0x2EE2D, size: 0x8, addend: 0x0, symName: __ZN4core4iter6traits8iterator8Iterator4take17h3d00ebb48a4e82f5E, symObjAddr: 0x354, symBinAddr: 0x6F84, symSize: 0x18 }
  - { offset: 0x2EE73, size: 0x8, addend: 0x0, symName: __ZN4core4iter6traits8iterator8Iterator4take17h516f3e5150de11edE, symObjAddr: 0x36C, symBinAddr: 0x6F9C, symSize: 0x18 }
  - { offset: 0x2EEB9, size: 0x8, addend: 0x0, symName: __ZN4core4iter6traits8iterator8Iterator4take17h6c70ba149a9bd7bfE, symObjAddr: 0x384, symBinAddr: 0x6FB4, symSize: 0x18 }
  - { offset: 0x2EF05, size: 0x8, addend: 0x0, symName: '__ZN72_$LT$$RF$mut$u20$I$u20$as$u20$core..iter..traits..iterator..Iterator$GT$4next17h3ea76493881359e9E', symObjAddr: 0x5F8, symBinAddr: 0x7228, symSize: 0x28 }
  - { offset: 0x2EF3C, size: 0x8, addend: 0x0, symName: '__ZN72_$LT$$RF$mut$u20$I$u20$as$u20$core..iter..traits..iterator..Iterator$GT$4next17h5043243327ffb68eE', symObjAddr: 0x620, symBinAddr: 0x7250, symSize: 0x28 }
  - { offset: 0x2EF73, size: 0x8, addend: 0x0, symName: '__ZN72_$LT$$RF$mut$u20$I$u20$as$u20$core..iter..traits..iterator..Iterator$GT$4next17hd7f637808c1a119aE', symObjAddr: 0x648, symBinAddr: 0x7278, symSize: 0x28 }
  - { offset: 0x2EFAA, size: 0x8, addend: 0x0, symName: '__ZN72_$LT$$RF$mut$u20$I$u20$as$u20$core..iter..traits..iterator..Iterator$GT$8try_fold17h490f803b2cc45e2cE', symObjAddr: 0x670, symBinAddr: 0x72A0, symSize: 0x38 }
  - { offset: 0x2F01A, size: 0x8, addend: 0x0, symName: '__ZN72_$LT$$RF$mut$u20$I$u20$as$u20$core..iter..traits..iterator..Iterator$GT$8try_fold17h8ba8ee539ff3120cE', symObjAddr: 0x6A8, symBinAddr: 0x72D8, symSize: 0x38 }
  - { offset: 0x2F08A, size: 0x8, addend: 0x0, symName: '__ZN72_$LT$$RF$mut$u20$I$u20$as$u20$core..iter..traits..iterator..Iterator$GT$8try_fold17had89302e1874387dE', symObjAddr: 0x6E0, symBinAddr: 0x7310, symSize: 0x38 }
  - { offset: 0x2F0FA, size: 0x8, addend: 0x0, symName: '__ZN72_$LT$$RF$mut$u20$I$u20$as$u20$core..iter..traits..iterator..Iterator$GT$8try_fold17hc3521163e4fd9580E', symObjAddr: 0x718, symBinAddr: 0x7348, symSize: 0x38 }
  - { offset: 0x2F16A, size: 0x8, addend: 0x0, symName: '__ZN72_$LT$$RF$mut$u20$I$u20$as$u20$core..iter..traits..iterator..Iterator$GT$8try_fold17hdd77014ce7dbc2d9E', symObjAddr: 0x750, symBinAddr: 0x7380, symSize: 0x38 }
  - { offset: 0x2F1DA, size: 0x8, addend: 0x0, symName: '__ZN72_$LT$$RF$mut$u20$I$u20$as$u20$core..iter..traits..iterator..Iterator$GT$8try_fold17he8f45f6db5e80332E', symObjAddr: 0x788, symBinAddr: 0x73B8, symSize: 0x38 }
  - { offset: 0x2F250, size: 0x8, addend: 0x0, symName: '__ZN79_$LT$$RF$mut$u20$I$u20$as$u20$core..iter..traits..iterator..IteratorRefSpec$GT$13spec_try_fold17h0518cefa96002b5eE', symObjAddr: 0x7C0, symBinAddr: 0x73F0, symSize: 0x3C }
  - { offset: 0x2F2C0, size: 0x8, addend: 0x0, symName: '__ZN79_$LT$$RF$mut$u20$I$u20$as$u20$core..iter..traits..iterator..IteratorRefSpec$GT$13spec_try_fold17h1e37998c6e8d9053E', symObjAddr: 0x7FC, symBinAddr: 0x742C, symSize: 0x3C }
  - { offset: 0x2F330, size: 0x8, addend: 0x0, symName: '__ZN79_$LT$$RF$mut$u20$I$u20$as$u20$core..iter..traits..iterator..IteratorRefSpec$GT$13spec_try_fold17h4698c666b5401442E', symObjAddr: 0x838, symBinAddr: 0x7468, symSize: 0x3C }
  - { offset: 0x2F3A0, size: 0x8, addend: 0x0, symName: '__ZN79_$LT$$RF$mut$u20$I$u20$as$u20$core..iter..traits..iterator..IteratorRefSpec$GT$13spec_try_fold17ha4c194f7ba2e7267E', symObjAddr: 0x874, symBinAddr: 0x74A4, symSize: 0x3C }
  - { offset: 0x2F410, size: 0x8, addend: 0x0, symName: '__ZN79_$LT$$RF$mut$u20$I$u20$as$u20$core..iter..traits..iterator..IteratorRefSpec$GT$13spec_try_fold17hb4e451a72daf0a4aE', symObjAddr: 0x8B0, symBinAddr: 0x74E0, symSize: 0x3C }
  - { offset: 0x2F480, size: 0x8, addend: 0x0, symName: '__ZN79_$LT$$RF$mut$u20$I$u20$as$u20$core..iter..traits..iterator..IteratorRefSpec$GT$13spec_try_fold17hc39231cff6619c1dE', symObjAddr: 0x8EC, symBinAddr: 0x751C, symSize: 0x3C }
  - { offset: 0x2F4FC, size: 0x8, addend: 0x0, symName: '__ZN83_$LT$$RF$mut$u20$I$u20$as$u20$core..iter..traits..exact_size..ExactSizeIterator$GT$3len17h2c3827e0ef3a47cbE', symObjAddr: 0x928, symBinAddr: 0x7558, symSize: 0x28 }
  - { offset: 0x2F531, size: 0x8, addend: 0x0, symName: '__ZN83_$LT$$RF$mut$u20$I$u20$as$u20$core..iter..traits..exact_size..ExactSizeIterator$GT$3len17h5671175567924b7dE', symObjAddr: 0x950, symBinAddr: 0x7580, symSize: 0x28 }
  - { offset: 0x2F566, size: 0x8, addend: 0x0, symName: '__ZN83_$LT$$RF$mut$u20$I$u20$as$u20$core..iter..traits..exact_size..ExactSizeIterator$GT$3len17hcb3f055b3391b57bE', symObjAddr: 0x978, symBinAddr: 0x75A8, symSize: 0x28 }
  - { offset: 0x30367, size: 0x8, addend: 0x0, symName: '__ZN101_$LT$core..slice..iter..ChunksExactMut$LT$T$GT$$u20$as$u20$core..iter..traits..iterator..Iterator$GT$24__iterator_get_unchecked17hd85b2817c43defd5E', symObjAddr: 0x0, symBinAddr: 0x75D0, symSize: 0xA0 }
  - { offset: 0x31320, size: 0x8, addend: 0x0, symName: '__ZN101_$LT$core..slice..iter..ChunksExactMut$LT$T$GT$$u20$as$u20$core..iter..traits..iterator..Iterator$GT$24__iterator_get_unchecked17hd85b2817c43defd5E', symObjAddr: 0x0, symBinAddr: 0x75D0, symSize: 0xA0 }
  - { offset: 0x313DE, size: 0x8, addend: 0x0, symName: '__ZN101_$LT$core..slice..iter..ChunksExactMut$LT$T$GT$$u20$as$u20$core..iter..traits..iterator..Iterator$GT$9size_hint17ha911a62d8b35ee96E', symObjAddr: 0xA0, symBinAddr: 0x7670, symSize: 0x78 }
  - { offset: 0x315AD, size: 0x8, addend: 0x0, symName: '__ZN4core5slice4iter95_$LT$impl$u20$core..iter..traits..collect..IntoIterator$u20$for$u20$$RF$mut$u20$$u5b$T$u5d$$GT$9into_iter17h61dafd129c95e920E', symObjAddr: 0x2EC, symBinAddr: 0x78BC, symSize: 0x50 }
  - { offset: 0x316F0, size: 0x8, addend: 0x0, symName: '__ZN91_$LT$core..slice..iter..Iter$LT$T$GT$$u20$as$u20$core..iter..traits..iterator..Iterator$GT$4next17h4003056f59648d26E', symObjAddr: 0x358, symBinAddr: 0x7928, symSize: 0x84 }
  - { offset: 0x317A6, size: 0x8, addend: 0x0, symName: '__ZN91_$LT$core..slice..iter..Iter$LT$T$GT$$u20$as$u20$core..iter..traits..iterator..Iterator$GT$4next17h7f296254f083f0feE', symObjAddr: 0x3DC, symBinAddr: 0x79AC, symSize: 0x84 }
  - { offset: 0x3185C, size: 0x8, addend: 0x0, symName: '__ZN91_$LT$core..slice..iter..Iter$LT$T$GT$$u20$as$u20$core..iter..traits..iterator..Iterator$GT$4next17h9e69fabcbd6c3ee7E', symObjAddr: 0x460, symBinAddr: 0x7A30, symSize: 0x84 }
  - { offset: 0x31961, size: 0x8, addend: 0x0, symName: '__ZN91_$LT$core..slice..iter..Iter$LT$T$GT$$u20$as$u20$core..iter..traits..iterator..Iterator$GT$8position17h8725a5db2f7dd513E', symObjAddr: 0x4E4, symBinAddr: 0x7AB4, symSize: 0x1D0 }
  - { offset: 0x31BBE, size: 0x8, addend: 0x0, symName: '__ZN91_$LT$core..slice..iter..Iter$LT$T$GT$$u20$as$u20$core..iter..traits..iterator..Iterator$GT$8position17hd037a95b3a435872E', symObjAddr: 0x6B4, symBinAddr: 0x7C84, symSize: 0x1D0 }
  - { offset: 0x31E3E, size: 0x8, addend: 0x0, symName: '__ZN94_$LT$core..slice..iter..IterMut$LT$T$GT$$u20$as$u20$core..iter..traits..iterator..Iterator$GT$4fold17h5d8d8ab2c8efbb26E', symObjAddr: 0x884, symBinAddr: 0x7E54, symSize: 0x1AC }
  - { offset: 0x3203F, size: 0x8, addend: 0x0, symName: '__ZN94_$LT$core..slice..iter..IterMut$LT$T$GT$$u20$as$u20$core..iter..traits..iterator..Iterator$GT$4fold17hc5d20cce0c31526aE', symObjAddr: 0xA30, symBinAddr: 0x8000, symSize: 0x1AC }
  - { offset: 0x32240, size: 0x8, addend: 0x0, symName: '__ZN94_$LT$core..slice..iter..IterMut$LT$T$GT$$u20$as$u20$core..iter..traits..iterator..Iterator$GT$4next17hf92529f81eb21ec2E', symObjAddr: 0xBDC, symBinAddr: 0x81AC, symSize: 0x84 }
  - { offset: 0x3241D, size: 0x8, addend: 0x0, symName: __ZN4core4iter8adapters3zip27TrustedRandomAccessNoCoerce4size17h07a7f92b66e6d678E, symObjAddr: 0x218, symBinAddr: 0x77E8, symSize: 0x2C }
  - { offset: 0x32526, size: 0x8, addend: 0x0, symName: __ZN4core4iter6traits8iterator8Iterator3zip17he0097ce1d19a8a45E, symObjAddr: 0x118, symBinAddr: 0x76E8, symSize: 0xBC }
  - { offset: 0x3259C, size: 0x8, addend: 0x0, symName: __ZN4core4iter6traits8iterator8Iterator6copied17hb781931104dea50bE, symObjAddr: 0x1D4, symBinAddr: 0x77A4, symSize: 0x1C }
  - { offset: 0x325DC, size: 0x8, addend: 0x0, symName: __ZN4core4iter6traits8iterator8Iterator9enumerate17h09c484558e5f8143E, symObjAddr: 0x1F0, symBinAddr: 0x77C0, symSize: 0x28 }
  - { offset: 0x32666, size: 0x8, addend: 0x0, symName: '__ZN63_$LT$I$u20$as$u20$core..iter..traits..collect..IntoIterator$GT$9into_iter17h95237b83c6cb3375E', symObjAddr: 0x33C, symBinAddr: 0x790C, symSize: 0x1C }
  - { offset: 0x33CFD, size: 0x8, addend: 0x0, symName: '__ZN4core5slice4iter13Iter$LT$T$GT$3new17h7c90ba7e0a527185E', symObjAddr: 0x244, symBinAddr: 0x7814, symSize: 0x50 }
  - { offset: 0x33F83, size: 0x8, addend: 0x0, symName: '__ZN4core5slice4iter16IterMut$LT$T$GT$3new17hae7febc084415d45E', symObjAddr: 0x294, symBinAddr: 0x7864, symSize: 0x58 }
  - { offset: 0x345AD, size: 0x8, addend: 0x0, symName: '__ZN5alloc11collections9vec_deque17VecDeque$LT$T$GT$3new17h82bd5b693432b253E', symObjAddr: 0x0, symBinAddr: 0x8230, symSize: 0x1C }
  - { offset: 0x34FF8, size: 0x8, addend: 0x0, symName: '__ZN5alloc11collections9vec_deque17VecDeque$LT$T$GT$3new17h82bd5b693432b253E', symObjAddr: 0x0, symBinAddr: 0x8230, symSize: 0x1C }
  - { offset: 0x35148, size: 0x8, addend: 0x0, symName: '__ZN5alloc11collections9vec_deque21VecDeque$LT$T$C$A$GT$12slice_ranges17hd7ce636beff40568E', symObjAddr: 0x1C, symBinAddr: 0x824C, symSize: 0x1B0 }
  - { offset: 0x355DF, size: 0x8, addend: 0x0, symName: '__ZN5alloc11collections9vec_deque21VecDeque$LT$T$C$A$GT$13push_back_mut17h6fa3e162df3e5ff8E', symObjAddr: 0x1CC, symBinAddr: 0x83FC, symSize: 0x144 }
  - { offset: 0x35B6F, size: 0x8, addend: 0x0, symName: '__ZN5alloc11collections9vec_deque21VecDeque$LT$T$C$A$GT$24handle_capacity_increase17h93ca36e64c60df6aE', symObjAddr: 0x310, symBinAddr: 0x8540, symSize: 0x22C }
  - { offset: 0x3634C, size: 0x8, addend: 0x0, symName: '__ZN5alloc11collections9vec_deque21VecDeque$LT$T$C$A$GT$4grow17h04e1a7cef0f1139dE', symObjAddr: 0x53C, symBinAddr: 0x876C, symSize: 0x60 }
  - { offset: 0x3666F, size: 0x8, addend: 0x0, symName: '__ZN5alloc11collections9vec_deque21VecDeque$LT$T$C$A$GT$9pop_front17h6b66cc623a515b49E', symObjAddr: 0x59C, symBinAddr: 0x87CC, symSize: 0x16C }
  - { offset: 0x368F6, size: 0x8, addend: 0x0, symName: '__ZN5alloc11collections9vec_deque21VecDeque$LT$T$C$A$GT$9push_back17h8982b96a1b045dfdE', symObjAddr: 0x708, symBinAddr: 0x8938, symSize: 0x2C }
  - { offset: 0x36958, size: 0x8, addend: 0x0, symName: '__ZN4core5tuple64_$LT$impl$u20$core..cmp..PartialEq$u20$for$u20$$LP$U$C$T$RP$$GT$2eq17h563ec1a5b920002fE', symObjAddr: 0x0, symBinAddr: 0x8964, symSize: 0x60 }
  - { offset: 0x36974, size: 0x8, addend: 0x0, symName: '__ZN4core5tuple64_$LT$impl$u20$core..cmp..PartialEq$u20$for$u20$$LP$U$C$T$RP$$GT$2eq17h563ec1a5b920002fE', symObjAddr: 0x0, symBinAddr: 0x8964, symSize: 0x60 }
  - { offset: 0x36A1A, size: 0x8, addend: 0x0, symName: __ZN4pyo36marker6Python19assume_gil_acquired17h27a96eb75ece0e1fE, symObjAddr: 0x0, symBinAddr: 0x89C4, symSize: 0x4 }
  - { offset: 0x36B5C, size: 0x8, addend: 0x0, symName: __ZN4pyo36marker6Python19assume_gil_acquired17h27a96eb75ece0e1fE, symObjAddr: 0x0, symBinAddr: 0x89C4, symSize: 0x4 }
  - { offset: 0x36B8D, size: 0x8, addend: 0x0, symName: __ZN4core4iter6traits8iterator8Iterator3zip17h3fa4ec8a34fd3af4E, symObjAddr: 0x0, symBinAddr: 0x89C8, symSize: 0xB4 }
  - { offset: 0x37461, size: 0x8, addend: 0x0, symName: __ZN4core4iter6traits8iterator8Iterator3zip17h3fa4ec8a34fd3af4E, symObjAddr: 0x0, symBinAddr: 0x89C8, symSize: 0xB4 }
  - { offset: 0x38414, size: 0x8, addend: 0x0, symName: __ZN4pyo35types5tuple16array_into_tuple17hb5571d454b71bb6aE, symObjAddr: 0xB4, symBinAddr: 0x8A7C, symSize: 0x20C }
  - { offset: 0x384CD, size: 0x8, addend: 0x0, symName: '__ZN4pyo35types5tuple76_$LT$impl$u20$pyo3..conversion..IntoPyObject$u20$for$u20$$LP$T0$C$T1$RP$$GT$13into_pyobject17h0cb3a45204ed29b2E', symObjAddr: 0x2C0, symBinAddr: 0x8C88, symSize: 0x1F4 }
  - { offset: 0x38586, size: 0x8, addend: 0x0, symName: '__ZN4pyo35types5tuple86_$LT$impl$u20$pyo3..conversion..IntoPyObject$u20$for$u20$$LP$T0$C$T1$C$T2$C$T3$RP$$GT$13into_pyobject17h43720eec1a938d5aE', symObjAddr: 0x4B4, symBinAddr: 0x8E7C, symSize: 0x470 }
  - { offset: 0x3911C, size: 0x8, addend: 0x0, symName: __ZN3std5panic12catch_unwind17h452d1cface79a9dbE, symObjAddr: 0x0, symBinAddr: 0x92EC, symSize: 0xD4 }
  - { offset: 0x3AAC9, size: 0x8, addend: 0x0, symName: __ZN3std5panic12catch_unwind17h452d1cface79a9dbE, symObjAddr: 0x0, symBinAddr: 0x92EC, symSize: 0xD4 }
  - { offset: 0x3ABEE, size: 0x8, addend: 0x0, symName: __ZN3std5panic12catch_unwind17hdbb8a7cd93a13580E, symObjAddr: 0xD4, symBinAddr: 0x93C0, symSize: 0x10C }
  - { offset: 0x3B6CA, size: 0x8, addend: 0x0, symName: __ZN11cortex_rust10scale_grid17hddc75bc96faa1073E, symObjAddr: 0x0, symBinAddr: 0x9520, symSize: 0x3D4 }
  - { offset: 0x3D010, size: 0x8, addend: 0x0, symName: __ZN11cortex_rust10scale_grid17hddc75bc96faa1073E, symObjAddr: 0x0, symBinAddr: 0x9520, symSize: 0x3D4 }
  - { offset: 0x3D102, size: 0x8, addend: 0x0, symName: __ZN11cortex_rust11cortex_rust17hd5bbb195a80d4ac3E, symObjAddr: 0x3D4, symBinAddr: 0x98F4, symSize: 0x704 }
  - { offset: 0x3D2D3, size: 0x8, addend: 0x0, symName: __ZN11cortex_rust11get_objects17h643bf921bab63fa8E, symObjAddr: 0xAD8, symBinAddr: 0x9FF8, symSize: 0x160 }
  - { offset: 0x3D367, size: 0x8, addend: 0x0, symName: __ZN11cortex_rust11rotate_grid17ha2a6707a039d3732E, symObjAddr: 0xC38, symBinAddr: 0xA158, symSize: 0x7A0 }
  - { offset: 0x3D533, size: 0x8, addend: 0x0, symName: __ZN11cortex_rust12reflect_grid17h3c564002f84ade30E, symObjAddr: 0x13D8, symBinAddr: 0xA8F8, symSize: 0x21C }
  - { offset: 0x3D5C0, size: 0x8, addend: 0x0, symName: __ZN11cortex_rust20compute_tx_hash_fast17h84930157250853c4E, symObjAddr: 0x15F4, symBinAddr: 0xAB14, symSize: 0x194 }
  - { offset: 0x3D647, size: 0x8, addend: 0x0, symName: __ZN11cortex_rust22__pyfunction_move_grid17h18a3ecb89f4d2f08E, symObjAddr: 0x1788, symBinAddr: 0xACA8, symSize: 0x5AC }
  - { offset: 0x3D846, size: 0x8, addend: 0x0, symName: __ZN11cortex_rust22compute_fact_hash_fast17hbfdd647573d57dc6E, symObjAddr: 0x1D34, symBinAddr: 0xB254, symSize: 0xA8 }
  - { offset: 0x3D88F, size: 0x8, addend: 0x0, symName: __ZN11cortex_rust23__pyfunction_scale_grid17h473fb2b353378488E, symObjAddr: 0x1DDC, symBinAddr: 0xB2FC, symSize: 0x4A0 }
  - { offset: 0x3DA5A, size: 0x8, addend: 0x0, symName: __ZN11cortex_rust24__pyfunction_get_objects17ha8ce2ea8ed7f1005E, symObjAddr: 0x227C, symBinAddr: 0xB79C, symSize: 0x32C }
  - { offset: 0x3DBD3, size: 0x8, addend: 0x0, symName: __ZN11cortex_rust24__pyfunction_rotate_grid17h79318e92c52c3e82E, symObjAddr: 0x25A8, symBinAddr: 0xBAC8, symSize: 0x4A8 }
  - { offset: 0x3DD9E, size: 0x8, addend: 0x0, symName: __ZN11cortex_rust25__pyfunction_reflect_grid17h2e458e60b0049fd4E, symObjAddr: 0x2A50, symBinAddr: 0xBF70, symSize: 0x4C0 }
  - { offset: 0x3DF69, size: 0x8, addend: 0x0, symName: __ZN11cortex_rust33__pyfunction_compute_tx_hash_fast17h2b448d5c5bf8eb2aE, symObjAddr: 0x2F10, symBinAddr: 0xC430, symSize: 0x63C }
  - { offset: 0x3E1B2, size: 0x8, addend: 0x0, symName: __ZN11cortex_rust35__pyfunction_compute_fact_hash_fast17hd3b1a838bb2abc51E, symObjAddr: 0x354C, symBinAddr: 0xCA6C, symSize: 0x314 }
  - { offset: 0x3E335, size: 0x8, addend: 0x0, symName: '__ZN11cortex_rust49_$LT$impl$u20$cortex_rust..move_grid..MakeDef$GT$9_PYO3_DEF10trampoline17hb71d93299294d74bE', symObjAddr: 0x3860, symBinAddr: 0xCD80, symSize: 0x50 }
  - { offset: 0x3E397, size: 0x8, addend: 0x0, symName: '__ZN11cortex_rust50_$LT$impl$u20$cortex_rust..scale_grid..MakeDef$GT$9_PYO3_DEF10trampoline17h1f5e8617dc2bff10E', symObjAddr: 0x38B0, symBinAddr: 0xCDD0, symSize: 0x50 }
  - { offset: 0x3E3F9, size: 0x8, addend: 0x0, symName: '__ZN11cortex_rust51_$LT$impl$u20$cortex_rust..cortex_rust..MakeDef$GT$8make_def15__pyo3_pymodule17h02b128dbe3f757a6E', symObjAddr: 0x3900, symBinAddr: 0xCE20, symSize: 0x38 }
  - { offset: 0x3E431, size: 0x8, addend: 0x0, symName: '__ZN11cortex_rust51_$LT$impl$u20$cortex_rust..get_objects..MakeDef$GT$9_PYO3_DEF10trampoline17h92a7555bb9d33810E', symObjAddr: 0x3938, symBinAddr: 0xCE58, symSize: 0x50 }
  - { offset: 0x3E493, size: 0x8, addend: 0x0, symName: '__ZN11cortex_rust51_$LT$impl$u20$cortex_rust..rotate_grid..MakeDef$GT$9_PYO3_DEF10trampoline17h2d413e658b065818E', symObjAddr: 0x3988, symBinAddr: 0xCEA8, symSize: 0x50 }
  - { offset: 0x3E4F5, size: 0x8, addend: 0x0, symName: '__ZN11cortex_rust52_$LT$impl$u20$cortex_rust..reflect_grid..MakeDef$GT$9_PYO3_DEF10trampoline17he60a82a477093414E', symObjAddr: 0x39D8, symBinAddr: 0xCEF8, symSize: 0x50 }
  - { offset: 0x3E557, size: 0x8, addend: 0x0, symName: '__ZN11cortex_rust60_$LT$impl$u20$cortex_rust..compute_tx_hash_fast..MakeDef$GT$9_PYO3_DEF10trampoline17hefdc683797017c8bE', symObjAddr: 0x3A28, symBinAddr: 0xCF48, symSize: 0x50 }
  - { offset: 0x3E5B9, size: 0x8, addend: 0x0, symName: '__ZN11cortex_rust62_$LT$impl$u20$cortex_rust..compute_fact_hash_fast..MakeDef$GT$9_PYO3_DEF10trampoline17h140ffaae66d7ada4E', symObjAddr: 0x3A78, symBinAddr: 0xCF98, symSize: 0x50 }
  - { offset: 0x3E611, size: 0x8, addend: 0x0, symName: __ZN11cortex_rust9move_grid17h9d77ab2bb3375797E, symObjAddr: 0x3AC8, symBinAddr: 0xCFE8, symSize: 0x414 }
  - { offset: 0x3FA62, size: 0x8, addend: 0x0, symName: _PyInit_cortex_rust, symObjAddr: 0x0, symBinAddr: 0xD3FC, symSize: 0x34 }
  - { offset: 0x3FA86, size: 0x8, addend: 0x0, symName: __ZN11cortex_rust11cortex_rust9_PYO3_DEF17hf4ee7a7e4ef1f761E, symObjAddr: 0x58, symBinAddr: 0xA8378, symSize: 0x0 }
  - { offset: 0x3FA93, size: 0x8, addend: 0x0, symName: _PyInit_cortex_rust, symObjAddr: 0x0, symBinAddr: 0xD3FC, symSize: 0x34 }
  - { offset: 0x41A97, size: 0x8, addend: 0x0, symName: __ZN4core5slice3raw14from_raw_parts17h4d0063f8b62b880fE, symObjAddr: 0x0, symBinAddr: 0xD430, symSize: 0x5C }
  - { offset: 0x4228A, size: 0x8, addend: 0x0, symName: __ZN4core5slice3raw14from_raw_parts17h4d0063f8b62b880fE, symObjAddr: 0x0, symBinAddr: 0xD430, symSize: 0x5C }
  - { offset: 0x422CD, size: 0x8, addend: 0x0, symName: __ZN4core5slice3raw14from_raw_parts17h57f9c2000d4bf0eaE, symObjAddr: 0x5C, symBinAddr: 0xD48C, symSize: 0x58 }
  - { offset: 0x42310, size: 0x8, addend: 0x0, symName: __ZN4core5slice3raw14from_raw_parts17h99f008b1ac7f5232E, symObjAddr: 0xB4, symBinAddr: 0xD4E4, symSize: 0x58 }
  - { offset: 0x42353, size: 0x8, addend: 0x0, symName: __ZN4core5slice3raw8from_ref17haea7492bdc27d0fcE, symObjAddr: 0x10C, symBinAddr: 0xD53C, symSize: 0x1C }
  - { offset: 0x4376E, size: 0x8, addend: 0x0, symName: '__ZN71_$LT$std..hash..random..DefaultHasher$u20$as$u20$core..hash..Hasher$GT$6finish17h869e7f8c7699edb6E', symObjAddr: 0x0, symBinAddr: 0xD558, symSize: 0x20 }
  - { offset: 0x438EF, size: 0x8, addend: 0x0, symName: '__ZN71_$LT$std..hash..random..DefaultHasher$u20$as$u20$core..hash..Hasher$GT$6finish17h869e7f8c7699edb6E', symObjAddr: 0x0, symBinAddr: 0xD558, symSize: 0x20 }
  - { offset: 0x4393D, size: 0x8, addend: 0x0, symName: '__ZN74_$LT$std..hash..random..RandomState$u20$as$u20$core..hash..BuildHasher$GT$12build_hasher17haebe198c7005e742E', symObjAddr: 0x20, symBinAddr: 0xD578, symSize: 0xCC }
  - { offset: 0x43A91, size: 0x8, addend: 0x0, symName: '__ZN118_$LT$digest..core_api..ct_variable..CtVariableCoreWrapper$LT$T$C$OutSize$C$O$GT$$u20$as$u20$core..default..Default$GT$7default17hf15fb6f6210c7a0bE', symObjAddr: 0x0, symBinAddr: 0xD644, symSize: 0xAC }
  - { offset: 0x43AC8, size: 0x8, addend: 0x0, symName: '__ZN118_$LT$digest..core_api..ct_variable..CtVariableCoreWrapper$LT$T$C$OutSize$C$O$GT$$u20$as$u20$core..default..Default$GT$7default17hf15fb6f6210c7a0bE', symObjAddr: 0x0, symBinAddr: 0xD644, symSize: 0xAC }
  - { offset: 0x43B3F, size: 0x8, addend: 0x0, symName: '__ZN124_$LT$digest..core_api..ct_variable..CtVariableCoreWrapper$LT$T$C$OutSize$C$O$GT$$u20$as$u20$digest..core_api..UpdateCore$GT$13update_blocks17hbb7f802266e742dcE', symObjAddr: 0xAC, symBinAddr: 0xD6F0, symSize: 0x30 }
  - { offset: 0x43B96, size: 0x8, addend: 0x0, symName: '__ZN129_$LT$digest..core_api..ct_variable..CtVariableCoreWrapper$LT$T$C$OutSize$C$O$GT$$u20$as$u20$digest..core_api..FixedOutputCore$GT$19finalize_fixed_core17hf20c1f01bafee88dE', symObjAddr: 0xDC, symBinAddr: 0xD720, symSize: 0x21C }
  - { offset: 0x44736, size: 0x8, addend: 0x0, symName: __ZN4core9core_arch7aarch644neon9generated7vld1_u817h0bacdae750aff7bfE, symObjAddr: 0x0, symBinAddr: 0xD93C, symSize: 0x34 }
  - { offset: 0x4475C, size: 0x8, addend: 0x0, symName: __ZN4core9core_arch7aarch644neon9generated7vld1_u817h0bacdae750aff7bfE, symObjAddr: 0x0, symBinAddr: 0xD93C, symSize: 0x34 }
  - { offset: 0x4478A, size: 0x8, addend: 0x0, symName: __ZN4core9core_arch7aarch644neon9generated7vst1_u817h7d7593f96562ae4cE, symObjAddr: 0x34, symBinAddr: 0xD970, symSize: 0x40 }
  - { offset: 0x447C4, size: 0x8, addend: 0x0, symName: __ZN4core9core_arch7aarch644neon9generated8vcgez_s817hd45878cc17487b52E, symObjAddr: 0x74, symBinAddr: 0xD9B0, symSize: 0x68 }
  - { offset: 0x44866, size: 0x8, addend: 0x0, symName: __ZN4core9core_arch7aarch644neon9generated8vcltz_s817ha39f77c2ed7ad9b0E, symObjAddr: 0xDC, symBinAddr: 0xDA18, symSize: 0x68 }
  - { offset: 0x44A5C, size: 0x8, addend: 0x0, symName: '__ZN4core3ptr7mut_ptr31_$LT$impl$u20$$BP$mut$u20$T$GT$6offset18precondition_check17h4094992802bcd667E', symObjAddr: 0x0, symBinAddr: 0xDA80, symSize: 0xC4 }
  - { offset: 0x44B12, size: 0x8, addend: 0x0, symName: '__ZN4core3ptr7mut_ptr31_$LT$impl$u20$$BP$mut$u20$T$GT$6offset18precondition_check17h4094992802bcd667E', symObjAddr: 0x0, symBinAddr: 0xDA80, symSize: 0xC4 }
  - { offset: 0x44F05, size: 0x8, addend: 0x0, symName: '__ZN103_$LT$pyo3..instance..Bound$LT$pyo3..types..any..PyAny$GT$$u20$as$u20$pyo3..types..any..PyAnyMethods$GT$14is_instance_of17h2c422c931c72a456E', symObjAddr: 0x0, symBinAddr: 0xDB44, symSize: 0x24 }
  - { offset: 0x45757, size: 0x8, addend: 0x0, symName: '__ZN4core5array4iter94_$LT$impl$u20$core..iter..traits..collect..IntoIterator$u20$for$u20$$u5b$T$u3b$$u20$N$u5d$$GT$9into_iter17h4e9fc0d0bc0bb49fE', symObjAddr: 0x8CC, symBinAddr: 0xE410, symSize: 0x88 }
  - { offset: 0x466AF, size: 0x8, addend: 0x0, symName: '__ZN4core5slice29_$LT$impl$u20$$u5b$T$u5d$$GT$4iter17h855fd8accf019c7eE', symObjAddr: 0x954, symBinAddr: 0xE498, symSize: 0x28 }
  - { offset: 0x46738, size: 0x8, addend: 0x0, symName: '__ZN63_$LT$I$u20$as$u20$core..iter..traits..collect..IntoIterator$GT$9into_iter17h8ce5a4f774af0803E', symObjAddr: 0xB20, symBinAddr: 0xE664, symSize: 0x14 }
  - { offset: 0x46C8E, size: 0x8, addend: 0x0, symName: '__ZN103_$LT$pyo3..instance..Bound$LT$pyo3..types..any..PyAny$GT$$u20$as$u20$pyo3..types..any..PyAnyMethods$GT$14is_instance_of17h2c422c931c72a456E', symObjAddr: 0x0, symBinAddr: 0xDB44, symSize: 0x24 }
  - { offset: 0x46CC5, size: 0x8, addend: 0x0, symName: '__ZN103_$LT$pyo3..instance..Bound$LT$pyo3..types..any..PyAny$GT$$u20$as$u20$pyo3..types..any..PyAnyMethods$GT$7extract17h23394546bf23607bE', symObjAddr: 0x24, symBinAddr: 0xDB68, symSize: 0x30 }
  - { offset: 0x46CFC, size: 0x8, addend: 0x0, symName: '__ZN103_$LT$pyo3..instance..Bound$LT$pyo3..types..any..PyAny$GT$$u20$as$u20$pyo3..types..any..PyAnyMethods$GT$7extract17h351a90a2662f616fE', symObjAddr: 0x54, symBinAddr: 0xDB98, symSize: 0x30 }
  - { offset: 0x46D33, size: 0x8, addend: 0x0, symName: '__ZN103_$LT$pyo3..instance..Bound$LT$pyo3..types..any..PyAny$GT$$u20$as$u20$pyo3..types..any..PyAnyMethods$GT$7extract17h371e290b2c74149eE', symObjAddr: 0x84, symBinAddr: 0xDBC8, symSize: 0x30 }
  - { offset: 0x46D6A, size: 0x8, addend: 0x0, symName: '__ZN103_$LT$pyo3..instance..Bound$LT$pyo3..types..any..PyAny$GT$$u20$as$u20$pyo3..types..any..PyAnyMethods$GT$7extract17he1511acdba2f8af4E', symObjAddr: 0xB4, symBinAddr: 0xDBF8, symSize: 0x30 }
  - { offset: 0x46DC2, size: 0x8, addend: 0x0, symName: '__ZN107_$LT$pyo3..instance..Bound$LT$pyo3..types..dict..PyDict$GT$$u20$as$u20$pyo3..types..dict..PyDictMethods$GT$8set_item17h15b2f8487bc476b3E', symObjAddr: 0xE4, symBinAddr: 0xDC28, symSize: 0x2AC }
  - { offset: 0x46E70, size: 0x8, addend: 0x0, symName: '__ZN107_$LT$pyo3..instance..Bound$LT$pyo3..types..dict..PyDict$GT$$u20$as$u20$pyo3..types..dict..PyDictMethods$GT$8set_item17h5e9cdeecd333c253E', symObjAddr: 0x390, symBinAddr: 0xDED4, symSize: 0x27C }
  - { offset: 0x46F1E, size: 0x8, addend: 0x0, symName: '__ZN107_$LT$pyo3..instance..Bound$LT$pyo3..types..dict..PyDict$GT$$u20$as$u20$pyo3..types..dict..PyDictMethods$GT$8set_item17h7f326328b453b29dE', symObjAddr: 0x60C, symBinAddr: 0xE150, symSize: 0x298 }
  - { offset: 0x47075, size: 0x8, addend: 0x0, symName: '__ZN132_$LT$pyo3..instance..Bound$LT$T$GT$$u20$as$u20$pyo3..conversion..IntoPy$LT$pyo3..instance..Py$LT$pyo3..types..any..PyAny$GT$$GT$$GT$7into_py17hf03c9df1200f69caE', symObjAddr: 0x8A4, symBinAddr: 0xE3E8, symSize: 0x28 }
  - { offset: 0x4716F, size: 0x8, addend: 0x0, symName: '__ZN4pyo38instance39Borrowed$LT$pyo3..types..any..PyAny$GT$15from_ptr_or_opt28_$u7b$$u7b$closure$u7d$$u7d$17he32bdd3bbca4e99eE', symObjAddr: 0xAEC, symBinAddr: 0xE630, symSize: 0x20 }
  - { offset: 0x47287, size: 0x8, addend: 0x0, symName: '__ZN79_$LT$pyo3..instance..Bound$LT$T$GT$$u20$as$u20$pyo3..conversion..ToPyObject$GT$9to_object17hb919e98f54a10ef6E', symObjAddr: 0xB34, symBinAddr: 0xE678, symSize: 0x28 }
  - { offset: 0x474C4, size: 0x8, addend: 0x0, symName: '__ZN4pyo35impl_9pymethods133_$LT$impl$u20$core..convert..From$LT$pyo3..impl_..pymethods..BoundRef$LT$T$GT$$GT$$u20$for$u20$$RF$pyo3..instance..Bound$LT$T$GT$$GT$4from17hef5727ffcf9d2d7fE', symObjAddr: 0xAA8, symBinAddr: 0xE5EC, symSize: 0x14 }
  - { offset: 0x47526, size: 0x8, addend: 0x0, symName: __ZN4pyo310conversion12IntoPyObject28owned_sequence_into_pyobject17h51a17239d7842a8dE, symObjAddr: 0x97C, symBinAddr: 0xE4C0, symSize: 0xDC }
  - { offset: 0x475DC, size: 0x8, addend: 0x0, symName: __ZN4pyo310conversion15IntoPyObjectExt17into_bound_py_any17h61d2e896fb13a0fdE, symObjAddr: 0xA58, symBinAddr: 0xE59C, symSize: 0x50 }
  - { offset: 0x47C10, size: 0x8, addend: 0x0, symName: '__ZN4pyo38instance11Py$LT$T$GT$8into_ptr17h9af42651d0b0bbf8E', symObjAddr: 0xABC, symBinAddr: 0xE600, symSize: 0x30 }
  - { offset: 0x47C56, size: 0x8, addend: 0x0, symName: '__ZN4pyo38instance39Borrowed$LT$pyo3..types..any..PyAny$GT$18downcast_unchecked17h9768d7915bb39f8fE', symObjAddr: 0xB0C, symBinAddr: 0xE650, symSize: 0x14 }
  - { offset: 0x4822D, size: 0x8, addend: 0x0, symName: '__ZN5alloc7raw_vec19RawVec$LT$T$C$A$GT$8grow_one17h6690947d14f909c6E', symObjAddr: 0x0, symBinAddr: 0xE6A0, symSize: 0x88 }
  - { offset: 0x499E2, size: 0x8, addend: 0x0, symName: '__ZN5alloc7raw_vec19RawVec$LT$T$C$A$GT$8grow_one17h6690947d14f909c6E', symObjAddr: 0x0, symBinAddr: 0xE6A0, symSize: 0x88 }
  - { offset: 0x49AB0, size: 0x8, addend: 0x0, symName: '__ZN5alloc7raw_vec19RawVec$LT$T$C$A$GT$8grow_one17h697870dd72d8c11aE', symObjAddr: 0x88, symBinAddr: 0xE728, symSize: 0x88 }
  - { offset: 0x49B87, size: 0x8, addend: 0x0, symName: '__ZN5alloc7raw_vec19RawVec$LT$T$C$A$GT$8grow_one17had21a7320a863cf0E', symObjAddr: 0x110, symBinAddr: 0xE7B0, symSize: 0x88 }
  - { offset: 0x4A0E5, size: 0x8, addend: 0x0, symName: '__ZN5alloc7raw_vec19RawVec$LT$T$C$A$GT$8grow_one17hef91c116cc83ccdcE', symObjAddr: 0x198, symBinAddr: 0xE838, symSize: 0x84 }
  - { offset: 0x4A16E, size: 0x8, addend: 0x0, symName: __ZN8pyo3_ffi7cpython11tupleobject16PyTuple_SET_ITEM17h4f72b9d71a53af07E, symObjAddr: 0x0, symBinAddr: 0xE8BC, symSize: 0x118 }
  - { offset: 0x4A750, size: 0x8, addend: 0x0, symName: __ZN8pyo3_ffi7cpython11tupleobject16PyTuple_SET_ITEM17h4f72b9d71a53af07E, symObjAddr: 0x0, symBinAddr: 0xE8BC, symSize: 0x118 }
  - { offset: 0x4B728, size: 0x8, addend: 0x0, symName: __ZN4core9ub_checks23maybe_is_nonoverlapping7runtime17h3f5f5b834d5178cbE, symObjAddr: 0x0, symBinAddr: 0xE9D4, symSize: 0xD8 }
  - { offset: 0x4B8AD, size: 0x8, addend: 0x0, symName: __ZN4core9ub_checks23maybe_is_nonoverlapping7runtime17h3f5f5b834d5178cbE, symObjAddr: 0x0, symBinAddr: 0xE9D4, symSize: 0xD8 }
  - { offset: 0x4BAC0, size: 0x8, addend: 0x0, symName: __ZN4pyo310conversion12IntoPyObject28owned_sequence_into_pyobject17hac9d62ceb09840a1E, symObjAddr: 0x0, symBinAddr: 0xEAAC, symSize: 0xDC }
  - { offset: 0x4D2C1, size: 0x8, addend: 0x0, symName: __ZN4pyo310conversion12IntoPyObject28owned_sequence_into_pyobject17hac9d62ceb09840a1E, symObjAddr: 0x0, symBinAddr: 0xEAAC, symSize: 0xDC }
  - { offset: 0x4D35D, size: 0x8, addend: 0x0, symName: '__ZN4pyo310conversion12IntoPyObject28owned_sequence_into_pyobject28_$u7b$$u7b$closure$u7d$$u7d$17h75a1563a6f464ac2E', symObjAddr: 0xDC, symBinAddr: 0xEB88, symSize: 0x34 }
  - { offset: 0x4D3B5, size: 0x8, addend: 0x0, symName: '__ZN4pyo310conversion12IntoPyObject28owned_sequence_into_pyobject28_$u7b$$u7b$closure$u7d$$u7d$17h9cdb7e7d2805ccd5E', symObjAddr: 0x110, symBinAddr: 0xEBBC, symSize: 0x34 }
  - { offset: 0x4D40C, size: 0x8, addend: 0x0, symName: '__ZN4pyo310conversion12IntoPyObject28owned_sequence_into_pyobject28_$u7b$$u7b$closure$u7d$$u7d$17hd20c89668613f6bfE', symObjAddr: 0x144, symBinAddr: 0xEBF0, symSize: 0x30 }
  - { offset: 0x4D4A3, size: 0x8, addend: 0x0, symName: __ZN4pyo310conversion15IntoPyObjectExt17into_bound_py_any17h12117ec64ebc485dE, symObjAddr: 0x174, symBinAddr: 0xEC20, symSize: 0xD0 }
  - { offset: 0x4D536, size: 0x8, addend: 0x0, symName: __ZN4pyo310conversion15IntoPyObjectExt17into_bound_py_any17h435755d1b0f2bbdbE, symObjAddr: 0x244, symBinAddr: 0xECF0, symSize: 0x4C }
  - { offset: 0x4D5A6, size: 0x8, addend: 0x0, symName: __ZN4pyo310conversion15IntoPyObjectExt22into_pyobject_or_pyerr17h6cd1c2bba751f192E, symObjAddr: 0x290, symBinAddr: 0xED3C, symSize: 0x44 }
  - { offset: 0x4D616, size: 0x8, addend: 0x0, symName: __ZN4pyo310conversion15IntoPyObjectExt22into_pyobject_or_pyerr17hcd0cb929a661855cE, symObjAddr: 0x2D4, symBinAddr: 0xED80, symSize: 0xE8 }
  - { offset: 0x4E3C6, size: 0x8, addend: 0x0, symName: __ZN4pyo35impl_10trampoline10trampoline17h4fd72c993232c02eE, symObjAddr: 0x0, symBinAddr: 0xEE68, symSize: 0x14C }
  - { offset: 0x4F845, size: 0x8, addend: 0x0, symName: __ZN4pyo35impl_10trampoline10trampoline17h4fd72c993232c02eE, symObjAddr: 0x0, symBinAddr: 0xEE68, symSize: 0x14C }
  - { offset: 0x4F8E7, size: 0x8, addend: 0x0, symName: __ZN4pyo35impl_10trampoline10trampoline17hc1c54d573501165eE, symObjAddr: 0x14C, symBinAddr: 0xEFB4, symSize: 0x160 }
  - { offset: 0x4F990, size: 0x8, addend: 0x0, symName: '__ZN4pyo35impl_10trampoline10trampoline28_$u7b$$u7b$closure$u7d$$u7d$17h5b7bd07e641b51e9E', symObjAddr: 0x2AC, symBinAddr: 0xF114, symSize: 0x24 }
  - { offset: 0x4F9DE, size: 0x8, addend: 0x0, symName: '__ZN4pyo35impl_10trampoline10trampoline28_$u7b$$u7b$closure$u7d$$u7d$17hff8797919ab0c618E', symObjAddr: 0x2D0, symBinAddr: 0xF138, symSize: 0x40 }
  - { offset: 0x4FA33, size: 0x8, addend: 0x0, symName: '__ZN4pyo35impl_10trampoline11module_init28_$u7b$$u7b$closure$u7d$$u7d$17h5fc460e57f54ee78E', symObjAddr: 0x310, symBinAddr: 0xF178, symSize: 0x40 }
  - { offset: 0x4FA7F, size: 0x8, addend: 0x0, symName: '__ZN4pyo35impl_10trampoline11module_init28_$u7b$$u7b$closure$u7d$$u7d$28_$u7b$$u7b$closure$u7d$$u7d$17hdee50eae5d04af55E', symObjAddr: 0x350, symBinAddr: 0xF1B8, symSize: 0x24 }
  - { offset: 0x4FAD6, size: 0x8, addend: 0x0, symName: '__ZN4pyo35impl_10trampoline22fastcall_with_keywords28_$u7b$$u7b$closure$u7d$$u7d$17hdba234d29b8d7144E', symObjAddr: 0x374, symBinAddr: 0xF1DC, symSize: 0x48 }
  - { offset: 0x50531, size: 0x8, addend: 0x0, symName: __ZN4core3ptr4read17h1fee07cae623a40cE, symObjAddr: 0x180, symBinAddr: 0xF224, symSize: 0x24 }
  - { offset: 0x50568, size: 0x8, addend: 0x0, symName: __ZN4core3ptr4read17h638d95625b89801bE, symObjAddr: 0x1A4, symBinAddr: 0xF248, symSize: 0x38 }
  - { offset: 0x50A9B, size: 0x8, addend: 0x0, symName: '__ZN4core5slice29_$LT$impl$u20$$u5b$T$u5d$$GT$18split_at_unchecked18precondition_check17h3cecd76b4b2a4737E', symObjAddr: 0x0, symBinAddr: 0xF280, symSize: 0x60 }
  - { offset: 0x50ABC, size: 0x8, addend: 0x0, symName: '__ZN4core5slice29_$LT$impl$u20$$u5b$T$u5d$$GT$18split_at_unchecked18precondition_check17h3cecd76b4b2a4737E', symObjAddr: 0x0, symBinAddr: 0xF280, symSize: 0x60 }
  - { offset: 0x50B15, size: 0x8, addend: 0x0, symName: '__ZN4core5slice29_$LT$impl$u20$$u5b$T$u5d$$GT$22split_at_mut_unchecked18precondition_check17h6788c219ba69d849E', symObjAddr: 0x60, symBinAddr: 0xF2E0, symSize: 0x60 }
  - { offset: 0x50BBF, size: 0x8, addend: 0x0, symName: '__ZN129_$LT$$u5b$core..mem..maybe_uninit..MaybeUninit$LT$T$GT$$u3b$$u20$N$u5d$$u20$as$u20$core..array..iter..iter_inner..PartialDrop$GT$12partial_drop17hc9cf68446f58ddfcE', symObjAddr: 0x0, symBinAddr: 0xF340, symSize: 0x4C }
  - { offset: 0x513C3, size: 0x8, addend: 0x0, symName: '__ZN129_$LT$$u5b$core..mem..maybe_uninit..MaybeUninit$LT$T$GT$$u3b$$u20$N$u5d$$u20$as$u20$core..array..iter..iter_inner..PartialDrop$GT$12partial_drop17hc9cf68446f58ddfcE', symObjAddr: 0x0, symBinAddr: 0xF340, symSize: 0x4C }
  - { offset: 0x52463, size: 0x8, addend: 0x0, symName: '__ZN4pyo35impl_4wrap62IntoPyObjectConverter$LT$core..result..Result$LT$T$C$E$GT$$GT$12map_into_ptr17h224025e1149e5488E', symObjAddr: 0x0, symBinAddr: 0xF38C, symSize: 0x54 }
  - { offset: 0x53E08, size: 0x8, addend: 0x0, symName: '__ZN4pyo35impl_4wrap62IntoPyObjectConverter$LT$core..result..Result$LT$T$C$E$GT$$GT$12map_into_ptr28_$u7b$$u7b$closure$u7d$$u7d$17h03e673c59ca7350aE', symObjAddr: 0xFC, symBinAddr: 0xF488, symSize: 0x34 }
  - { offset: 0x53E60, size: 0x8, addend: 0x0, symName: '__ZN4pyo35impl_4wrap62IntoPyObjectConverter$LT$core..result..Result$LT$T$C$E$GT$$GT$12map_into_ptr28_$u7b$$u7b$closure$u7d$$u7d$17h2f81f6d9e5cfa296E', symObjAddr: 0x130, symBinAddr: 0xF4BC, symSize: 0x34 }
  - { offset: 0x53EB8, size: 0x8, addend: 0x0, symName: '__ZN4pyo35impl_4wrap62IntoPyObjectConverter$LT$core..result..Result$LT$T$C$E$GT$$GT$12map_into_ptr28_$u7b$$u7b$closure$u7d$$u7d$17h73d32d6817b9a39dE', symObjAddr: 0x164, symBinAddr: 0xF4F0, symSize: 0x34 }
  - { offset: 0x53F4B, size: 0x8, addend: 0x0, symName: __ZN4pyo35impl_4wrap9converter17h631b039f7d49df0fE, symObjAddr: 0x234, symBinAddr: 0xF5C0, symSize: 0x10 }
  - { offset: 0x53F78, size: 0x8, addend: 0x0, symName: __ZN4pyo35impl_4wrap9converter17h983aab054c05c410E, symObjAddr: 0x244, symBinAddr: 0xF5D0, symSize: 0x10 }
  - { offset: 0x53FA5, size: 0x8, addend: 0x0, symName: __ZN4pyo35impl_4wrap9converter17he282e70089a54757E, symObjAddr: 0x254, symBinAddr: 0xF5E0, symSize: 0x10 }
  - { offset: 0x53FD7, size: 0x8, addend: 0x0, symName: '__ZN81_$LT$pyo3..impl_..wrap..Converter$LT$T$GT$$u20$as$u20$core..ops..deref..Deref$GT$5deref17h402e1dac5ea4941eE', symObjAddr: 0x264, symBinAddr: 0xF5F0, symSize: 0x14 }
  - { offset: 0x5400C, size: 0x8, addend: 0x0, symName: '__ZN81_$LT$pyo3..impl_..wrap..Converter$LT$T$GT$$u20$as$u20$core..ops..deref..Deref$GT$5deref17hc7586bbbe47418dfE', symObjAddr: 0x278, symBinAddr: 0xF604, symSize: 0x14 }
  - { offset: 0x54041, size: 0x8, addend: 0x0, symName: '__ZN81_$LT$pyo3..impl_..wrap..Converter$LT$T$GT$$u20$as$u20$core..ops..deref..Deref$GT$5deref17hff97097a474e9764E', symObjAddr: 0x28C, symBinAddr: 0xF618, symSize: 0x14 }
  - { offset: 0x5407C, size: 0x8, addend: 0x0, symName: '__ZN91_$LT$pyo3..impl_..wrap..EmptyTupleConverter$LT$T$GT$$u20$as$u20$core..ops..deref..Deref$GT$5deref17h45b22ee01357eb34E', symObjAddr: 0x2A0, symBinAddr: 0xF62C, symSize: 0x14 }
  - { offset: 0x540B1, size: 0x8, addend: 0x0, symName: '__ZN91_$LT$pyo3..impl_..wrap..EmptyTupleConverter$LT$T$GT$$u20$as$u20$core..ops..deref..Deref$GT$5deref17h894fcb3f6cee991eE', symObjAddr: 0x2B4, symBinAddr: 0xF640, symSize: 0x14 }
  - { offset: 0x540E6, size: 0x8, addend: 0x0, symName: '__ZN91_$LT$pyo3..impl_..wrap..EmptyTupleConverter$LT$T$GT$$u20$as$u20$core..ops..deref..Deref$GT$5deref17hcd4266ffe1a85ac2E', symObjAddr: 0x2C8, symBinAddr: 0xF654, symSize: 0x14 }
  - { offset: 0x54C34, size: 0x8, addend: 0x0, symName: '__ZN4pyo35impl_4wrap62IntoPyObjectConverter$LT$core..result..Result$LT$T$C$E$GT$$GT$12map_into_ptr17h224025e1149e5488E', symObjAddr: 0x0, symBinAddr: 0xF38C, symSize: 0x54 }
  - { offset: 0x54C9F, size: 0x8, addend: 0x0, symName: '__ZN4pyo35impl_4wrap62IntoPyObjectConverter$LT$core..result..Result$LT$T$C$E$GT$$GT$12map_into_ptr17h87c229e7a18a46e2E', symObjAddr: 0x54, symBinAddr: 0xF3E0, symSize: 0x54 }
  - { offset: 0x54D0A, size: 0x8, addend: 0x0, symName: '__ZN4pyo35impl_4wrap62IntoPyObjectConverter$LT$core..result..Result$LT$T$C$E$GT$$GT$12map_into_ptr17hf88e64aeffbee808E', symObjAddr: 0xA8, symBinAddr: 0xF434, symSize: 0x54 }
  - { offset: 0x54D68, size: 0x8, addend: 0x0, symName: '__ZN4pyo35impl_4wrap62IntoPyObjectConverter$LT$core..result..Result$LT$T$C$E$GT$$GT$4wrap17h3f5d7f7d8ac3e338E', symObjAddr: 0x198, symBinAddr: 0xF524, symSize: 0x34 }
  - { offset: 0x54DAB, size: 0x8, addend: 0x0, symName: '__ZN4pyo35impl_4wrap62IntoPyObjectConverter$LT$core..result..Result$LT$T$C$E$GT$$GT$4wrap17hb2bf70cda1735c4cE', symObjAddr: 0x1CC, symBinAddr: 0xF558, symSize: 0x34 }
  - { offset: 0x54DEE, size: 0x8, addend: 0x0, symName: '__ZN4pyo35impl_4wrap62IntoPyObjectConverter$LT$core..result..Result$LT$T$C$E$GT$$GT$4wrap17hf6c178be84bf30edE', symObjAddr: 0x200, symBinAddr: 0xF58C, symSize: 0x34 }
  - { offset: 0x54ED1, size: 0x8, addend: 0x0, symName: __ZN4core3ptr11write_bytes18precondition_check17h1fbf37ed24bcf1d5E, symObjAddr: 0x0, symBinAddr: 0xF668, symSize: 0x9C }
  - { offset: 0x550BF, size: 0x8, addend: 0x0, symName: __ZN4core3ptr11write_bytes18precondition_check17h1fbf37ed24bcf1d5E, symObjAddr: 0x0, symBinAddr: 0xF668, symSize: 0x9C }
  - { offset: 0x55197, size: 0x8, addend: 0x0, symName: __ZN4core3ptr19copy_nonoverlapping18precondition_check17h468af1569364bc54E, symObjAddr: 0x9C, symBinAddr: 0xF704, symSize: 0x168 }
  - { offset: 0x553BE, size: 0x8, addend: 0x0, symName: __ZN4core3ptr25swap_nonoverlapping_bytes17hccf9bd69bdaa5860E, symObjAddr: 0x370, symBinAddr: 0xF86C, symSize: 0xD8 }
  - { offset: 0x55567, size: 0x8, addend: 0x0, symName: __ZN4core3ptr25swap_nonoverlapping_bytes25swap_nonoverlapping_short17h99bd5be3b0a5a2caE, symObjAddr: 0x448, symBinAddr: 0xF944, symSize: 0x11C }
  - { offset: 0x556F9, size: 0x8, addend: 0x0, symName: __ZN4core3ptr4copy18precondition_check17h626d6e63029f026cE, symObjAddr: 0x564, symBinAddr: 0xFA60, symSize: 0x130 }
  - { offset: 0x55A0F, size: 0x8, addend: 0x0, symName: __ZN4pyo33gil8GILGuard6python17he31d35e67be70e3bE, symObjAddr: 0x0, symBinAddr: 0xFB90, symSize: 0x20 }
  - { offset: 0x55ABF, size: 0x8, addend: 0x0, symName: __ZN4pyo33gil8GILGuard6python17he31d35e67be70e3bE, symObjAddr: 0x0, symBinAddr: 0xFB90, symSize: 0x20 }
  - { offset: 0x55AFF, size: 0x8, addend: 0x0, symName: __ZN3hex14encode_to_iter17h742bf978b35f7a35E, symObjAddr: 0x0, symBinAddr: 0xFBB0, symSize: 0x58 }
  - { offset: 0x55B11, size: 0x8, addend: 0x0, symName: __ZN3hex14encode_to_iter17h742bf978b35f7a35E, symObjAddr: 0x0, symBinAddr: 0xFBB0, symSize: 0x58 }
  - { offset: 0x55B54, size: 0x8, addend: 0x0, symName: __ZN3hex6encode17h85eb419f92e26d67E, symObjAddr: 0x58, symBinAddr: 0xFC08, symSize: 0x38 }
  - { offset: 0x55BD3, size: 0x8, addend: 0x0, symName: __ZN4core4iter6traits8iterator8Iterator4fold17hb741906018392275E, symObjAddr: 0x90, symBinAddr: 0xFC40, symSize: 0xAC }
  - { offset: 0x55C63, size: 0x8, addend: 0x0, symName: __ZN4core4iter6traits8iterator8Iterator7collect17h126ddddfac946ee7E, symObjAddr: 0x13C, symBinAddr: 0xFCEC, symSize: 0x14 }
  - { offset: 0x55CA4, size: 0x8, addend: 0x0, symName: __ZN4core4iter6traits8iterator8Iterator8for_each17h6cb97c6bdcc89e68E, symObjAddr: 0x150, symBinAddr: 0xFD00, symSize: 0x24 }
  - { offset: 0x55D1B, size: 0x8, addend: 0x0, symName: '__ZN63_$LT$I$u20$as$u20$core..iter..traits..collect..IntoIterator$GT$9into_iter17h78d98d278c5d70d1E', symObjAddr: 0x174, symBinAddr: 0xFD24, symSize: 0x14 }
  - { offset: 0x5635E, size: 0x8, addend: 0x0, symName: '__ZN4core3ptr9const_ptr33_$LT$impl$u20$$BP$const$u20$T$GT$7is_null17h697848f498e6c11dE', symObjAddr: 0x0, symBinAddr: 0xFD38, symSize: 0x18 }
  - { offset: 0x56B6D, size: 0x8, addend: 0x0, symName: '__ZN4core3ptr9const_ptr33_$LT$impl$u20$$BP$const$u20$T$GT$7is_null17h697848f498e6c11dE', symObjAddr: 0x0, symBinAddr: 0xFD38, symSize: 0x18 }
  - { offset: 0x56C1B, size: 0x8, addend: 0x0, symName: '__ZN4core5slice29_$LT$impl$u20$$u5b$T$u5d$$GT$15copy_from_slice17he8f6a5f3bd8b2d18E', symObjAddr: 0x18, symBinAddr: 0xFD50, symSize: 0x34 }
  - { offset: 0x56C84, size: 0x8, addend: 0x0, symName: '__ZN4core5slice29_$LT$impl$u20$$u5b$T$u5d$$GT$18split_at_unchecked17h4976d571c2838b8cE', symObjAddr: 0x4C, symBinAddr: 0xFD84, symSize: 0xE8 }
  - { offset: 0x56DC9, size: 0x8, addend: 0x0, symName: '__ZN4core5slice29_$LT$impl$u20$$u5b$T$u5d$$GT$8split_at17h0296eb12cdc36d4aE', symObjAddr: 0x134, symBinAddr: 0xFE6C, symSize: 0xAC }
  - { offset: 0x582DD, size: 0x8, addend: 0x0, symName: '__ZN4core6option15Option$LT$T$GT$3map17h54fe63df9f59342bE', symObjAddr: 0x1E0, symBinAddr: 0xFF18, symSize: 0x50 }
  - { offset: 0x58355, size: 0x8, addend: 0x0, symName: '__ZN4core6option15Option$LT$T$GT$3map17hce6dd74d4017ac0dE', symObjAddr: 0x230, symBinAddr: 0xFF68, symSize: 0x5C }
  - { offset: 0x583CD, size: 0x8, addend: 0x0, symName: '__ZN4core6option15Option$LT$T$GT$7is_some17hea791da2ace71a1eE', symObjAddr: 0x28C, symBinAddr: 0xFFC4, symSize: 0x28 }
  - { offset: 0x58406, size: 0x8, addend: 0x0, symName: '__ZN4core6option15Option$LT$T$GT$7replace17h3ef0f9eb90518a1eE', symObjAddr: 0x2B4, symBinAddr: 0xFFEC, symSize: 0x28 }
  - { offset: 0x58519, size: 0x8, addend: 0x0, symName: '__ZN4core6option15Option$LT$T$GT$8as_deref17h514ec981177e9dd1E', symObjAddr: 0x2DC, symBinAddr: 0x10014, symSize: 0x6C }
  - { offset: 0x585FE, size: 0x8, addend: 0x0, symName: '__ZN100_$LT$core..array..iter..iter_inner..PolymorphicIter$LT$DATA$GT$$u20$as$u20$core..ops..drop..Drop$GT$4drop17hacd266cc6a19d986E', symObjAddr: 0x0, symBinAddr: 0x10080, symSize: 0x30 }
  - { offset: 0x58E46, size: 0x8, addend: 0x0, symName: '__ZN4core3ops8function6FnOnce40call_once$u7b$$u7b$vtable.shim$u7d$$u7d$17h31cd3a45194b7644E', symObjAddr: 0x204, symBinAddr: 0x10284, symSize: 0x38 }
  - { offset: 0x58E8A, size: 0x8, addend: 0x0, symName: '__ZN4core3ops8function6FnOnce40call_once$u7b$$u7b$vtable.shim$u7d$$u7d$17ha278b4a1711b90a4E', symObjAddr: 0x23C, symBinAddr: 0x102BC, symSize: 0x38 }
  - { offset: 0x58ECE, size: 0x8, addend: 0x0, symName: '__ZN4core3ops8function6FnOnce40call_once$u7b$$u7b$vtable.shim$u7d$$u7d$17hd55e587d60a0b20eE', symObjAddr: 0x274, symBinAddr: 0x102F4, symSize: 0x38 }
  - { offset: 0x58F12, size: 0x8, addend: 0x0, symName: __ZN4core3ops8function6FnOnce9call_once17h107fdd10c3039319E, symObjAddr: 0x2AC, symBinAddr: 0x1032C, symSize: 0x48 }
  - { offset: 0x58F56, size: 0x8, addend: 0x0, symName: __ZN4core3ops8function6FnOnce9call_once17h4fa1682c639ae73dE, symObjAddr: 0x2F4, symBinAddr: 0x10374, symSize: 0x4C }
  - { offset: 0x58F9A, size: 0x8, addend: 0x0, symName: __ZN4core3ops8function6FnOnce9call_once17h505fe3b9d3c8418dE, symObjAddr: 0x340, symBinAddr: 0x103C0, symSize: 0x3C }
  - { offset: 0x58FDE, size: 0x8, addend: 0x0, symName: __ZN4core3ops8function6FnOnce9call_once17h86b3cde289186895E, symObjAddr: 0x37C, symBinAddr: 0x103FC, symSize: 0x24 }
  - { offset: 0x59022, size: 0x8, addend: 0x0, symName: __ZN4core3ops8function6FnOnce9call_once17hc355a88b88fe9970E, symObjAddr: 0x3A0, symBinAddr: 0x10420, symSize: 0x5C }
  - { offset: 0x59066, size: 0x8, addend: 0x0, symName: __ZN4core3ops8function6FnOnce9call_once17hcb0a3f428497ad8aE, symObjAddr: 0x3FC, symBinAddr: 0x1047C, symSize: 0x58 }
  - { offset: 0x590AA, size: 0x8, addend: 0x0, symName: __ZN4core3ops8function6FnOnce9call_once17hcdcbf61c14ce50b9E, symObjAddr: 0x454, symBinAddr: 0x104D4, symSize: 0x58 }
  - { offset: 0x590EE, size: 0x8, addend: 0x0, symName: __ZN4core3ops8function6FnOnce9call_once17hf0fc0e7dd2c898feE, symObjAddr: 0x4AC, symBinAddr: 0x1052C, symSize: 0x24 }
  - { offset: 0x59197, size: 0x8, addend: 0x0, symName: '__ZN100_$LT$core..array..iter..iter_inner..PolymorphicIter$LT$DATA$GT$$u20$as$u20$core..ops..drop..Drop$GT$4drop17hacd266cc6a19d986E', symObjAddr: 0x0, symBinAddr: 0x10080, symSize: 0x30 }
  - { offset: 0x59215, size: 0x8, addend: 0x0, symName: '__ZN82_$LT$core..array..iter..IntoIter$LT$T$C$_$GT$$u20$as$u20$core..ops..drop..Drop$GT$4drop17h5c903aa1c7c31254E', symObjAddr: 0xE78, symBinAddr: 0x10ED4, symSize: 0x30 }
  - { offset: 0x5942D, size: 0x8, addend: 0x0, symName: '__ZN4core3ptr100drop_in_place$LT$alloc..raw_vec..RawVec$LT$pyo3..instance..Py$LT$pyo3..types..any..PyAny$GT$$GT$$GT$17h733a7a5bbecbfcd3E', symObjAddr: 0x4D0, symBinAddr: 0x10550, symSize: 0x24 }
  - { offset: 0x5945C, size: 0x8, addend: 0x0, symName: '__ZN4core3ptr106drop_in_place$LT$hashbrown..set..HashSet$LT$$LP$usize$C$usize$RP$$C$std..hash..random..RandomState$GT$$GT$17ha17eafdceb71e58aE', symObjAddr: 0x4F4, symBinAddr: 0x10574, symSize: 0x24 }
  - { offset: 0x5948B, size: 0x8, addend: 0x0, symName: '__ZN4core3ptr109drop_in_place$LT$alloc..vec..into_iter..IntoIter$LT$pyo3..instance..Py$LT$pyo3..types..any..PyAny$GT$$GT$$GT$17hfecda56575932a2bE', symObjAddr: 0x518, symBinAddr: 0x10598, symSize: 0x24 }
  - { offset: 0x594BA, size: 0x8, addend: 0x0, symName: '__ZN4core3ptr116drop_in_place$LT$core..result..Result$LT$alloc..vec..Vec$LT$alloc..vec..Vec$LT$u8$GT$$GT$$C$pyo3..err..PyErr$GT$$GT$17h0ad488f58d35042eE', symObjAddr: 0x53C, symBinAddr: 0x105BC, symSize: 0x50 }
  - { offset: 0x594E9, size: 0x8, addend: 0x0, symName: '__ZN4core3ptr117drop_in_place$LT$hashbrown..map..HashMap$LT$$LP$usize$C$usize$RP$$C$$LP$$RP$$C$std..hash..random..RandomState$GT$$GT$17h20347d64ec93315aE', symObjAddr: 0x58C, symBinAddr: 0x1060C, symSize: 0x24 }
  - { offset: 0x59518, size: 0x8, addend: 0x0, symName: '__ZN4core3ptr118drop_in_place$LT$core..array..iter..IntoIter$LT$pyo3..instance..Bound$LT$pyo3..types..any..PyAny$GT$$C$4_usize$GT$$GT$17h5c45f39f83721f02E', symObjAddr: 0x5B0, symBinAddr: 0x10630, symSize: 0x24 }
  - { offset: 0x59547, size: 0x8, addend: 0x0, symName: '__ZN4core3ptr140drop_in_place$LT$core..result..Result$LT$alloc..vec..Vec$LT$pyo3..instance..Py$LT$pyo3..types..any..PyAny$GT$$GT$$C$pyo3..err..PyErr$GT$$GT$17h012bd522414b0335E', symObjAddr: 0x5D4, symBinAddr: 0x10654, symSize: 0x50 }
  - { offset: 0x59576, size: 0x8, addend: 0x0, symName: '__ZN4core3ptr158drop_in_place$LT$$LT$alloc..collections..vec_deque..VecDeque$LT$T$C$A$GT$$u20$as$u20$core..ops..drop..Drop$GT$..drop..Dropper$LT$$LP$usize$C$usize$RP$$GT$$GT$17h62bb6984c63a9744E', symObjAddr: 0x624, symBinAddr: 0x106A4, symSize: 0x24 }
  - { offset: 0x595A5, size: 0x8, addend: 0x0, symName: '__ZN4core3ptr168drop_in_place$LT$core..iter..adapters..enumerate..Enumerate$LT$core..array..iter..IntoIter$LT$pyo3..instance..Bound$LT$pyo3..types..any..PyAny$GT$$C$4_usize$GT$$GT$$GT$17hab05c875431b0dd0E', symObjAddr: 0x648, symBinAddr: 0x106C8, symSize: 0x24 }
  - { offset: 0x595D4, size: 0x8, addend: 0x0, symName: '__ZN4core3ptr175drop_in_place$LT$$LT$alloc..vec..into_iter..IntoIter$LT$T$C$A$GT$$u20$as$u20$core..ops..drop..Drop$GT$..drop..DropGuard$LT$$LP$usize$C$usize$RP$$C$alloc..alloc..Global$GT$$GT$17h2c160eebc3586a5aE', symObjAddr: 0x66C, symBinAddr: 0x106EC, symSize: 0x24 }
  - { offset: 0x59603, size: 0x8, addend: 0x0, symName: '__ZN4core3ptr179drop_in_place$LT$$LT$alloc..vec..into_iter..IntoIter$LT$T$C$A$GT$$u20$as$u20$core..ops..drop..Drop$GT$..drop..DropGuard$LT$alloc..vec..Vec$LT$u8$GT$$C$alloc..alloc..Global$GT$$GT$17h000eb57c049e995aE', symObjAddr: 0x690, symBinAddr: 0x10710, symSize: 0x24 }
  - { offset: 0x59632, size: 0x8, addend: 0x0, symName: '__ZN4core3ptr182drop_in_place$LT$$LT$T$u20$as$u20$alloc..slice..$LT$impl$u20$$u5b$T$u5d$$GT$..to_vec_in..ConvertVec$GT$..to_vec..DropGuard$LT$alloc..vec..Vec$LT$u8$GT$$C$alloc..alloc..Global$GT$$GT$17hda50c9d64dfe32d2E', symObjAddr: 0x6B4, symBinAddr: 0x10734, symSize: 0x24 }
  - { offset: 0x59661, size: 0x8, addend: 0x0, symName: '__ZN4core3ptr192drop_in_place$LT$core..array..iter..iter_inner..PolymorphicIter$LT$$u5b$core..mem..maybe_uninit..MaybeUninit$LT$pyo3..instance..Bound$LT$pyo3..types..any..PyAny$GT$$GT$$u3b$$u20$4$u5d$$GT$$GT$17hf6a188bf318ac97fE', symObjAddr: 0x6D8, symBinAddr: 0x10758, symSize: 0x24 }
  - { offset: 0x59690, size: 0x8, addend: 0x0, symName: '__ZN4core3ptr203drop_in_place$LT$$LT$alloc..vec..into_iter..IntoIter$LT$T$C$A$GT$$u20$as$u20$core..ops..drop..Drop$GT$..drop..DropGuard$LT$pyo3..instance..Py$LT$pyo3..types..any..PyAny$GT$$C$alloc..alloc..Global$GT$$GT$17hfbf8f0c6a0c84e96E', symObjAddr: 0x6FC, symBinAddr: 0x1077C, symSize: 0x24 }
  - { offset: 0x596BF, size: 0x8, addend: 0x0, symName: '__ZN4core3ptr304drop_in_place$LT$core..iter..adapters..map..Map$LT$alloc..vec..into_iter..IntoIter$LT$$LP$usize$C$usize$RP$$GT$$C$$LT$$LP$usize$C$usize$RP$$u20$as$u20$pyo3..conversion..IntoPyObject$GT$..owned_sequence_into_pyobject$LT$alloc..vec..Vec$LT$$LP$usize$C$usize$RP$$GT$$GT$..$u7b$$u7b$closure$u7d$$u7d$$GT$$GT$17h39359a09d78d92cdE', symObjAddr: 0x720, symBinAddr: 0x107A0, symSize: 0x24 }
  - { offset: 0x596EE, size: 0x8, addend: 0x0, symName: '__ZN4core3ptr316drop_in_place$LT$core..iter..adapters..map..Map$LT$alloc..vec..into_iter..IntoIter$LT$alloc..vec..Vec$LT$u8$GT$$GT$$C$$LT$alloc..vec..Vec$LT$u8$GT$$u20$as$u20$pyo3..conversion..IntoPyObject$GT$..owned_sequence_into_pyobject$LT$alloc..vec..Vec$LT$alloc..vec..Vec$LT$u8$GT$$GT$$GT$..$u7b$$u7b$closure$u7d$$u7d$$GT$$GT$17h17d67c5d5d2ea849E', symObjAddr: 0x744, symBinAddr: 0x107C4, symSize: 0x24 }
  - { offset: 0x5971D, size: 0x8, addend: 0x0, symName: '__ZN4core3ptr357drop_in_place$LT$generic_array..ArrayBuilder$LT$u8$C$typenum..uint..UInt$LT$typenum..uint..UInt$LT$typenum..uint..UInt$LT$typenum..uint..UInt$LT$typenum..uint..UInt$LT$typenum..uint..UInt$LT$typenum..uint..UTerm$C$typenum..bit..B1$GT$$C$typenum..bit..B0$GT$$C$typenum..bit..B0$GT$$C$typenum..bit..B0$GT$$C$typenum..bit..B0$GT$$C$typenum..bit..B0$GT$$GT$$GT$17ha811ccdd7ae960bdE', symObjAddr: 0x768, symBinAddr: 0x107E8, symSize: 0x24 }
  - { offset: 0x5974C, size: 0x8, addend: 0x0, symName: '__ZN4core3ptr388drop_in_place$LT$core..iter..adapters..map..Map$LT$alloc..vec..into_iter..IntoIter$LT$pyo3..instance..Py$LT$pyo3..types..any..PyAny$GT$$GT$$C$$LT$pyo3..instance..Py$LT$pyo3..types..any..PyAny$GT$$u20$as$u20$pyo3..conversion..IntoPyObject$GT$..owned_sequence_into_pyobject$LT$alloc..vec..Vec$LT$pyo3..instance..Py$LT$pyo3..types..any..PyAny$GT$$GT$$GT$..$u7b$$u7b$closure$u7d$$u7d$$GT$$GT$17h7a48baa804d4d61cE', symObjAddr: 0x78C, symBinAddr: 0x1080C, symSize: 0x24 }
  - { offset: 0x5977B, size: 0x8, addend: 0x0, symName: '__ZN4core3ptr403drop_in_place$LT$generic_array..ArrayBuilder$LT$u8$C$typenum..uint..UInt$LT$typenum..uint..UInt$LT$typenum..uint..UInt$LT$typenum..uint..UInt$LT$typenum..uint..UInt$LT$typenum..uint..UInt$LT$typenum..uint..UInt$LT$typenum..uint..UTerm$C$typenum..bit..B1$GT$$C$typenum..bit..B0$GT$$C$typenum..bit..B0$GT$$C$typenum..bit..B0$GT$$C$typenum..bit..B0$GT$$C$typenum..bit..B0$GT$$C$typenum..bit..B0$GT$$GT$$GT$17h40836862b88ced6aE', symObjAddr: 0x7B0, symBinAddr: 0x10830, symSize: 0x24 }
  - { offset: 0x597AA, size: 0x8, addend: 0x0, symName: '__ZN4core3ptr56drop_in_place$LT$$u5b$alloc..vec..Vec$LT$u8$GT$$u5d$$GT$17hc296b6729cc1661cE', symObjAddr: 0x7F8, symBinAddr: 0x10854, symSize: 0xC4 }
  - { offset: 0x597D9, size: 0x8, addend: 0x0, symName: '__ZN4core3ptr65drop_in_place$LT$alloc..vec..Vec$LT$$LP$usize$C$usize$RP$$GT$$GT$17h26915639d6121121E', symObjAddr: 0x8BC, symBinAddr: 0x10918, symSize: 0x5C }
  - { offset: 0x59808, size: 0x8, addend: 0x0, symName: '__ZN4core3ptr69drop_in_place$LT$alloc..vec..Vec$LT$alloc..vec..Vec$LT$u8$GT$$GT$$GT$17hfbb2abdc09da32c4E', symObjAddr: 0x918, symBinAddr: 0x10974, symSize: 0x5C }
  - { offset: 0x59837, size: 0x8, addend: 0x0, symName: '__ZN4core3ptr72drop_in_place$LT$alloc..raw_vec..RawVec$LT$$LP$usize$C$usize$RP$$GT$$GT$17hd9c631846e0d4c48E', symObjAddr: 0x974, symBinAddr: 0x109D0, symSize: 0x24 }
  - { offset: 0x59866, size: 0x8, addend: 0x0, symName: '__ZN4core3ptr73drop_in_place$LT$core..result..Result$LT$usize$C$pyo3..err..PyErr$GT$$GT$17h46557ae465085d02E', symObjAddr: 0x998, symBinAddr: 0x109F4, symSize: 0x40 }
  - { offset: 0x59895, size: 0x8, addend: 0x0, symName: '__ZN4core3ptr74drop_in_place$LT$cortex_rust..get_objects..$u7b$$u7b$closure$u7d$$u7d$$GT$17hdf18c2cbd4f77313E', symObjAddr: 0x9D8, symBinAddr: 0x10A34, symSize: 0x24 }
  - { offset: 0x598C4, size: 0x8, addend: 0x0, symName: '__ZN4core3ptr76drop_in_place$LT$alloc..raw_vec..RawVec$LT$alloc..vec..Vec$LT$u8$GT$$GT$$GT$17h6e2529a1fb2c2850E', symObjAddr: 0x9FC, symBinAddr: 0x10A58, symSize: 0x24 }
  - { offset: 0x598F3, size: 0x8, addend: 0x0, symName: '__ZN4core3ptr80drop_in_place$LT$$u5b$pyo3..instance..Py$LT$pyo3..types..any..PyAny$GT$$u5d$$GT$17h5196fa5842c58e98E', symObjAddr: 0xA20, symBinAddr: 0x10A7C, symSize: 0xB4 }
  - { offset: 0x59922, size: 0x8, addend: 0x0, symName: '__ZN4core3ptr81drop_in_place$LT$alloc..vec..into_iter..IntoIter$LT$$LP$usize$C$usize$RP$$GT$$GT$17hd32a09c9a597a09bE', symObjAddr: 0xAD4, symBinAddr: 0x10B30, symSize: 0x24 }
  - { offset: 0x59951, size: 0x8, addend: 0x0, symName: '__ZN4core3ptr85drop_in_place$LT$alloc..vec..into_iter..IntoIter$LT$alloc..vec..Vec$LT$u8$GT$$GT$$GT$17h636ef99c00b064a4E', symObjAddr: 0xAF8, symBinAddr: 0x10B54, symSize: 0x24 }
  - { offset: 0x59980, size: 0x8, addend: 0x0, symName: '__ZN4core3ptr86drop_in_place$LT$std..collections..hash..set..HashSet$LT$$LP$usize$C$usize$RP$$GT$$GT$17h39f48cd003bbd9dcE', symObjAddr: 0xB1C, symBinAddr: 0x10B78, symSize: 0x24 }
  - { offset: 0x599AF, size: 0x8, addend: 0x0, symName: '__ZN4core3ptr89drop_in_place$LT$alloc..collections..vec_deque..VecDeque$LT$$LP$usize$C$usize$RP$$GT$$GT$17h73340f87f0002689E', symObjAddr: 0xB40, symBinAddr: 0x10B9C, symSize: 0x5C }
  - { offset: 0x599DE, size: 0x8, addend: 0x0, symName: '__ZN4core3ptr89drop_in_place$LT$core..result..Result$LT$alloc..string..String$C$pyo3..err..PyErr$GT$$GT$17hc415c55281deb805E', symObjAddr: 0xB9C, symBinAddr: 0x10BF8, symSize: 0x50 }
  - { offset: 0x59A0D, size: 0x8, addend: 0x0, symName: '__ZN4core3ptr93drop_in_place$LT$alloc..vec..Vec$LT$pyo3..instance..Py$LT$pyo3..types..any..PyAny$GT$$GT$$GT$17h36af64d8d86995f3E', symObjAddr: 0xBEC, symBinAddr: 0x10C48, symSize: 0x5C }
  - { offset: 0x59A3C, size: 0x8, addend: 0x0, symName: '__ZN4core3ptr93drop_in_place$LT$hashbrown..raw..RawTable$LT$$LP$$LP$usize$C$usize$RP$$C$$LP$$RP$$RP$$GT$$GT$17hc0540335aa34963fE', symObjAddr: 0xC48, symBinAddr: 0x10CA4, symSize: 0x24 }
  - { offset: 0x59A6B, size: 0x8, addend: 0x0, symName: '__ZN4core3ptr94drop_in_place$LT$$u5b$pyo3..instance..Bound$LT$pyo3..types..any..PyAny$GT$$u3b$$u20$4$u5d$$GT$17h972ae50d71486a90E', symObjAddr: 0xC6C, symBinAddr: 0x10CC8, symSize: 0xA4 }
  - { offset: 0x5B9C4, size: 0x8, addend: 0x0, symName: '__ZN77_$LT$alloc..raw_vec..RawVec$LT$T$C$A$GT$$u20$as$u20$core..ops..drop..Drop$GT$4drop17h128595a6decd786aE', symObjAddr: 0xDA4, symBinAddr: 0x10E00, symSize: 0x34 }
  - { offset: 0x5BA00, size: 0x8, addend: 0x0, symName: '__ZN77_$LT$alloc..raw_vec..RawVec$LT$T$C$A$GT$$u20$as$u20$core..ops..drop..Drop$GT$4drop17h594c0dae97a8f3b9E', symObjAddr: 0xDD8, symBinAddr: 0x10E34, symSize: 0x30 }
  - { offset: 0x5BA3C, size: 0x8, addend: 0x0, symName: '__ZN77_$LT$alloc..raw_vec..RawVec$LT$T$C$A$GT$$u20$as$u20$core..ops..drop..Drop$GT$4drop17h6222663f5a822e8bE', symObjAddr: 0xE08, symBinAddr: 0x10E64, symSize: 0x34 }
  - { offset: 0x5BAA1, size: 0x8, addend: 0x0, symName: '__ZN157_$LT$$LT$alloc..vec..into_iter..IntoIter$LT$T$C$A$GT$$u20$as$u20$core..ops..drop..Drop$GT$..drop..DropGuard$LT$T$C$A$GT$$u20$as$u20$core..ops..drop..Drop$GT$4drop17h19e9667f1b9785aaE', symObjAddr: 0x30, symBinAddr: 0x100B0, symSize: 0x6C }
  - { offset: 0x5BBE4, size: 0x8, addend: 0x0, symName: '__ZN157_$LT$$LT$alloc..vec..into_iter..IntoIter$LT$T$C$A$GT$$u20$as$u20$core..ops..drop..Drop$GT$..drop..DropGuard$LT$T$C$A$GT$$u20$as$u20$core..ops..drop..Drop$GT$4drop17h4ea120af4bcd3bd2E', symObjAddr: 0x9C, symBinAddr: 0x1011C, symSize: 0x6C }
  - { offset: 0x5BD27, size: 0x8, addend: 0x0, symName: '__ZN157_$LT$$LT$alloc..vec..into_iter..IntoIter$LT$T$C$A$GT$$u20$as$u20$core..ops..drop..Drop$GT$..drop..DropGuard$LT$T$C$A$GT$$u20$as$u20$core..ops..drop..Drop$GT$4drop17hefabddea946338d3E', symObjAddr: 0x108, symBinAddr: 0x10188, symSize: 0x6C }
  - { offset: 0x5BEE1, size: 0x8, addend: 0x0, symName: '__ZN86_$LT$alloc..vec..into_iter..IntoIter$LT$T$C$A$GT$$u20$as$u20$core..ops..drop..Drop$GT$4drop17h4166c7d5de6f4947E', symObjAddr: 0x1030, symBinAddr: 0x1108C, symSize: 0x78 }
  - { offset: 0x5BF33, size: 0x8, addend: 0x0, symName: '__ZN86_$LT$alloc..vec..into_iter..IntoIter$LT$T$C$A$GT$$u20$as$u20$core..ops..drop..Drop$GT$4drop17h5af860b1211b4b76E', symObjAddr: 0x10A8, symBinAddr: 0x11104, symSize: 0x64 }
  - { offset: 0x5BF85, size: 0x8, addend: 0x0, symName: '__ZN86_$LT$alloc..vec..into_iter..IntoIter$LT$T$C$A$GT$$u20$as$u20$core..ops..drop..Drop$GT$4drop17h5e7d1159a5cf0ee4E', symObjAddr: 0x110C, symBinAddr: 0x11168, symSize: 0x78 }
  - { offset: 0x5C1E6, size: 0x8, addend: 0x0, symName: '__ZN70_$LT$alloc..vec..Vec$LT$T$C$A$GT$$u20$as$u20$core..ops..drop..Drop$GT$4drop17h5426499282aa3467E', symObjAddr: 0xD10, symBinAddr: 0x10D6C, symSize: 0x38 }
  - { offset: 0x5C296, size: 0x8, addend: 0x0, symName: '__ZN70_$LT$alloc..vec..Vec$LT$T$C$A$GT$$u20$as$u20$core..ops..drop..Drop$GT$4drop17haf452b9273d959edE', symObjAddr: 0xD48, symBinAddr: 0x10DA4, symSize: 0x24 }
  - { offset: 0x5C346, size: 0x8, addend: 0x0, symName: '__ZN70_$LT$alloc..vec..Vec$LT$T$C$A$GT$$u20$as$u20$core..ops..drop..Drop$GT$4drop17hc9e1a38e6b53dc2cE', symObjAddr: 0xD6C, symBinAddr: 0x10DC8, symSize: 0x38 }
  - { offset: 0x5C4C7, size: 0x8, addend: 0x0, symName: '__ZN159_$LT$$LT$alloc..collections..vec_deque..VecDeque$LT$T$C$A$GT$$u20$as$u20$core..ops..drop..Drop$GT$..drop..Dropper$LT$T$GT$$u20$as$u20$core..ops..drop..Drop$GT$4drop17h992ea42c0da73a88E', symObjAddr: 0x174, symBinAddr: 0x101F4, symSize: 0x10 }
  - { offset: 0x5C518, size: 0x8, addend: 0x0, symName: '__ZN94_$LT$alloc..collections..vec_deque..VecDeque$LT$T$C$A$GT$$u20$as$u20$core..ops..drop..Drop$GT$4drop17h091d9ab60e55e7f7E', symObjAddr: 0x1184, symBinAddr: 0x111E0, symSize: 0x90 }
  - { offset: 0x5C804, size: 0x8, addend: 0x0, symName: '__ZN160_$LT$$LT$T$u20$as$u20$alloc..slice..$LT$impl$u20$$u5b$T$u5d$$GT$..to_vec_in..ConvertVec$GT$..to_vec..DropGuard$LT$T$C$A$GT$$u20$as$u20$core..ops..drop..Drop$GT$4drop17he21085b0cb2704c4E', symObjAddr: 0x184, symBinAddr: 0x10204, symSize: 0x80 }
  - { offset: 0x5CE44, size: 0x8, addend: 0x0, symName: '__ZN79_$LT$hashbrown..raw..RawTable$LT$T$C$A$GT$$u20$as$u20$core..ops..drop..Drop$GT$4drop17h50dace0d1bb32630E', symObjAddr: 0xE3C, symBinAddr: 0x10E98, symSize: 0x3C }
  - { offset: 0x5D2D6, size: 0x8, addend: 0x0, symName: '__ZN82_$LT$generic_array..ArrayBuilder$LT$T$C$N$GT$$u20$as$u20$core..ops..drop..Drop$GT$4drop17h222549b13cc5ece2E', symObjAddr: 0xEA8, symBinAddr: 0x10F04, symSize: 0xC4 }
  - { offset: 0x5D392, size: 0x8, addend: 0x0, symName: '__ZN82_$LT$generic_array..ArrayBuilder$LT$T$C$N$GT$$u20$as$u20$core..ops..drop..Drop$GT$4drop17h32e9ed98f9f28ab8E', symObjAddr: 0xF6C, symBinAddr: 0x10FC8, symSize: 0xC4 }
  - { offset: 0x5DFE3, size: 0x8, addend: 0x0, symName: __ZN9hashbrown3raw13RawTableInner13drop_elements17h1ff63f7610dde0e5E, symObjAddr: 0x0, symBinAddr: 0x11270, symSize: 0x30 }
  - { offset: 0x5E012, size: 0x8, addend: 0x0, symName: '__ZN9hashbrown3raw21RawTable$LT$T$C$A$GT$14reserve_rehash28_$u7b$$u7b$closure$u7d$$u7d$17hdb446719861956f8E', symObjAddr: 0x884, symBinAddr: 0x11350, symSize: 0xC0 }
  - { offset: 0x5E1F6, size: 0x8, addend: 0x0, symName: '__ZN9hashbrown3raw21RawTable$LT$T$C$A$GT$25find_or_find_insert_index28_$u7b$$u7b$closure$u7d$$u7d$17hcaf66dfe23777a41E', symObjAddr: 0xB9C, symBinAddr: 0x11668, symSize: 0xC4 }
  - { offset: 0x5E3E9, size: 0x8, addend: 0x0, symName: '__ZN9hashbrown3raw21RawTable$LT$T$C$A$GT$4find28_$u7b$$u7b$closure$u7d$$u7d$17h6fe62d213193ed37E', symObjAddr: 0xF74, symBinAddr: 0x11A40, symSize: 0xC4 }
  - { offset: 0x60411, size: 0x8, addend: 0x0, symName: __ZN9hashbrown3raw13RawTableInner13drop_elements17h1ff63f7610dde0e5E, symObjAddr: 0x0, symBinAddr: 0x11270, symSize: 0x30 }
  - { offset: 0x60700, size: 0x8, addend: 0x0, symName: __ZN9hashbrown3raw13RawTableInner16drop_inner_table17h5d5a3f43140ed2bfE, symObjAddr: 0x30, symBinAddr: 0x112A0, symSize: 0xB0 }
  - { offset: 0x60DB7, size: 0x8, addend: 0x0, symName: '__ZN9hashbrown3raw21RawTable$LT$T$C$A$GT$14reserve_rehash17h3078339eef70d17dE', symObjAddr: 0xE0, symBinAddr: 0x69388, symSize: 0x7A4 }
  - { offset: 0x61981, size: 0x8, addend: 0x0, symName: '__ZN9hashbrown3raw21RawTable$LT$T$C$A$GT$22insert_tagged_at_index17h165f6a09e1f76c6cE', symObjAddr: 0x944, symBinAddr: 0x11410, symSize: 0x124 }
  - { offset: 0x61DFF, size: 0x8, addend: 0x0, symName: '__ZN9hashbrown3raw21RawTable$LT$T$C$A$GT$25find_or_find_insert_index17he962f600348653afE', symObjAddr: 0xA68, symBinAddr: 0x11534, symSize: 0x134 }
  - { offset: 0x62407, size: 0x8, addend: 0x0, symName: '__ZN9hashbrown3raw21RawTable$LT$T$C$A$GT$4find17had7ea6c5d083abcbE', symObjAddr: 0xC60, symBinAddr: 0x1172C, symSize: 0x314 }
  - { offset: 0x62A2A, size: 0x8, addend: 0x0, symName: '__ZN9hashbrown3raw21RawTable$LT$T$C$A$GT$7reserve17had9ebe4e1ffb287dE', symObjAddr: 0x1038, symBinAddr: 0x11B04, symSize: 0xB0 }
  - { offset: 0x62B02, size: 0x8, addend: 0x0, symName: '__ZN4core3num21_$LT$impl$u20$u32$GT$11to_be_bytes17hea40170fb4db0994E', symObjAddr: 0x0, symBinAddr: 0x11BB4, symSize: 0x28 }
  - { offset: 0x62B78, size: 0x8, addend: 0x0, symName: '__ZN4core3num21_$LT$impl$u20$u32$GT$11to_be_bytes17hea40170fb4db0994E', symObjAddr: 0x0, symBinAddr: 0x11BB4, symSize: 0x28 }
  - { offset: 0x62C60, size: 0x8, addend: 0x0, symName: '__ZN4core3num21_$LT$impl$u20$u64$GT$11to_be_bytes17h4cfcd248dd8e0521E', symObjAddr: 0x28, symBinAddr: 0x11BDC, symSize: 0x28 }
  - { offset: 0x62D1D, size: 0x8, addend: 0x0, symName: '__ZN4core3num23_$LT$impl$u20$usize$GT$13unchecked_add18precondition_check17hf177b9809612abfcE', symObjAddr: 0x50, symBinAddr: 0x11C04, symSize: 0x64 }
  - { offset: 0x62E41, size: 0x8, addend: 0x0, symName: __ZN4core5slice20copy_from_slice_impl17h6244029f34e2de8dE, symObjAddr: 0x0, symBinAddr: 0x11C68, symSize: 0xAC }
  - { offset: 0x636B5, size: 0x8, addend: 0x0, symName: '__ZN4core5slice29_$LT$impl$u20$$u5b$T$u5d$$GT$12split_at_mut17h3434b4ad9b437fefE', symObjAddr: 0xAC, symBinAddr: 0x11D14, symSize: 0xAC }
  - { offset: 0x63719, size: 0x8, addend: 0x0, symName: '__ZN4core5slice29_$LT$impl$u20$$u5b$T$u5d$$GT$16chunks_exact_mut17h94cf28a7730de3f2E', symObjAddr: 0x158, symBinAddr: 0x11DC0, symSize: 0xF0 }
  - { offset: 0x637FE, size: 0x8, addend: 0x0, symName: '__ZN4core5slice29_$LT$impl$u20$$u5b$T$u5d$$GT$22split_at_mut_unchecked17h9eab4c52523fbef3E', symObjAddr: 0x248, symBinAddr: 0x11EB0, symSize: 0xE8 }
  - { offset: 0x6395E, size: 0x8, addend: 0x0, symName: '__ZN4core5slice29_$LT$impl$u20$$u5b$T$u5d$$GT$7reverse17h8f44b97e86f66a01E', symObjAddr: 0x330, symBinAddr: 0x11F98, symSize: 0xE4 }
  - { offset: 0x63AEF, size: 0x8, addend: 0x0, symName: '__ZN4core5slice29_$LT$impl$u20$$u5b$T$u5d$$GT$7reverse7revswap17h3d0d04f61d9e2f18E', symObjAddr: 0x414, symBinAddr: 0x1207C, symSize: 0x1AC }
  - { offset: 0x63BAE, size: 0x8, addend: 0x0, symName: '__ZN4core5slice29_$LT$impl$u20$$u5b$T$u5d$$GT$7reverse7revswap17hb302664a9734d617E', symObjAddr: 0x5C0, symBinAddr: 0x12228, symSize: 0x17C }
  - { offset: 0x63C9F, size: 0x8, addend: 0x0, symName: '__ZN4core5slice29_$LT$impl$u20$$u5b$T$u5d$$GT$8split_at17h9c4d7149c6f07475E', symObjAddr: 0x73C, symBinAddr: 0x123A4, symSize: 0xAC }
  - { offset: 0x63D04, size: 0x8, addend: 0x0, symName: __ZN4core5slice20copy_from_slice_impl17h6244029f34e2de8dE, symObjAddr: 0x0, symBinAddr: 0x11C68, symSize: 0xAC }
  - { offset: 0x653AC, size: 0x8, addend: 0x0, symName: __ZN4pyo36marker6Python8with_gil17h481c7243d916ac5aE, symObjAddr: 0x0, symBinAddr: 0x12450, symSize: 0x104 }
  - { offset: 0x674AC, size: 0x8, addend: 0x0, symName: __ZN4pyo36marker6Python8with_gil17h481c7243d916ac5aE, symObjAddr: 0x0, symBinAddr: 0x12450, symSize: 0x104 }
  - { offset: 0x67516, size: 0x8, addend: 0x0, symName: '__ZN110_$LT$core..iter..adapters..enumerate..Enumerate$LT$I$GT$$u20$as$u20$core..iter..traits..iterator..Iterator$GT$4fold17hb3c50e94791ed0edE', symObjAddr: 0x0, symBinAddr: 0x12554, symSize: 0x58 }
  - { offset: 0x67DA2, size: 0x8, addend: 0x0, symName: '__ZN110_$LT$core..iter..adapters..enumerate..Enumerate$LT$I$GT$$u20$as$u20$core..iter..traits..iterator..Iterator$GT$4fold9enumerate28_$u7b$$u7b$closure$u7d$$u7d$17h48949d1b8985b14cE', symObjAddr: 0xB0, symBinAddr: 0x12604, symSize: 0x8C }
  - { offset: 0x67E2A, size: 0x8, addend: 0x0, symName: '__ZN110_$LT$core..iter..adapters..enumerate..Enumerate$LT$I$GT$$u20$as$u20$core..iter..traits..iterator..Iterator$GT$4fold9enumerate28_$u7b$$u7b$closure$u7d$$u7d$17h55826609ec4ef0baE', symObjAddr: 0x13C, symBinAddr: 0x12690, symSize: 0x8C }
  - { offset: 0x67EF6, size: 0x8, addend: 0x0, symName: '__ZN110_$LT$core..iter..adapters..enumerate..Enumerate$LT$I$GT$$u20$as$u20$core..iter..traits..iterator..Iterator$GT$4fold17hb3c50e94791ed0edE', symObjAddr: 0x0, symBinAddr: 0x12554, symSize: 0x58 }
  - { offset: 0x67F7B, size: 0x8, addend: 0x0, symName: '__ZN110_$LT$core..iter..adapters..enumerate..Enumerate$LT$I$GT$$u20$as$u20$core..iter..traits..iterator..Iterator$GT$4fold17hd05568c293581919E', symObjAddr: 0x58, symBinAddr: 0x125AC, symSize: 0x58 }
  - { offset: 0x68000, size: 0x8, addend: 0x0, symName: '__ZN110_$LT$core..iter..adapters..enumerate..Enumerate$LT$I$GT$$u20$as$u20$core..iter..traits..iterator..Iterator$GT$4next17h35b6a055e0ff230dE', symObjAddr: 0x1C8, symBinAddr: 0x1271C, symSize: 0xE0 }
  - { offset: 0x680E6, size: 0x8, addend: 0x0, symName: '__ZN110_$LT$core..iter..adapters..enumerate..Enumerate$LT$I$GT$$u20$as$u20$core..iter..traits..iterator..Iterator$GT$4next17he6e00541ef721944E', symObjAddr: 0x2A8, symBinAddr: 0x127FC, symSize: 0xEC }
  - { offset: 0x6828E, size: 0x8, addend: 0x0, symName: __ZN4core4iter6traits8iterator8Iterator8for_each17habccada21a64cc57E, symObjAddr: 0x394, symBinAddr: 0x128E8, symSize: 0x2C }
  - { offset: 0x682DA, size: 0x8, addend: 0x0, symName: __ZN4core4iter6traits8iterator8Iterator8for_each17hb322a19caecdbf9bE, symObjAddr: 0x3C0, symBinAddr: 0x12914, symSize: 0x2C }
  - { offset: 0x68332, size: 0x8, addend: 0x0, symName: '__ZN63_$LT$I$u20$as$u20$core..iter..traits..collect..IntoIterator$GT$9into_iter17hb88f5697c780bc5bE', symObjAddr: 0x3EC, symBinAddr: 0x12940, symSize: 0x30 }
  - { offset: 0x69ADB, size: 0x8, addend: 0x0, symName: '__ZN57_$LT$T$u20$as$u20$pyo3..conversion..FromPyObjectBound$GT$20from_py_object_bound17hc10b5a0202fb5408E', symObjAddr: 0x0, symBinAddr: 0x12970, symSize: 0x34 }
  - { offset: 0x6B06E, size: 0x8, addend: 0x0, symName: '__ZN57_$LT$T$u20$as$u20$pyo3..conversion..FromPyObjectBound$GT$20from_py_object_bound17hc10b5a0202fb5408E', symObjAddr: 0x0, symBinAddr: 0x12970, symSize: 0x34 }
  - { offset: 0x6B0B6, size: 0x8, addend: 0x0, symName: '__ZN71_$LT$T$u20$as$u20$pyo3..impl_..extract_argument..PyFunctionArgument$GT$7extract17heb621241a0fc4568E', symObjAddr: 0x34, symBinAddr: 0x129A4, symSize: 0x28 }
  - { offset: 0x6B382, size: 0x8, addend: 0x0, symName: '__ZN89_$LT$alloc..string..String$u20$as$u20$core..iter..traits..collect..Extend$LT$char$GT$$GT$6extend17hc2fa0e8a9e1fb576E', symObjAddr: 0x5C, symBinAddr: 0x129CC, symSize: 0xAC }
  - { offset: 0x6B424, size: 0x8, addend: 0x0, symName: '__ZN89_$LT$alloc..string..String$u20$as$u20$core..iter..traits..collect..Extend$LT$char$GT$$GT$6extend28_$u7b$$u7b$closure$u7d$$u7d$17hb0aae29da83aa73aE', symObjAddr: 0x108, symBinAddr: 0x12A78, symSize: 0x2C }
  - { offset: 0x6B46F, size: 0x8, addend: 0x0, symName: '__ZN95_$LT$alloc..string..String$u20$as$u20$core..iter..traits..collect..FromIterator$LT$char$GT$$GT$9from_iter17h18ac4b1e43ed3aa3E', symObjAddr: 0x134, symBinAddr: 0x12AA4, symSize: 0x88 }
  - { offset: 0x6BD45, size: 0x8, addend: 0x0, symName: '__ZN50_$LT$T$u20$as$u20$core..convert..Into$LT$U$GT$$GT$4into17h9f6bd14b1b653fc9E', symObjAddr: 0x0, symBinAddr: 0x12B2C, symSize: 0x24 }
  - { offset: 0x6C53F, size: 0x8, addend: 0x0, symName: '__ZN50_$LT$T$u20$as$u20$core..convert..Into$LT$U$GT$$GT$4into17h9f6bd14b1b653fc9E', symObjAddr: 0x0, symBinAddr: 0x12B2C, symSize: 0x24 }
  - { offset: 0x6D52F, size: 0x8, addend: 0x0, symName: '__ZN103_$LT$alloc..vec..into_iter..IntoIter$LT$T$C$A$GT$$u20$as$u20$core..iter..traits..iterator..Iterator$GT$4next17h091b486f3bd0e908E', symObjAddr: 0x0, symBinAddr: 0x12B50, symSize: 0x88 }
  - { offset: 0x6F8C5, size: 0x8, addend: 0x0, symName: __ZN4core4iter6traits10exact_size17ExactSizeIterator3len17h3e8e1ff06c5318b7E, symObjAddr: 0x8AC, symBinAddr: 0x133FC, symSize: 0xB8 }
  - { offset: 0x6F991, size: 0x8, addend: 0x0, symName: __ZN4core4iter6traits10exact_size17ExactSizeIterator3len17h785ad9782c38e5d1E, symObjAddr: 0x964, symBinAddr: 0x134B4, symSize: 0xB8 }
  - { offset: 0x6FA5D, size: 0x8, addend: 0x0, symName: __ZN4core4iter6traits10exact_size17ExactSizeIterator3len17hdb38004195b19197E, symObjAddr: 0xA1C, symBinAddr: 0x1356C, symSize: 0xB8 }
  - { offset: 0x6FCDF, size: 0x8, addend: 0x0, symName: __ZN4core4iter6traits8iterator8Iterator3map17h76fad2d9039a90e8E, symObjAddr: 0xAD4, symBinAddr: 0x13624, symSize: 0x28 }
  - { offset: 0x6FD4C, size: 0x8, addend: 0x0, symName: __ZN4core4iter6traits8iterator8Iterator3map17h9517d3ee86862b17E, symObjAddr: 0xAFC, symBinAddr: 0x1364C, symSize: 0x28 }
  - { offset: 0x6FDB9, size: 0x8, addend: 0x0, symName: __ZN4core4iter6traits8iterator8Iterator3map17h97ed59c7eef7961aE, symObjAddr: 0xB24, symBinAddr: 0x13674, symSize: 0x28 }
  - { offset: 0x70A2E, size: 0x8, addend: 0x0, symName: '__ZN103_$LT$alloc..vec..into_iter..IntoIter$LT$T$C$A$GT$$u20$as$u20$core..iter..traits..iterator..Iterator$GT$4next17h091b486f3bd0e908E', symObjAddr: 0x0, symBinAddr: 0x12B50, symSize: 0x88 }
  - { offset: 0x70B88, size: 0x8, addend: 0x0, symName: '__ZN103_$LT$alloc..vec..into_iter..IntoIter$LT$T$C$A$GT$$u20$as$u20$core..iter..traits..iterator..Iterator$GT$4next17h6a92b8cee7c92aa1E', symObjAddr: 0x88, symBinAddr: 0x12BD8, symSize: 0xAC }
  - { offset: 0x70CE6, size: 0x8, addend: 0x0, symName: '__ZN103_$LT$alloc..vec..into_iter..IntoIter$LT$T$C$A$GT$$u20$as$u20$core..iter..traits..iterator..Iterator$GT$4next17hd900d83526430c84E', symObjAddr: 0x134, symBinAddr: 0x12C84, symSize: 0xA0 }
  - { offset: 0x70E40, size: 0x8, addend: 0x0, symName: '__ZN103_$LT$alloc..vec..into_iter..IntoIter$LT$T$C$A$GT$$u20$as$u20$core..iter..traits..iterator..Iterator$GT$8try_fold17h0ea03221a195183dE', symObjAddr: 0x1D4, symBinAddr: 0x12D24, symSize: 0x19C }
  - { offset: 0x71020, size: 0x8, addend: 0x0, symName: '__ZN103_$LT$alloc..vec..into_iter..IntoIter$LT$T$C$A$GT$$u20$as$u20$core..iter..traits..iterator..Iterator$GT$8try_fold17h91525fb837fb69b0E', symObjAddr: 0x370, symBinAddr: 0x12EC0, symSize: 0x17C }
  - { offset: 0x71200, size: 0x8, addend: 0x0, symName: '__ZN103_$LT$alloc..vec..into_iter..IntoIter$LT$T$C$A$GT$$u20$as$u20$core..iter..traits..iterator..Iterator$GT$8try_fold17hd29206ef30457087E', symObjAddr: 0x4EC, symBinAddr: 0x1303C, symSize: 0x1A4 }
  - { offset: 0x713E0, size: 0x8, addend: 0x0, symName: '__ZN103_$LT$alloc..vec..into_iter..IntoIter$LT$T$C$A$GT$$u20$as$u20$core..iter..traits..iterator..Iterator$GT$9size_hint17h0744dfb314ddaec7E', symObjAddr: 0x690, symBinAddr: 0x131E0, symSize: 0xB4 }
  - { offset: 0x714F9, size: 0x8, addend: 0x0, symName: '__ZN103_$LT$alloc..vec..into_iter..IntoIter$LT$T$C$A$GT$$u20$as$u20$core..iter..traits..iterator..Iterator$GT$9size_hint17h2288860dbb839179E', symObjAddr: 0x744, symBinAddr: 0x13294, symSize: 0xB4 }
  - { offset: 0x71612, size: 0x8, addend: 0x0, symName: '__ZN103_$LT$alloc..vec..into_iter..IntoIter$LT$T$C$A$GT$$u20$as$u20$core..iter..traits..iterator..Iterator$GT$9size_hint17h452a4caee457a90bE', symObjAddr: 0x7F8, symBinAddr: 0x13348, symSize: 0xB4 }
  - { offset: 0x71D22, size: 0x8, addend: 0x0, symName: '__ZN5alloc3vec9into_iter21IntoIter$LT$T$C$A$GT$16as_raw_mut_slice17h9dd33de2e418ee33E', symObjAddr: 0xB4C, symBinAddr: 0x1369C, symSize: 0xCC }
  - { offset: 0x71E72, size: 0x8, addend: 0x0, symName: '__ZN5alloc3vec9into_iter21IntoIter$LT$T$C$A$GT$16as_raw_mut_slice17hc8f560ea09bd1635E', symObjAddr: 0xC18, symBinAddr: 0x13768, symSize: 0xCC }
  - { offset: 0x71FC2, size: 0x8, addend: 0x0, symName: '__ZN5alloc3vec9into_iter21IntoIter$LT$T$C$A$GT$16as_raw_mut_slice17hf024e858954de277E', symObjAddr: 0xCE4, symBinAddr: 0x13834, symSize: 0xCC }
  - { offset: 0x7235F, size: 0x8, addend: 0x0, symName: '__ZN11cortex_rust11get_objects28_$u7b$$u7b$closure$u7d$$u7d$17h506bc1ca45f9d6c8E', symObjAddr: 0x0, symBinAddr: 0x13900, symSize: 0x9F4 }
  - { offset: 0x739A1, size: 0x8, addend: 0x0, symName: '__ZN11cortex_rust11get_objects28_$u7b$$u7b$closure$u7d$$u7d$17h506bc1ca45f9d6c8E', symObjAddr: 0x0, symBinAddr: 0x13900, symSize: 0x9F4 }
  - { offset: 0x7497C, size: 0x8, addend: 0x0, symName: __ZN4pyo35types4list17try_new_from_iter17h42ffd9204778ecdfE, symObjAddr: 0x0, symBinAddr: 0x142F4, symSize: 0x2C8 }
  - { offset: 0x761AA, size: 0x8, addend: 0x0, symName: __ZN4pyo35types4list17try_new_from_iter17h42ffd9204778ecdfE, symObjAddr: 0x0, symBinAddr: 0x142F4, symSize: 0x2C8 }
  - { offset: 0x762CB, size: 0x8, addend: 0x0, symName: __ZN4pyo35types4list17try_new_from_iter17h6effca040324e0a2E, symObjAddr: 0x2C8, symBinAddr: 0x145BC, symSize: 0x2C8 }
  - { offset: 0x763EC, size: 0x8, addend: 0x0, symName: __ZN4pyo35types4list17try_new_from_iter17hd33ac7b921feafa0E, symObjAddr: 0x590, symBinAddr: 0x14884, symSize: 0x2C8 }
  - { offset: 0x76512, size: 0x8, addend: 0x0, symName: '__ZN4pyo35types4list17try_new_from_iter28_$u7b$$u7b$closure$u7d$$u7d$17h46f9fa28d54861e3E', symObjAddr: 0x858, symBinAddr: 0x14B4C, symSize: 0x114 }
  - { offset: 0x76587, size: 0x8, addend: 0x0, symName: '__ZN4pyo35types4list17try_new_from_iter28_$u7b$$u7b$closure$u7d$$u7d$17hba3cfe8adcc2cdfcE', symObjAddr: 0x96C, symBinAddr: 0x14C60, symSize: 0x114 }
  - { offset: 0x765FC, size: 0x8, addend: 0x0, symName: '__ZN4pyo35types4list17try_new_from_iter28_$u7b$$u7b$closure$u7d$$u7d$17hc3326a4d74bcacb0E', symObjAddr: 0xA80, symBinAddr: 0x14D74, symSize: 0x114 }
  - { offset: 0x77269, size: 0x8, addend: 0x0, symName: __ZN4core5slice3raw14from_raw_parts18precondition_check17h13c442339c384ef4E, symObjAddr: 0x0, symBinAddr: 0x14E88, symSize: 0x10C }
  - { offset: 0x77408, size: 0x8, addend: 0x0, symName: __ZN4core5slice3raw14from_raw_parts18precondition_check17h13c442339c384ef4E, symObjAddr: 0x0, symBinAddr: 0x14E88, symSize: 0x10C }
  - { offset: 0x77524, size: 0x8, addend: 0x0, symName: __ZN4core5slice3raw18from_raw_parts_mut18precondition_check17h580868210055cde6E, symObjAddr: 0x10C, symBinAddr: 0x14F94, symSize: 0x10C }
  - { offset: 0x776B9, size: 0x8, addend: 0x0, symName: '__ZN11cortex_rust11cortex_rust11__pyo3_init28_$u7b$$u7b$closure$u7d$$u7d$17h4945280b1dbde90fE', symObjAddr: 0x0, symBinAddr: 0x150A0, symSize: 0x30 }
  - { offset: 0x78AB8, size: 0x8, addend: 0x0, symName: '__ZN11cortex_rust11cortex_rust11__pyo3_init28_$u7b$$u7b$closure$u7d$$u7d$17h4945280b1dbde90fE', symObjAddr: 0x0, symBinAddr: 0x150A0, symSize: 0x30 }
  - { offset: 0x793CF, size: 0x8, addend: 0x0, symName: '__ZN110_$LT$generic_array..GenericArray$LT$T$C$N$GT$$u20$as$u20$generic_array..sequence..GenericSequence$LT$T$GT$$GT$8generate17he199d8a2de0bb1f7E', symObjAddr: 0x0, symBinAddr: 0x150D0, symSize: 0x110 }
  - { offset: 0x793E6, size: 0x8, addend: 0x0, symName: '__ZN110_$LT$generic_array..GenericArray$LT$T$C$N$GT$$u20$as$u20$generic_array..sequence..GenericSequence$LT$T$GT$$GT$8generate17he199d8a2de0bb1f7E', symObjAddr: 0x0, symBinAddr: 0x150D0, symSize: 0x110 }
  - { offset: 0x79474, size: 0x8, addend: 0x0, symName: '__ZN110_$LT$generic_array..GenericArray$LT$T$C$N$GT$$u20$as$u20$generic_array..sequence..GenericSequence$LT$T$GT$$GT$8generate17hf971f43f96ab1f26E', symObjAddr: 0x110, symBinAddr: 0x151E0, symSize: 0x108 }
  - { offset: 0x79507, size: 0x8, addend: 0x0, symName: '__ZN110_$LT$generic_array..GenericArray$LT$T$C$N$GT$$u20$as$u20$generic_array..sequence..GenericSequence$LT$T$GT$$GT$8generate28_$u7b$$u7b$closure$u7d$$u7d$17h54a058e90fd13fd7E', symObjAddr: 0x218, symBinAddr: 0x152E8, symSize: 0x9C }
  - { offset: 0x79594, size: 0x8, addend: 0x0, symName: '__ZN110_$LT$generic_array..GenericArray$LT$T$C$N$GT$$u20$as$u20$generic_array..sequence..GenericSequence$LT$T$GT$$GT$8generate28_$u7b$$u7b$closure$u7d$$u7d$17hc40733ccfdcb6716E', symObjAddr: 0x2B4, symBinAddr: 0x15384, symSize: 0x9C }
  - { offset: 0x79E0E, size: 0x8, addend: 0x0, symName: '__ZN4core5slice29_$LT$impl$u20$$u5b$T$u5d$$GT$8is_empty17hea1d3798b046fc6bE', symObjAddr: 0x69C, symBinAddr: 0x1576C, symSize: 0x1C }
  - { offset: 0x7A0C2, size: 0x8, addend: 0x0, symName: '__ZN13generic_array25ArrayBuilder$LT$T$C$N$GT$10into_inner17h913d1e3b6597c2f5E', symObjAddr: 0x350, symBinAddr: 0x15420, symSize: 0xD4 }
  - { offset: 0x7A1C1, size: 0x8, addend: 0x0, symName: '__ZN13generic_array25ArrayBuilder$LT$T$C$N$GT$10into_inner17hf81c0e850ee2816aE', symObjAddr: 0x424, symBinAddr: 0x154F4, symSize: 0xE4 }
  - { offset: 0x7A316, size: 0x8, addend: 0x0, symName: '__ZN13generic_array25ArrayBuilder$LT$T$C$N$GT$13iter_position17h47cd3d9228db47a6E', symObjAddr: 0x508, symBinAddr: 0x155D8, symSize: 0x60 }
  - { offset: 0x7A381, size: 0x8, addend: 0x0, symName: '__ZN13generic_array25ArrayBuilder$LT$T$C$N$GT$13iter_position17h4a90af6af6b76f24E', symObjAddr: 0x568, symBinAddr: 0x15638, symSize: 0x60 }
  - { offset: 0x7A3D2, size: 0x8, addend: 0x0, symName: '__ZN13generic_array25ArrayBuilder$LT$T$C$N$GT$3new17h8888f09b913b0e14E', symObjAddr: 0x5C8, symBinAddr: 0x15698, symSize: 0x20 }
  - { offset: 0x7A3F8, size: 0x8, addend: 0x0, symName: '__ZN13generic_array25ArrayBuilder$LT$T$C$N$GT$3new17he1912e31767c00aeE', symObjAddr: 0x5E8, symBinAddr: 0x156B8, symSize: 0x38 }
  - { offset: 0x7A453, size: 0x8, addend: 0x0, symName: '__ZN32_$LT$T$u20$as$u20$hex..ToHex$GT$10encode_hex17h67742479a4936e3bE', symObjAddr: 0x620, symBinAddr: 0x156F0, symSize: 0x7C }
  - { offset: 0x7A62B, size: 0x8, addend: 0x0, symName: '__ZN4pyo311conversions3std3num63_$LT$impl$u20$pyo3..conversion..IntoPyObject$u20$for$u20$u8$GT$28owned_sequence_into_pyobject17h38c373f78a9020cfE', symObjAddr: 0x0, symBinAddr: 0x15788, symSize: 0x94 }
  - { offset: 0x7BAF7, size: 0x8, addend: 0x0, symName: '__ZN4pyo311conversions3std3num63_$LT$impl$u20$pyo3..conversion..IntoPyObject$u20$for$u20$u8$GT$28owned_sequence_into_pyobject17h38c373f78a9020cfE', symObjAddr: 0x0, symBinAddr: 0x15788, symSize: 0x94 }
  - { offset: 0x7C4FF, size: 0x8, addend: 0x0, symName: '__ZN86_$LT$sha2..core_api..Sha256VarCore$u20$as$u20$digest..core_api..VariableOutputCore$GT$22finalize_variable_core28_$u7b$$u7b$closure$u7d$$u7d$17h014279d4d24b1417E', symObjAddr: 0x0, symBinAddr: 0x1581C, symSize: 0x58 }
  - { offset: 0x7C520, size: 0x8, addend: 0x0, symName: '__ZN86_$LT$sha2..core_api..Sha256VarCore$u20$as$u20$digest..core_api..VariableOutputCore$GT$22finalize_variable_core28_$u7b$$u7b$closure$u7d$$u7d$17h014279d4d24b1417E', symObjAddr: 0x0, symBinAddr: 0x1581C, symSize: 0x58 }
  - { offset: 0x7C97F, size: 0x8, addend: 0x0, symName: '__ZN185_$LT$core..ops..control_flow..ControlFlow$LT$B$C$C$GT$$u20$as$u20$core..ops..try_trait..FromResidual$LT$core..ops..control_flow..ControlFlow$LT$B$C$core..convert..Infallible$GT$$GT$$GT$13from_residual17he26760c25990cae7E', symObjAddr: 0x0, symBinAddr: 0x15874, symSize: 0x48 }
  - { offset: 0x7D159, size: 0x8, addend: 0x0, symName: '__ZN185_$LT$core..ops..control_flow..ControlFlow$LT$B$C$C$GT$$u20$as$u20$core..ops..try_trait..FromResidual$LT$core..ops..control_flow..ControlFlow$LT$B$C$core..convert..Infallible$GT$$GT$$GT$13from_residual17he26760c25990cae7E', symObjAddr: 0x0, symBinAddr: 0x15874, symSize: 0x48 }
  - { offset: 0x7D19E, size: 0x8, addend: 0x0, symName: '__ZN95_$LT$core..ops..control_flow..ControlFlow$LT$B$C$C$GT$$u20$as$u20$core..ops..try_trait..Try$GT$11from_output17h43af5dfb9558304fE', symObjAddr: 0x48, symBinAddr: 0x158BC, symSize: 0x20 }
  - { offset: 0x7D1DC, size: 0x8, addend: 0x0, symName: '__ZN95_$LT$core..ops..control_flow..ControlFlow$LT$B$C$C$GT$$u20$as$u20$core..ops..try_trait..Try$GT$6branch17haae9a8dd56bcc2edE', symObjAddr: 0x68, symBinAddr: 0x158DC, symSize: 0x98 }
  - { offset: 0x7E75C, size: 0x8, addend: 0x0, symName: __ZN9hashbrown7control5group4neon5Group10match_full17h21cc72f0bf5288ebE, symObjAddr: 0x0, symBinAddr: 0x15974, symSize: 0x68 }
  - { offset: 0x7E874, size: 0x8, addend: 0x0, symName: __ZN9hashbrown7control5group4neon5Group10match_full17h21cc72f0bf5288ebE, symObjAddr: 0x0, symBinAddr: 0x15974, symSize: 0x68 }
  - { offset: 0x7E8AC, size: 0x8, addend: 0x0, symName: __ZN9hashbrown7control5group4neon5Group22match_empty_or_deleted17hf58bb336ebfe7de5E, symObjAddr: 0x68, symBinAddr: 0x159DC, symSize: 0x68 }
  - { offset: 0x7E8E4, size: 0x8, addend: 0x0, symName: __ZN9hashbrown7control5group4neon5Group44convert_special_to_empty_and_full_to_deleted17h63c765a360afa2a4E, symObjAddr: 0xD0, symBinAddr: 0x15A44, symSize: 0x88 }
  - { offset: 0x7E91C, size: 0x8, addend: 0x0, symName: __ZN9hashbrown7control5group4neon5Group9match_tag17h7cfada04f6659f44E, symObjAddr: 0x158, symBinAddr: 0x15ACC, symSize: 0x7C }
  - { offset: 0x7E988, size: 0x8, addend: 0x0, symName: __ZN4core4char7methods25encode_utf8_raw_unchecked17h67b40c2a9e8b9048E, symObjAddr: 0x0, symBinAddr: 0x15B48, symSize: 0x188 }
  - { offset: 0x7EA08, size: 0x8, addend: 0x0, symName: __ZN4core4char7methods25encode_utf8_raw_unchecked17h67b40c2a9e8b9048E, symObjAddr: 0x0, symBinAddr: 0x15B48, symSize: 0x188 }
  - { offset: 0x7EBF5, size: 0x8, addend: 0x0, symName: __ZN4pyo35impl_16extract_argument16extract_argument17h4b6329a0193946d0E, symObjAddr: 0x0, symBinAddr: 0x15CD0, symSize: 0x144 }
  - { offset: 0x807C2, size: 0x8, addend: 0x0, symName: __ZN4pyo35impl_16extract_argument16extract_argument17h4b6329a0193946d0E, symObjAddr: 0x0, symBinAddr: 0x15CD0, symSize: 0x144 }
  - { offset: 0x80848, size: 0x8, addend: 0x0, symName: __ZN4pyo35impl_16extract_argument16extract_argument17h562e45adc3180bd9E, symObjAddr: 0x144, symBinAddr: 0x15E14, symSize: 0x138 }
  - { offset: 0x808CD, size: 0x8, addend: 0x0, symName: __ZN4pyo35impl_16extract_argument16extract_argument17hcd2df112221a024dE, symObjAddr: 0x27C, symBinAddr: 0x15F4C, symSize: 0x150 }
  - { offset: 0x80952, size: 0x8, addend: 0x0, symName: __ZN4pyo35impl_16extract_argument16extract_argument17hd06f725dcc23b496E, symObjAddr: 0x3CC, symBinAddr: 0x1609C, symSize: 0x150 }
  - { offset: 0x809D7, size: 0x8, addend: 0x0, symName: __ZN4pyo35impl_16extract_argument16extract_argument17hdc40114c922e20fcE, symObjAddr: 0x51C, symBinAddr: 0x161EC, symSize: 0x140 }
  - { offset: 0x80B65, size: 0x8, addend: 0x0, symName: '__ZN4pyo35impl_16extract_argument19FunctionDescription26extract_arguments_fastcall28_$u7b$$u7b$closure$u7d$$u7d$17h3e80ef95211fe0d9E', symObjAddr: 0x13A0, symBinAddr: 0x17070, symSize: 0x24 }
  - { offset: 0x80BBD, size: 0x8, addend: 0x0, symName: '__ZN4pyo35impl_16extract_argument19FunctionDescription36find_keyword_parameter_in_positional28_$u7b$$u7b$closure$u7d$$u7d$17hd4d7695d0f286a49E', symObjAddr: 0x13C4, symBinAddr: 0x17094, symSize: 0x48 }
  - { offset: 0x80C1D, size: 0x8, addend: 0x0, symName: '__ZN4pyo35impl_16extract_argument19FunctionDescription38find_keyword_parameter_in_keyword_only28_$u7b$$u7b$closure$u7d$$u7d$17hd94f51254170137cE', symObjAddr: 0x140C, symBinAddr: 0x170DC, symSize: 0x38 }
  - { offset: 0x80C64, size: 0x8, addend: 0x0, symName: '__ZN71_$LT$T$u20$as$u20$pyo3..impl_..extract_argument..PyFunctionArgument$GT$7extract17h0dcb2ec903636231E', symObjAddr: 0x1444, symBinAddr: 0x17114, symSize: 0x28 }
  - { offset: 0x80CA3, size: 0x8, addend: 0x0, symName: '__ZN71_$LT$T$u20$as$u20$pyo3..impl_..extract_argument..PyFunctionArgument$GT$7extract17h1e0d878eb77b029aE', symObjAddr: 0x146C, symBinAddr: 0x1713C, symSize: 0x28 }
  - { offset: 0x80CE2, size: 0x8, addend: 0x0, symName: '__ZN71_$LT$T$u20$as$u20$pyo3..impl_..extract_argument..PyFunctionArgument$GT$7extract17h74da1edc9ca5ccd1E', symObjAddr: 0x1494, symBinAddr: 0x17164, symSize: 0x28 }
  - { offset: 0x81798, size: 0x8, addend: 0x0, symName: __ZN4pyo35impl_16extract_argument19FunctionDescription13handle_kwargs17h0e48a4088058e1bdE, symObjAddr: 0x65C, symBinAddr: 0x1632C, symSize: 0x70C }
  - { offset: 0x819B7, size: 0x8, addend: 0x0, symName: __ZN4pyo35impl_16extract_argument19FunctionDescription26extract_arguments_fastcall17hb5c641c07714a9e5E, symObjAddr: 0xD68, symBinAddr: 0x16A38, symSize: 0x638 }
  - { offset: 0x81F30, size: 0x8, addend: 0x0, symName: __ZN4core9core_arch10arm_shared4neon9generated18vreinterpret_s8_u817h9c2bdbf58c12aa84E, symObjAddr: 0x0, symBinAddr: 0x1718C, symSize: 0xC }
  - { offset: 0x81F56, size: 0x8, addend: 0x0, symName: __ZN4core9core_arch10arm_shared4neon9generated18vreinterpret_s8_u817h9c2bdbf58c12aa84E, symObjAddr: 0x0, symBinAddr: 0x1718C, symSize: 0xC }
  - { offset: 0x81F84, size: 0x8, addend: 0x0, symName: __ZN4core9core_arch10arm_shared4neon9generated19vreinterpret_u64_u817hc56c1a13a2a96057E, symObjAddr: 0xC, symBinAddr: 0x17198, symSize: 0xC }
  - { offset: 0x81FB2, size: 0x8, addend: 0x0, symName: __ZN4core9core_arch10arm_shared4neon9generated7vceq_u817h1a5692570980fa7eE, symObjAddr: 0x18, symBinAddr: 0x171A4, symSize: 0x14 }
  - { offset: 0x81FEF, size: 0x8, addend: 0x0, symName: __ZN4core9core_arch10arm_shared4neon9generated7vorr_u817h744af36e708660b6E, symObjAddr: 0x2C, symBinAddr: 0x171B8, symSize: 0x14 }
  - { offset: 0x8202C, size: 0x8, addend: 0x0, symName: __ZN4core9core_arch10arm_shared4neon9generated9vdup_n_u817h35cc11cfc5ccc3e2E, symObjAddr: 0x40, symBinAddr: 0x171CC, symSize: 0x2C }
  - { offset: 0x8219A, size: 0x8, addend: 0x0, symName: '__ZN100_$LT$core..iter..adapters..take..Take$LT$I$GT$$u20$as$u20$core..iter..traits..iterator..Iterator$GT$8try_fold17h08f343a550362741E', symObjAddr: 0x0, symBinAddr: 0x171F8, symSize: 0x100 }
  - { offset: 0x83850, size: 0x8, addend: 0x0, symName: '__ZN100_$LT$core..iter..adapters..take..Take$LT$I$GT$$u20$as$u20$core..iter..traits..iterator..Iterator$GT$8try_fold17h08f343a550362741E', symObjAddr: 0x0, symBinAddr: 0x171F8, symSize: 0x100 }
  - { offset: 0x83908, size: 0x8, addend: 0x0, symName: '__ZN100_$LT$core..iter..adapters..take..Take$LT$I$GT$$u20$as$u20$core..iter..traits..iterator..Iterator$GT$8try_fold17h92de0f843a09d64aE', symObjAddr: 0x100, symBinAddr: 0x172F8, symSize: 0x100 }
  - { offset: 0x839C0, size: 0x8, addend: 0x0, symName: '__ZN100_$LT$core..iter..adapters..take..Take$LT$I$GT$$u20$as$u20$core..iter..traits..iterator..Iterator$GT$8try_fold17hbe6d1a463ce486fdE', symObjAddr: 0x200, symBinAddr: 0x173F8, symSize: 0x100 }
  - { offset: 0x83A82, size: 0x8, addend: 0x0, symName: '__ZN100_$LT$core..iter..adapters..take..Take$LT$I$GT$$u20$as$u20$core..iter..traits..iterator..Iterator$GT$8try_fold5check28_$u7b$$u7b$closure$u7d$$u7d$17h56a23faf0a32e583E', symObjAddr: 0x300, symBinAddr: 0x174F8, symSize: 0x138 }
  - { offset: 0x83B62, size: 0x8, addend: 0x0, symName: '__ZN100_$LT$core..iter..adapters..take..Take$LT$I$GT$$u20$as$u20$core..iter..traits..iterator..Iterator$GT$8try_fold5check28_$u7b$$u7b$closure$u7d$$u7d$17he32652c24ca587e3E', symObjAddr: 0x438, symBinAddr: 0x17630, symSize: 0x138 }
  - { offset: 0x83C42, size: 0x8, addend: 0x0, symName: '__ZN100_$LT$core..iter..adapters..take..Take$LT$I$GT$$u20$as$u20$core..iter..traits..iterator..Iterator$GT$8try_fold5check28_$u7b$$u7b$closure$u7d$$u7d$17hf2d09675845df806E', symObjAddr: 0x570, symBinAddr: 0x17768, symSize: 0x138 }
  - { offset: 0x84C81, size: 0x8, addend: 0x0, symName: '__ZN4core3cmp5impls56_$LT$impl$u20$core..cmp..PartialEq$u20$for$u20$usize$GT$2eq17hf4c13dc54fe65e5fE', symObjAddr: 0x0, symBinAddr: 0x178A0, symSize: 0x2C }
  - { offset: 0x84CA2, size: 0x8, addend: 0x0, symName: '__ZN4core3cmp5impls56_$LT$impl$u20$core..cmp..PartialEq$u20$for$u20$usize$GT$2eq17hf4c13dc54fe65e5fE', symObjAddr: 0x0, symBinAddr: 0x178A0, symSize: 0x2C }
  - { offset: 0x84D1C, size: 0x8, addend: 0x0, symName: '__ZN62_$LT$digest..InvalidOutputSize$u20$as$u20$core..fmt..Debug$GT$3fmt17h6b9647838530ef37E', symObjAddr: 0x0, symBinAddr: 0x178CC, symSize: 0x40 }
  - { offset: 0x84D33, size: 0x8, addend: 0x0, symName: '__ZN62_$LT$digest..InvalidOutputSize$u20$as$u20$core..fmt..Debug$GT$3fmt17h6b9647838530ef37E', symObjAddr: 0x0, symBinAddr: 0x178CC, symSize: 0x40 }
  - { offset: 0x84F0C, size: 0x8, addend: 0x0, symName: '__ZN12block_buffer35BlockBuffer$LT$BlockSize$C$Kind$GT$13digest_blocks17h5bacb04e130c9ee6E', symObjAddr: 0x0, symBinAddr: 0x1790C, symSize: 0x604 }
  - { offset: 0x85115, size: 0x8, addend: 0x0, symName: '__ZN92_$LT$block_buffer..BlockBuffer$LT$BlockSize$C$Kind$GT$$u20$as$u20$core..default..Default$GT$7default17h8225b03d997d7e09E', symObjAddr: 0xB38, symBinAddr: 0x18444, symSize: 0x48 }
  - { offset: 0x8598B, size: 0x8, addend: 0x0, symName: '__ZN12block_buffer35BlockBuffer$LT$BlockSize$C$Kind$GT$13digest_blocks17h5bacb04e130c9ee6E', symObjAddr: 0x0, symBinAddr: 0x1790C, symSize: 0x604 }
  - { offset: 0x85E40, size: 0x8, addend: 0x0, symName: '__ZN12block_buffer50BlockBuffer$LT$BlockSize$C$block_buffer..Eager$GT$16len64_padding_be17hf6e1b90ab5251298E', symObjAddr: 0x604, symBinAddr: 0x17F10, symSize: 0x534 }
  - { offset: 0x86110, size: 0x8, addend: 0x0, symName: '__ZN3std11collections4hash3set16HashSet$LT$T$GT$3new17h20ea8a9291a305faE', symObjAddr: 0x0, symBinAddr: 0x1848C, symSize: 0x90 }
  - { offset: 0x86620, size: 0x8, addend: 0x0, symName: '__ZN3std11collections4hash3set16HashSet$LT$T$GT$3new17h20ea8a9291a305faE', symObjAddr: 0x0, symBinAddr: 0x1848C, symSize: 0x90 }
  - { offset: 0x86765, size: 0x8, addend: 0x0, symName: '__ZN3std11collections4hash3set24HashSet$LT$T$C$S$C$A$GT$6insert17ha5075599a7f251feE', symObjAddr: 0x90, symBinAddr: 0x1851C, symSize: 0x38 }
  - { offset: 0x8686E, size: 0x8, addend: 0x0, symName: '__ZN3std11collections4hash3set24HashSet$LT$T$C$S$C$A$GT$8contains17h315ed56170e0f0f5E', symObjAddr: 0xC8, symBinAddr: 0x18554, symSize: 0x28 }
  - { offset: 0x86907, size: 0x8, addend: 0x0, symName: __ZN3hex15BytesToHexChars3new17h83ea934ea6ce9bbeE, symObjAddr: 0x0, symBinAddr: 0x18590, symSize: 0x50 }
  - { offset: 0x8697D, size: 0x8, addend: 0x0, symName: '__ZN79_$LT$hex..BytesToHexChars$u20$as$u20$core..iter..traits..iterator..Iterator$GT$4next28_$u7b$$u7b$closure$u7d$$u7d$17h612cb20b9b73d263E', symObjAddr: 0x9C4, symBinAddr: 0x188DC, symSize: 0xF4 }
  - { offset: 0x869CF, size: 0x8, addend: 0x0, symName: '__ZN79_$LT$hex..BytesToHexChars$u20$as$u20$core..iter..traits..iterator..Iterator$GT$4next17h4ccb8021648297adE', symObjAddr: 0x950, symBinAddr: 0x18868, symSize: 0x74 }
  - { offset: 0x86A18, size: 0x8, addend: 0x0, symName: '__ZN79_$LT$hex..BytesToHexChars$u20$as$u20$core..iter..traits..iterator..Iterator$GT$9size_hint17h5f13f84607c1247fE', symObjAddr: 0xAB8, symBinAddr: 0x189D0, symSize: 0x40 }
  - { offset: 0x86A67, size: 0x8, addend: 0x0, symName: '__ZN90_$LT$hex..BytesToHexChars$u20$as$u20$core..iter..traits..exact_size..ExactSizeIterator$GT$3len17h4eb4190bad6b9ea1E', symObjAddr: 0xAF8, symBinAddr: 0x18A10, symSize: 0xF4 }
  - { offset: 0x86C4E, size: 0x8, addend: 0x0, symName: '__ZN91_$LT$core..slice..iter..Iter$LT$T$GT$$u20$as$u20$core..iter..traits..iterator..Iterator$GT$4next17h584a51061e46d651E', symObjAddr: 0xBEC, symBinAddr: 0x18B04, symSize: 0x84 }
  - { offset: 0x86D0B, size: 0x8, addend: 0x0, symName: '__ZN4core5slice29_$LT$impl$u20$$u5b$T$u5d$$GT$4iter17h5e5eaf0d6e7fe0ceE', symObjAddr: 0x564, symBinAddr: 0x186C8, symSize: 0x28 }
  - { offset: 0x86E43, size: 0x8, addend: 0x0, symName: '__ZN4core3ptr9const_ptr33_$LT$impl$u20$$BP$const$u20$T$GT$13is_aligned_to17h1b2d08db31fb5e70E', symObjAddr: 0x47C, symBinAddr: 0x185E0, symSize: 0x88 }
  - { offset: 0x86ECA, size: 0x8, addend: 0x0, symName: '__ZN4core3ptr9const_ptr33_$LT$impl$u20$$BP$const$u20$T$GT$20offset_from_unsigned18precondition_check17he835e29df29f6c85E', symObjAddr: 0x504, symBinAddr: 0x18668, symSize: 0x60 }
  - { offset: 0x87286, size: 0x8, addend: 0x0, symName: '__ZN57_$LT$$RF$u8$u20$as$u20$core..ops..bit..Shr$LT$i32$GT$$GT$3shr17h84aa4aa556429cd0E', symObjAddr: 0x794, symBinAddr: 0x187EC, symSize: 0x5C }
  - { offset: 0x872F9, size: 0x8, addend: 0x0, symName: '__ZN59_$LT$$RF$u8$u20$as$u20$core..ops..bit..BitAnd$LT$u8$GT$$GT$6bitand17h2c8f3cd7e8f12c31E', symObjAddr: 0x7F0, symBinAddr: 0x18848, symSize: 0x20 }
  - { offset: 0x873C9, size: 0x8, addend: 0x0, symName: __ZN3hex15BytesToHexChars3new17h83ea934ea6ce9bbeE, symObjAddr: 0x0, symBinAddr: 0x18590, symSize: 0x50 }
  - { offset: 0x874C8, size: 0x8, addend: 0x0, symName: '__ZN4core5slice4iter13Iter$LT$T$GT$3new17h88b9d29a944bf2caE', symObjAddr: 0x698, symBinAddr: 0x186F0, symSize: 0x50 }
  - { offset: 0x875E3, size: 0x8, addend: 0x0, symName: '__ZN4core6option15Option$LT$T$GT$3map17h99228ff0a3f7c975E', symObjAddr: 0x6E8, symBinAddr: 0x18740, symSize: 0x60 }
  - { offset: 0x8765B, size: 0x8, addend: 0x0, symName: '__ZN4core6option15Option$LT$T$GT$4take17heec3bbe7d97acfe3E', symObjAddr: 0x748, symBinAddr: 0x187A0, symSize: 0x24 }
  - { offset: 0x876B2, size: 0x8, addend: 0x0, symName: '__ZN4core6option15Option$LT$T$GT$7is_some17h302a0de18dbc2d21E', symObjAddr: 0x76C, symBinAddr: 0x187C4, symSize: 0x28 }
  - { offset: 0x8782E, size: 0x8, addend: 0x0, symName: '__ZN4core5array98_$LT$impl$u20$core..convert..TryFrom$LT$$RF$$u5b$T$u5d$$GT$$u20$for$u20$$u5b$T$u3b$$u20$N$u5d$$GT$8try_from17h71adfafbd53667f7E', symObjAddr: 0x870, symBinAddr: 0x18F18, symSize: 0x8C }
  - { offset: 0x879AE, size: 0x8, addend: 0x0, symName: '__ZN67_$LT$core..array..TryFromSliceError$u20$as$u20$core..fmt..Debug$GT$3fmt17hc765af0dca4c9179E', symObjAddr: 0x7400, symBinAddr: 0x1B984, symSize: 0x54 }
  - { offset: 0x879FE, size: 0x8, addend: 0x0, symName: '__ZN102_$LT$core..iter..adapters..zip..Zip$LT$A$C$B$GT$$u20$as$u20$core..iter..traits..iterator..Iterator$GT$4next17hf9f79c2bee9dd908E', symObjAddr: 0x24, symBinAddr: 0x18B88, symSize: 0x24 }
  - { offset: 0x87A42, size: 0x8, addend: 0x0, symName: '__ZN111_$LT$core..iter..adapters..zip..Zip$LT$A$C$B$GT$$u20$as$u20$core..iter..adapters..zip..ZipImpl$LT$A$C$B$GT$$GT$3new17hc6ab4b57c0c6f125E', symObjAddr: 0x134, symBinAddr: 0x18BAC, symSize: 0xEC }
  - { offset: 0x87AD7, size: 0x8, addend: 0x0, symName: '__ZN111_$LT$core..iter..adapters..zip..Zip$LT$A$C$B$GT$$u20$as$u20$core..iter..adapters..zip..ZipImpl$LT$A$C$B$GT$$GT$4next17h9fd69e20dcb0dd89E', symObjAddr: 0x220, symBinAddr: 0x18C98, symSize: 0xD0 }
  - { offset: 0x87BAA, size: 0x8, addend: 0x0, symName: __ZN4core4iter8adapters3zip27TrustedRandomAccessNoCoerce4size17h040f4f325ecda5aeE, symObjAddr: 0x794, symBinAddr: 0x18EEC, symSize: 0x2C }
  - { offset: 0x87BF3, size: 0x8, addend: 0x0, symName: __ZN4core4iter6traits8iterator8Iterator3zip17hc1db7bad4f165bb2E, symObjAddr: 0x6F8, symBinAddr: 0x18E50, symSize: 0x9C }
  - { offset: 0x87C75, size: 0x8, addend: 0x0, symName: '__ZN63_$LT$I$u20$as$u20$core..iter..traits..collect..IntoIterator$GT$9into_iter17h4ab62e68598b7c76E', symObjAddr: 0x7278, symBinAddr: 0x1B924, symSize: 0x30 }
  - { offset: 0x87CAD, size: 0x8, addend: 0x0, symName: '__ZN63_$LT$I$u20$as$u20$core..iter..traits..collect..IntoIterator$GT$9into_iter17h9d134c23f40e6e5eE', symObjAddr: 0x72A8, symBinAddr: 0x1B954, symSize: 0x30 }
  - { offset: 0x87D5C, size: 0x8, addend: 0x0, symName: __ZN4core3cmp3Ord3min17hb633034905753626E, symObjAddr: 0x530, symBinAddr: 0x18DB0, symSize: 0x74 }
  - { offset: 0x87DD1, size: 0x8, addend: 0x0, symName: __ZN4core10intrinsics12rotate_right17h833fdc03cd288eabE, symObjAddr: 0x410, symBinAddr: 0x18D68, symSize: 0x48 }
  - { offset: 0x87E7C, size: 0x8, addend: 0x0, symName: '__ZN4core3num21_$LT$impl$u20$u32$GT$13from_be_bytes17h07fd8e5290cc6d87E', symObjAddr: 0x5A4, symBinAddr: 0x18E24, symSize: 0x2C }
  - { offset: 0x88334, size: 0x8, addend: 0x0, symName: '__ZN4core5slice4iter87_$LT$impl$u20$core..iter..traits..collect..IntoIterator$u20$for$u20$$RF$$u5b$T$u5d$$GT$9into_iter17h9fe3d596d080865eE', symObjAddr: 0xE38, symBinAddr: 0x193BC, symSize: 0x50 }
  - { offset: 0x884CB, size: 0x8, addend: 0x0, symName: '__ZN91_$LT$core..slice..iter..Iter$LT$T$GT$$u20$as$u20$core..iter..traits..iterator..Iterator$GT$4next17h4dac209e275ee140E', symObjAddr: 0x74D8, symBinAddr: 0x1B9D8, symSize: 0x84 }
  - { offset: 0x88587, size: 0x8, addend: 0x0, symName: '__ZN94_$LT$core..slice..iter..IterMut$LT$T$GT$$u20$as$u20$core..iter..traits..iterator..Iterator$GT$24__iterator_get_unchecked17h2cc7155f7581e30dE', symObjAddr: 0x755C, symBinAddr: 0x1BA5C, symSize: 0x20 }
  - { offset: 0x885E8, size: 0x8, addend: 0x0, symName: '__ZN98_$LT$core..slice..iter..ChunksExact$LT$T$GT$$u20$as$u20$core..iter..traits..iterator..Iterator$GT$24__iterator_get_unchecked17hf1199555ae122990E', symObjAddr: 0x7650, symBinAddr: 0x1BA7C, symSize: 0xA0 }
  - { offset: 0x886A6, size: 0x8, addend: 0x0, symName: '__ZN98_$LT$core..slice..iter..ChunksExact$LT$T$GT$$u20$as$u20$core..iter..traits..iterator..Iterator$GT$9size_hint17h8013392ef1690407E', symObjAddr: 0x76F0, symBinAddr: 0x1BB1C, symSize: 0x6C }
  - { offset: 0x8876E, size: 0x8, addend: 0x0, symName: '__ZN4core5slice29_$LT$impl$u20$$u5b$T$u5d$$GT$12chunks_exact17h799652e81a194ed0E', symObjAddr: 0x8FC, symBinAddr: 0x18FA4, symSize: 0xF0 }
  - { offset: 0x88853, size: 0x8, addend: 0x0, symName: '__ZN4core5slice29_$LT$impl$u20$$u5b$T$u5d$$GT$18split_at_unchecked17h16325ed37fbb9883E', symObjAddr: 0x9EC, symBinAddr: 0x19094, symSize: 0xE8 }
  - { offset: 0x8896A, size: 0x8, addend: 0x0, symName: '__ZN4core5slice29_$LT$impl$u20$$u5b$T$u5d$$GT$18split_at_unchecked18precondition_check17h048d0742b4a5324eE', symObjAddr: 0xAD4, symBinAddr: 0x1917C, symSize: 0x60 }
  - { offset: 0x889BE, size: 0x8, addend: 0x0, symName: '__ZN4core5slice29_$LT$impl$u20$$u5b$T$u5d$$GT$8iter_mut17h8ebd6fde79b4ede7E', symObjAddr: 0xB5C, symBinAddr: 0x191DC, symSize: 0x28 }
  - { offset: 0x88A79, size: 0x8, addend: 0x0, symName: __ZN4core5slice3raw14from_raw_parts17hb4158b28597f0b78E, symObjAddr: 0xBE0, symBinAddr: 0x19204, symSize: 0x5C }
  - { offset: 0x88AC1, size: 0x8, addend: 0x0, symName: __ZN4core5slice3raw14from_raw_parts18precondition_check17h45da02ae309c82bfE, symObjAddr: 0xC3C, symBinAddr: 0x19260, symSize: 0x10C }
  - { offset: 0x890FE, size: 0x8, addend: 0x0, symName: '__ZN53_$LT$T$u20$as$u20$core..convert..TryInto$LT$U$GT$$GT$8try_into17h89fbecc45dfc65fcE', symObjAddr: 0x7220, symBinAddr: 0x1B8CC, symSize: 0x58 }
  - { offset: 0x89406, size: 0x8, addend: 0x0, symName: '__ZN4core5slice4iter16IterMut$LT$T$GT$3new17hc92f972d7bf42fcaE', symObjAddr: 0xD98, symBinAddr: 0x1936C, symSize: 0x50 }
  - { offset: 0x8962D, size: 0x8, addend: 0x0, symName: __ZN4sha26sha25611compress25617h1cc121b23dc65e22E, symObjAddr: 0xE88, symBinAddr: 0x1940C, symSize: 0x7C }
  - { offset: 0x896A2, size: 0x8, addend: 0x0, symName: __ZN4sha26sha2564soft10sha256load17h22faa0d943eccd61E, symObjAddr: 0xF04, symBinAddr: 0x19488, symSize: 0x28 }
  - { offset: 0x89703, size: 0x8, addend: 0x0, symName: __ZN4sha26sha2564soft10sha256msg117h4d084f5ba9e1e4efE, symObjAddr: 0xF2C, symBinAddr: 0x194B0, symSize: 0xC0 }
  - { offset: 0x89899, size: 0x8, addend: 0x0, symName: __ZN4sha26sha2564soft10sha256msg18sigma0x417h393e0882fabc268eE, symObjAddr: 0xFEC, symBinAddr: 0x19570, symSize: 0x270 }
  - { offset: 0x89A7B, size: 0x8, addend: 0x0, symName: __ZN4sha26sha2564soft10sha256msg217ha746a02c62f072d1E, symObjAddr: 0x125C, symBinAddr: 0x197E0, symSize: 0x1F0 }
  - { offset: 0x89D6F, size: 0x8, addend: 0x0, symName: __ZN4sha26sha2564soft10sha256swap17h427ea37c36517b48E, symObjAddr: 0x144C, symBinAddr: 0x199D0, symSize: 0x28 }
  - { offset: 0x89D9B, size: 0x8, addend: 0x0, symName: __ZN4sha26sha2564soft22sha256_digest_round_x217h544f94be91bbf1a5E, symObjAddr: 0x1474, symBinAddr: 0x199F8, symSize: 0x44C }
  - { offset: 0x8A3A0, size: 0x8, addend: 0x0, symName: __ZN4sha26sha2564soft23sha256_digest_block_u3217h21dd20f4842fe897E, symObjAddr: 0x18C0, symBinAddr: 0x19E44, symSize: 0x1700 }
  - { offset: 0x8B660, size: 0x8, addend: 0x0, symName: __ZN4sha26sha2564soft8compress17h043701c6a1702664E, symObjAddr: 0x2FC0, symBinAddr: 0x1B544, symSize: 0x280 }
  - { offset: 0x8B76B, size: 0x8, addend: 0x0, symName: __ZN4sha26sha2564soft8schedule17h916d6aa6304a2311E, symObjAddr: 0x3240, symBinAddr: 0x1B7C4, symSize: 0x108 }
  - { offset: 0x8C0A0, size: 0x8, addend: 0x0, symName: '__ZN106_$LT$core..ops..range..Range$LT$usize$GT$$u20$as$u20$core..slice..index..SliceIndex$LT$$u5b$T$u5d$$GT$$GT$9index_mut17h6506cd278d9a2806E', symObjAddr: 0x98, symBinAddr: 0x1BB88, symSize: 0xBC }
  - { offset: 0x8C151, size: 0x8, addend: 0x0, symName: '__ZN108_$LT$core..ops..range..RangeTo$LT$usize$GT$$u20$as$u20$core..slice..index..SliceIndex$LT$$u5b$T$u5d$$GT$$GT$9index_mut17hd180b0a90ece4b8cE', symObjAddr: 0x154, symBinAddr: 0x1BC44, symSize: 0x54 }
  - { offset: 0x8C1EC, size: 0x8, addend: 0x0, symName: '__ZN4core5slice29_$LT$impl$u20$$u5b$T$u5d$$GT$15copy_from_slice17hf1b11790f9f86516E', symObjAddr: 0x109C, symBinAddr: 0x1BF34, symSize: 0x34 }
  - { offset: 0x8C22F, size: 0x8, addend: 0x0, symName: __ZN4core5slice20copy_from_slice_impl17hbb1f375b45c86396E, symObjAddr: 0xFF0, symBinAddr: 0x1BE88, symSize: 0xAC }
  - { offset: 0x8C356, size: 0x8, addend: 0x0, symName: __ZN4core3ptr19copy_nonoverlapping18precondition_check17he4c62a5f2dd5f4acE, symObjAddr: 0x964, symBinAddr: 0x1BC98, symSize: 0x168 }
  - { offset: 0x8C515, size: 0x8, addend: 0x0, symName: '__ZN4core3ptr9const_ptr33_$LT$impl$u20$$BP$const$u20$T$GT$13is_aligned_to17h9060dde101a4e333E', symObjAddr: 0xACC, symBinAddr: 0x1BE00, symSize: 0x88 }
  - { offset: 0x8C6CA, size: 0x8, addend: 0x0, symName: __ZN4core9ub_checks23maybe_is_nonoverlapping7runtime17hd1fa14106880eb48E, symObjAddr: 0x1440, symBinAddr: 0x1BF68, symSize: 0xD8 }
  - { offset: 0x8C9A0, size: 0x8, addend: 0x0, symName: '__ZN4core3ptr9const_ptr33_$LT$impl$u20$$BP$const$u20$T$GT$13is_aligned_to17hf55aa22e9a9e6e21E', symObjAddr: 0x280, symBinAddr: 0x1C040, symSize: 0x88 }
  - { offset: 0x8CCD9, size: 0x8, addend: 0x0, symName: '__ZN4core3num23_$LT$impl$u20$usize$GT$13unchecked_add18precondition_check17h1dc8bfdf5192a450E', symObjAddr: 0x288, symBinAddr: 0x1C118, symSize: 0x64 }
  - { offset: 0x8CDBF, size: 0x8, addend: 0x0, symName: '__ZN49_$LT$usize$u20$as$u20$core..iter..range..Step$GT$17forward_unchecked17h367e652be531e2fdE', symObjAddr: 0x150, symBinAddr: 0x1C0C8, symSize: 0x50 }
  - { offset: 0x8CE24, size: 0x8, addend: 0x0, symName: '__ZN4core4iter5range101_$LT$impl$u20$core..iter..traits..iterator..Iterator$u20$for$u20$core..ops..range..Range$LT$A$GT$$GT$4next17h75a80d18a2512d07E', symObjAddr: 0x934, symBinAddr: 0x1C17C, symSize: 0x24 }
  - { offset: 0x8CE61, size: 0x8, addend: 0x0, symName: '__ZN89_$LT$core..ops..range..Range$LT$T$GT$$u20$as$u20$core..iter..range..RangeIteratorImpl$GT$9spec_next17h2669b21ad4ee1546E', symObjAddr: 0x1174, symBinAddr: 0x1C24C, symSize: 0x94 }
  - { offset: 0x8CEED, size: 0x8, addend: 0x0, symName: '__ZN63_$LT$I$u20$as$u20$core..iter..traits..collect..IntoIterator$GT$9into_iter17h29d20013761833b9E', symObjAddr: 0xCF0, symBinAddr: 0x1C218, symSize: 0x14 }
  - { offset: 0x8CFE6, size: 0x8, addend: 0x0, symName: '__ZN4core5slice29_$LT$impl$u20$$u5b$T$u5d$$GT$8iter_mut17h3b334c7bba6edec5E', symObjAddr: 0x9F8, symBinAddr: 0x1C1A0, symSize: 0x28 }
  - { offset: 0x8D07C, size: 0x8, addend: 0x0, symName: '__ZN94_$LT$core..slice..iter..IterMut$LT$T$GT$$u20$as$u20$core..iter..traits..iterator..Iterator$GT$4next17h1aaea876448f1353E', symObjAddr: 0x1330, symBinAddr: 0x1C2E0, symSize: 0x84 }
  - { offset: 0x8D3F7, size: 0x8, addend: 0x0, symName: '__ZN4core5slice4iter16IterMut$LT$T$GT$3new17h8bb1ddcc169a5e37E', symObjAddr: 0xB2C, symBinAddr: 0x1C1C8, symSize: 0x50 }
  - { offset: 0x8D717, size: 0x8, addend: 0x0, symName: '__ZN75_$LT$alloc..vec..Vec$LT$T$C$A$GT$$u20$as$u20$core..ops..deref..DerefMut$GT$9deref_mut17h49444ce844ddaa31E', symObjAddr: 0xE54, symBinAddr: 0x1C22C, symSize: 0x20 }
  - { offset: 0x8DF14, size: 0x8, addend: 0x0, symName: '__ZN42_$LT$$RF$T$u20$as$u20$core..fmt..Debug$GT$3fmt17h26771ee2f55fd1a7E', symObjAddr: 0x7634, symBinAddr: 0x1DD60, symSize: 0x30 }
  - { offset: 0x8DF60, size: 0x8, addend: 0x0, symName: '__ZN44_$LT$$RF$T$u20$as$u20$core..fmt..Display$GT$3fmt17h4f40148da105ec6eE', symObjAddr: 0x7664, symBinAddr: 0x1DD90, symSize: 0x30 }
  - { offset: 0x8DFA6, size: 0x8, addend: 0x0, symName: '__ZN44_$LT$$RF$T$u20$as$u20$core..fmt..Display$GT$3fmt17hb975f64faa08c0c1E', symObjAddr: 0x7694, symBinAddr: 0x1DDC0, symSize: 0x30 }
  - { offset: 0x8E1AC, size: 0x8, addend: 0x0, symName: '__ZN4core5array4iter94_$LT$impl$u20$core..iter..traits..collect..IntoIterator$u20$for$u20$$u5b$T$u3b$$u20$N$u5d$$GT$9into_iter17h09afffd775a5c8f7E', symObjAddr: 0x78A8, symBinAddr: 0x1DE2C, symSize: 0x58 }
  - { offset: 0x8E21E, size: 0x8, addend: 0x0, symName: '__ZN4core5array4iter94_$LT$impl$u20$core..iter..traits..collect..IntoIterator$u20$for$u20$$u5b$T$u3b$$u20$N$u5d$$GT$9into_iter17hdf664110eb201008E', symObjAddr: 0x7900, symBinAddr: 0x1DE84, symSize: 0x68 }
  - { offset: 0x905E0, size: 0x8, addend: 0x0, symName: '__ZN50_$LT$T$u20$as$u20$core..convert..Into$LT$U$GT$$GT$4into17h2627ae649f79f3d1E', symObjAddr: 0xDC14, symBinAddr: 0x207D0, symSize: 0x24 }
  - { offset: 0x90620, size: 0x8, addend: 0x0, symName: '__ZN50_$LT$T$u20$as$u20$core..convert..Into$LT$U$GT$$GT$4into17h3461f981826b6c58E', symObjAddr: 0xDC38, symBinAddr: 0x207F4, symSize: 0x24 }
  - { offset: 0x90660, size: 0x8, addend: 0x0, symName: '__ZN50_$LT$T$u20$as$u20$core..convert..Into$LT$U$GT$$GT$4into17hb11cd7a3ade9645fE', symObjAddr: 0xDCA4, symBinAddr: 0x20818, symSize: 0x24 }
  - { offset: 0x906A0, size: 0x8, addend: 0x0, symName: '__ZN50_$LT$T$u20$as$u20$core..convert..Into$LT$U$GT$$GT$4into17hddae8ce2d5e1a431E', symObjAddr: 0xDCEC, symBinAddr: 0x2083C, symSize: 0x24 }
  - { offset: 0x90F43, size: 0x8, addend: 0x0, symName: '__ZN103_$LT$pyo3..instance..Bound$LT$pyo3..types..any..PyAny$GT$$u20$as$u20$pyo3..types..any..PyAnyMethods$GT$13downcast_into17h5a4fb9ca79874424E', symObjAddr: 0x5DC, symBinAddr: 0x1C364, symSize: 0xE8 }
  - { offset: 0x90F7A, size: 0x8, addend: 0x0, symName: '__ZN103_$LT$pyo3..instance..Bound$LT$pyo3..types..any..PyAny$GT$$u20$as$u20$pyo3..types..any..PyAnyMethods$GT$13downcast_into17h6d650e2edb3ba0edE', symObjAddr: 0x6C4, symBinAddr: 0x1C44C, symSize: 0xE8 }
  - { offset: 0x90FB1, size: 0x8, addend: 0x0, symName: '__ZN103_$LT$pyo3..instance..Bound$LT$pyo3..types..any..PyAny$GT$$u20$as$u20$pyo3..types..any..PyAnyMethods$GT$13downcast_into17hbbe54bf36b18cd9bE', symObjAddr: 0x894, symBinAddr: 0x1C534, symSize: 0xE8 }
  - { offset: 0x90FE8, size: 0x8, addend: 0x0, symName: '__ZN103_$LT$pyo3..instance..Bound$LT$pyo3..types..any..PyAny$GT$$u20$as$u20$pyo3..types..any..PyAnyMethods$GT$18downcast_unchecked17h4701e0d6d27f42acE', symObjAddr: 0xA74, symBinAddr: 0x1C61C, symSize: 0x74 }
  - { offset: 0x9101F, size: 0x8, addend: 0x0, symName: '__ZN103_$LT$pyo3..instance..Bound$LT$pyo3..types..any..PyAny$GT$$u20$as$u20$pyo3..types..any..PyAnyMethods$GT$18downcast_unchecked17h5d34913016c95678E', symObjAddr: 0xAE8, symBinAddr: 0x1C690, symSize: 0x74 }
  - { offset: 0x91056, size: 0x8, addend: 0x0, symName: '__ZN103_$LT$pyo3..instance..Bound$LT$pyo3..types..any..PyAny$GT$$u20$as$u20$pyo3..types..any..PyAnyMethods$GT$18downcast_unchecked17hc746656525674b1fE', symObjAddr: 0xDA0, symBinAddr: 0x1C704, symSize: 0x74 }
  - { offset: 0x9108D, size: 0x8, addend: 0x0, symName: '__ZN103_$LT$pyo3..instance..Bound$LT$pyo3..types..any..PyAny$GT$$u20$as$u20$pyo3..types..any..PyAnyMethods$GT$23downcast_into_unchecked17h0303997f8cc6f9d3E', symObjAddr: 0xEAC, symBinAddr: 0x1C778, symSize: 0x14 }
  - { offset: 0x910C4, size: 0x8, addend: 0x0, symName: '__ZN103_$LT$pyo3..instance..Bound$LT$pyo3..types..any..PyAny$GT$$u20$as$u20$pyo3..types..any..PyAnyMethods$GT$23downcast_into_unchecked17h2954f681fa2e929eE', symObjAddr: 0xEE8, symBinAddr: 0x1C78C, symSize: 0x14 }
  - { offset: 0x910FB, size: 0x8, addend: 0x0, symName: '__ZN103_$LT$pyo3..instance..Bound$LT$pyo3..types..any..PyAny$GT$$u20$as$u20$pyo3..types..any..PyAnyMethods$GT$23downcast_into_unchecked17h53099e7b25f61e36E', symObjAddr: 0xF60, symBinAddr: 0x1C7A0, symSize: 0x14 }
  - { offset: 0x91132, size: 0x8, addend: 0x0, symName: '__ZN103_$LT$pyo3..instance..Bound$LT$pyo3..types..any..PyAny$GT$$u20$as$u20$pyo3..types..any..PyAnyMethods$GT$23downcast_into_unchecked17h64787258f878036eE', symObjAddr: 0xF9C, symBinAddr: 0x1C7B4, symSize: 0x14 }
  - { offset: 0x91169, size: 0x8, addend: 0x0, symName: '__ZN103_$LT$pyo3..instance..Bound$LT$pyo3..types..any..PyAny$GT$$u20$as$u20$pyo3..types..any..PyAnyMethods$GT$23downcast_into_unchecked17h73917282aa6ac9eeE', symObjAddr: 0xFB0, symBinAddr: 0x1C7C8, symSize: 0x14 }
  - { offset: 0x911A0, size: 0x8, addend: 0x0, symName: '__ZN103_$LT$pyo3..instance..Bound$LT$pyo3..types..any..PyAny$GT$$u20$as$u20$pyo3..types..any..PyAnyMethods$GT$23downcast_into_unchecked17h7f278cb5baf89b9fE', symObjAddr: 0xFD8, symBinAddr: 0x1C7DC, symSize: 0x14 }
  - { offset: 0x911D7, size: 0x8, addend: 0x0, symName: '__ZN103_$LT$pyo3..instance..Bound$LT$pyo3..types..any..PyAny$GT$$u20$as$u20$pyo3..types..any..PyAnyMethods$GT$23downcast_into_unchecked17h85c3bbf6b2071bc3E', symObjAddr: 0xFEC, symBinAddr: 0x1C7F0, symSize: 0x14 }
  - { offset: 0x9120E, size: 0x8, addend: 0x0, symName: '__ZN103_$LT$pyo3..instance..Bound$LT$pyo3..types..any..PyAny$GT$$u20$as$u20$pyo3..types..any..PyAnyMethods$GT$23downcast_into_unchecked17h94498bcedb2fbbaaE', symObjAddr: 0x1028, symBinAddr: 0x1C804, symSize: 0x14 }
  - { offset: 0x91245, size: 0x8, addend: 0x0, symName: '__ZN103_$LT$pyo3..instance..Bound$LT$pyo3..types..any..PyAny$GT$$u20$as$u20$pyo3..types..any..PyAnyMethods$GT$23downcast_into_unchecked17hb38f3dd9ba3a7dd7E', symObjAddr: 0x1064, symBinAddr: 0x1C818, symSize: 0x14 }
  - { offset: 0x9127C, size: 0x8, addend: 0x0, symName: '__ZN103_$LT$pyo3..instance..Bound$LT$pyo3..types..any..PyAny$GT$$u20$as$u20$pyo3..types..any..PyAnyMethods$GT$23downcast_into_unchecked17hbce616857c2771ccE', symObjAddr: 0x10A0, symBinAddr: 0x1C82C, symSize: 0x14 }
  - { offset: 0x912B3, size: 0x8, addend: 0x0, symName: '__ZN103_$LT$pyo3..instance..Bound$LT$pyo3..types..any..PyAny$GT$$u20$as$u20$pyo3..types..any..PyAnyMethods$GT$23downcast_into_unchecked17hfe579356532adb88E', symObjAddr: 0x1118, symBinAddr: 0x1C840, symSize: 0x14 }
  - { offset: 0x912EA, size: 0x8, addend: 0x0, symName: '__ZN103_$LT$pyo3..instance..Bound$LT$pyo3..types..any..PyAny$GT$$u20$as$u20$pyo3..types..any..PyAnyMethods$GT$2is17hca2677fc99512602E', symObjAddr: 0x112C, symBinAddr: 0x1C854, symSize: 0x4C }
  - { offset: 0x91330, size: 0x8, addend: 0x0, symName: '__ZN103_$LT$pyo3..instance..Bound$LT$pyo3..types..any..PyAny$GT$$u20$as$u20$pyo3..types..any..PyAnyMethods$GT$3str17hd37826747f853163E', symObjAddr: 0x1994, symBinAddr: 0x1C8A0, symSize: 0x5C }
  - { offset: 0x9135E, size: 0x8, addend: 0x0, symName: '__ZN103_$LT$pyo3..instance..Bound$LT$pyo3..types..any..PyAny$GT$$u20$as$u20$pyo3..types..any..PyAnyMethods$GT$4repr17h13b4d2685deeffc1E', symObjAddr: 0x2320, symBinAddr: 0x1C8FC, symSize: 0x5C }
  - { offset: 0x9138C, size: 0x8, addend: 0x0, symName: '__ZN103_$LT$pyo3..instance..Bound$LT$pyo3..types..any..PyAny$GT$$u20$as$u20$pyo3..types..any..PyAnyMethods$GT$7extract17h2575b5c62661dc1bE', symObjAddr: 0x2514, symBinAddr: 0x1C958, symSize: 0x30 }
  - { offset: 0x913C3, size: 0x8, addend: 0x0, symName: '__ZN103_$LT$pyo3..instance..Bound$LT$pyo3..types..any..PyAny$GT$$u20$as$u20$pyo3..types..any..PyAnyMethods$GT$7extract17h47945629b53f0352E', symObjAddr: 0x25D4, symBinAddr: 0x1C988, symSize: 0x30 }
  - { offset: 0x913FA, size: 0x8, addend: 0x0, symName: '__ZN103_$LT$pyo3..instance..Bound$LT$pyo3..types..any..PyAny$GT$$u20$as$u20$pyo3..types..any..PyAnyMethods$GT$7extract17h4c79b10b962b9a45E', symObjAddr: 0x2604, symBinAddr: 0x1C9B8, symSize: 0x30 }
  - { offset: 0x91431, size: 0x8, addend: 0x0, symName: '__ZN103_$LT$pyo3..instance..Bound$LT$pyo3..types..any..PyAny$GT$$u20$as$u20$pyo3..types..any..PyAnyMethods$GT$7extract17hc5779942bf14461cE', symObjAddr: 0x26F4, symBinAddr: 0x1C9E8, symSize: 0x30 }
  - { offset: 0x91468, size: 0x8, addend: 0x0, symName: '__ZN103_$LT$pyo3..instance..Bound$LT$pyo3..types..any..PyAny$GT$$u20$as$u20$pyo3..types..any..PyAnyMethods$GT$7getattr17h51ed51cefd3b785bE', symObjAddr: 0x27E4, symBinAddr: 0x1CA18, symSize: 0x148 }
  - { offset: 0x914EE, size: 0x8, addend: 0x0, symName: '__ZN103_$LT$pyo3..instance..Bound$LT$pyo3..types..any..PyAny$GT$$u20$as$u20$pyo3..types..any..PyAnyMethods$GT$7setattr17h54cad8cfab6c789aE', symObjAddr: 0x2AD8, symBinAddr: 0x1CB60, symSize: 0x234 }
  - { offset: 0x915BB, size: 0x8, addend: 0x0, symName: '__ZN103_$LT$pyo3..instance..Bound$LT$pyo3..types..any..PyAny$GT$$u20$as$u20$pyo3..types..any..PyAnyMethods$GT$7setattr17hbd1ff427b620c799E', symObjAddr: 0x2D0C, symBinAddr: 0x1CD94, symSize: 0x234 }
  - { offset: 0x91688, size: 0x8, addend: 0x0, symName: '__ZN103_$LT$pyo3..instance..Bound$LT$pyo3..types..any..PyAny$GT$$u20$as$u20$pyo3..types..any..PyAnyMethods$GT$8downcast17h81d576bcbbd39f75E', symObjAddr: 0x3194, symBinAddr: 0x1CFC8, symSize: 0x84 }
  - { offset: 0x916BF, size: 0x8, addend: 0x0, symName: '__ZN103_$LT$pyo3..instance..Bound$LT$pyo3..types..any..PyAny$GT$$u20$as$u20$pyo3..types..any..PyAnyMethods$GT$8downcast17hb94f1f0072658058E', symObjAddr: 0x3218, symBinAddr: 0x1D04C, symSize: 0x84 }
  - { offset: 0x916F6, size: 0x8, addend: 0x0, symName: '__ZN103_$LT$pyo3..instance..Bound$LT$pyo3..types..any..PyAny$GT$$u20$as$u20$pyo3..types..any..PyAnyMethods$GT$8get_type17h7a0350b314203a3dE', symObjAddr: 0x3588, symBinAddr: 0x1D0D0, symSize: 0x38 }
  - { offset: 0x91724, size: 0x8, addend: 0x0, symName: '__ZN103_$LT$pyo3..instance..Bound$LT$pyo3..types..any..PyAny$GT$$u20$as$u20$pyo3..types..any..PyAnyMethods$GT$8try_iter17hdbdfc229dd853ff6E', symObjAddr: 0x3674, symBinAddr: 0x1D108, symSize: 0x24 }
  - { offset: 0x9178E, size: 0x8, addend: 0x0, symName: '__ZN107_$LT$pyo3..instance..Bound$LT$pyo3..types..list..PyList$GT$$u20$as$u20$pyo3..types..list..PyListMethods$GT$6append17h8cc9b8584cf67f0fE', symObjAddr: 0x3CEC, symBinAddr: 0x1D198, symSize: 0x14C }
  - { offset: 0x91825, size: 0x8, addend: 0x0, symName: '__ZN111_$LT$pyo3..instance..Bound$LT$pyo3..types..bytes..PyBytes$GT$$u20$as$u20$pyo3..types..bytes..PyBytesMethods$GT$8as_bytes17h732ff98943aa385fE', symObjAddr: 0x3FD8, symBinAddr: 0x1D2E4, symSize: 0x28 }
  - { offset: 0x91872, size: 0x8, addend: 0x0, symName: '__ZN111_$LT$pyo3..instance..Bound$LT$pyo3..types..tuple..PyTuple$GT$$u20$as$u20$pyo3..types..tuple..PyTupleMethods$GT$3len17h917e744d95712149E', symObjAddr: 0x424C, symBinAddr: 0x1D30C, symSize: 0x2C }
  - { offset: 0x918EC, size: 0x8, addend: 0x0, symName: '__ZN115_$LT$pyo3..instance..Bound$LT$pyo3..types..module..PyModule$GT$$u20$as$u20$pyo3..types..module..PyModuleMethods$GT$12add_function17h65979478ba2bc82aE', symObjAddr: 0x4614, symBinAddr: 0x1D35C, symSize: 0x21C }
  - { offset: 0x9199F, size: 0x8, addend: 0x0, symName: '__ZN115_$LT$pyo3..instance..Bound$LT$pyo3..types..module..PyModule$GT$$u20$as$u20$pyo3..types..module..PyModuleMethods$GT$3add17h0c2fda0ae114826fE', symObjAddr: 0x4954, symBinAddr: 0x1D578, symSize: 0x280 }
  - { offset: 0x91A6C, size: 0x8, addend: 0x0, symName: '__ZN115_$LT$pyo3..instance..Bound$LT$pyo3..types..module..PyModule$GT$$u20$as$u20$pyo3..types..module..PyModuleMethods$GT$4name17hb775713a6684d5b2E', symObjAddr: 0x50FC, symBinAddr: 0x1D7F8, symSize: 0x5C }
  - { offset: 0x91A9A, size: 0x8, addend: 0x0, symName: '__ZN115_$LT$pyo3..instance..Bound$LT$pyo3..types..module..PyModule$GT$$u20$as$u20$pyo3..types..module..PyModuleMethods$GT$5index17h849054fe8c145bcbE', symObjAddr: 0x5158, symBinAddr: 0x1D854, symSize: 0x25C }
  - { offset: 0x91B6D, size: 0x8, addend: 0x0, symName: '__ZN115_$LT$pyo3..instance..Bound$LT$pyo3..types..string..PyString$GT$$u20$as$u20$pyo3..types..string..PyStringMethods$GT$15to_string_lossy17hbaf1432b8e7dab10E', symObjAddr: 0x5484, symBinAddr: 0x1DAB0, symSize: 0x30 }
  - { offset: 0x91B9B, size: 0x8, addend: 0x0, symName: '__ZN115_$LT$pyo3..instance..Bound$LT$pyo3..types..string..PyString$GT$$u20$as$u20$pyo3..types..string..PyStringMethods$GT$6to_cow17h3d710829a4e1c847E', symObjAddr: 0x54E4, symBinAddr: 0x1DAE0, symSize: 0x30 }
  - { offset: 0x91C69, size: 0x8, addend: 0x0, symName: '__ZN119_$LT$pyo3..instance..Bound$LT$pyo3..types..typeobject..PyType$GT$$u20$as$u20$pyo3..types..typeobject..PyTypeMethods$GT$11as_type_ptr17hf66f303cc5bfe0a5E', symObjAddr: 0x5CE0, symBinAddr: 0x1DB10, symSize: 0x24 }
  - { offset: 0x91C95, size: 0x8, addend: 0x0, symName: '__ZN119_$LT$pyo3..instance..Bound$LT$pyo3..types..typeobject..PyType$GT$$u20$as$u20$pyo3..types..typeobject..PyTypeMethods$GT$4name17h6ce9eea824fa0da4E', symObjAddr: 0x63A4, symBinAddr: 0x1DB34, symSize: 0xE0 }
  - { offset: 0x91CFE, size: 0x8, addend: 0x0, symName: '__ZN119_$LT$pyo3..instance..Bound$LT$pyo3..types..typeobject..PyType$GT$$u20$as$u20$pyo3..types..typeobject..PyTypeMethods$GT$8qualname17hb26a89b8cf4b2d62E', symObjAddr: 0x6670, symBinAddr: 0x1DC14, symSize: 0xE0 }
  - { offset: 0x91E46, size: 0x8, addend: 0x0, symName: '__ZN105_$LT$pyo3..instance..Py$LT$T$GT$$u20$as$u20$core..convert..From$LT$pyo3..instance..Bound$LT$T$GT$$GT$$GT$4from17h105e0b102b2de85cE', symObjAddr: 0x3830, symBinAddr: 0x1D12C, symSize: 0x24 }
  - { offset: 0x91E7D, size: 0x8, addend: 0x0, symName: '__ZN105_$LT$pyo3..instance..Py$LT$T$GT$$u20$as$u20$core..convert..From$LT$pyo3..instance..Bound$LT$T$GT$$GT$$GT$4from17h9607b546ae961d52E', symObjAddr: 0x3854, symBinAddr: 0x1D150, symSize: 0x24 }
  - { offset: 0x91EB4, size: 0x8, addend: 0x0, symName: '__ZN105_$LT$pyo3..instance..Py$LT$T$GT$$u20$as$u20$core..convert..From$LT$pyo3..instance..Bound$LT$T$GT$$GT$$GT$4from17hfc5b0fd976ba168cE', symObjAddr: 0x3878, symBinAddr: 0x1D174, symSize: 0x24 }
  - { offset: 0x91EF1, size: 0x8, addend: 0x0, symName: '__ZN115_$LT$pyo3..instance..Borrowed$LT$T$GT$$u20$as$u20$core..convert..From$LT$$RF$pyo3..instance..Bound$LT$T$GT$$GT$$GT$4from17hff3d3c5a51ada3d0E', symObjAddr: 0x45F0, symBinAddr: 0x1D338, symSize: 0x24 }
  - { offset: 0x91F2E, size: 0x8, addend: 0x0, symName: '__ZN127_$LT$pyo3..instance..Py$LT$pyo3..types..any..PyAny$GT$$u20$as$u20$core..convert..From$LT$pyo3..instance..Bound$LT$T$GT$$GT$$GT$4from17h8036529131f86c3fE', symObjAddr: 0x7154, symBinAddr: 0x1DCF4, symSize: 0x28 }
  - { offset: 0x93275, size: 0x8, addend: 0x0, symName: '__ZN4pyo38instance11Py$LT$T$GT$21from_owned_ptr_or_opt28_$u7b$$u7b$closure$u7d$$u7d$17hd72565df942d2f5eE', symObjAddr: 0xA094, symBinAddr: 0x1E80C, symSize: 0x14 }
  - { offset: 0x9366F, size: 0x8, addend: 0x0, symName: __ZN4pyo38instance13python_format17heafc954c9ef1ce4fE, symObjAddr: 0xB964, symBinAddr: 0x1F41C, symSize: 0x2F8 }
  - { offset: 0x93E83, size: 0x8, addend: 0x0, symName: '__ZN4pyo38instance36Bound$LT$pyo3..types..any..PyAny$GT$21from_owned_ptr_or_err28_$u7b$$u7b$closure$u7d$$u7d$17hccac65d7942b5520E', symObjAddr: 0xD7A0, symBinAddr: 0x20614, symSize: 0x28 }
  - { offset: 0x93EE1, size: 0x8, addend: 0x0, symName: '__ZN4pyo38instance36Bound$LT$pyo3..types..any..PyAny$GT$21from_owned_ptr_or_opt28_$u7b$$u7b$closure$u7d$$u7d$17hf867bdf286d422c1E', symObjAddr: 0xD7F4, symBinAddr: 0x20668, symSize: 0x28 }
  - { offset: 0x93F45, size: 0x8, addend: 0x0, symName: '__ZN4pyo38instance39Borrowed$LT$pyo3..types..any..PyAny$GT$8from_ptr28_$u7b$$u7b$closure$u7d$$u7d$17h54dfdc7c7f8803faE', symObjAddr: 0xDB54, symBinAddr: 0x207B4, symSize: 0x1C }
  - { offset: 0x93F99, size: 0x8, addend: 0x0, symName: '__ZN67_$LT$pyo3..instance..Bound$LT$T$GT$$u20$as$u20$core..fmt..Debug$GT$3fmt17h15328a6931884979E', symObjAddr: 0xDD34, symBinAddr: 0x20860, symSize: 0x54 }
  - { offset: 0x93FFD, size: 0x8, addend: 0x0, symName: '__ZN67_$LT$pyo3..instance..Bound$LT$T$GT$$u20$as$u20$core..fmt..Debug$GT$3fmt17h8d9ab9b3f1202d7bE', symObjAddr: 0xDD88, symBinAddr: 0x208B4, symSize: 0x54 }
  - { offset: 0x94061, size: 0x8, addend: 0x0, symName: '__ZN67_$LT$pyo3..instance..Bound$LT$T$GT$$u20$as$u20$core..fmt..Debug$GT$3fmt17hb2222cc7a853e901E', symObjAddr: 0xDDDC, symBinAddr: 0x20908, symSize: 0x54 }
  - { offset: 0x940CB, size: 0x8, addend: 0x0, symName: '__ZN69_$LT$pyo3..instance..Bound$LT$T$GT$$u20$as$u20$core..clone..Clone$GT$5clone17h248ce80d05e97499E', symObjAddr: 0xDE30, symBinAddr: 0x2095C, symSize: 0x34 }
  - { offset: 0x94102, size: 0x8, addend: 0x0, symName: '__ZN69_$LT$pyo3..instance..Bound$LT$T$GT$$u20$as$u20$core..clone..Clone$GT$5clone17h5318af4b5c78469aE', symObjAddr: 0xDE98, symBinAddr: 0x20990, symSize: 0x34 }
  - { offset: 0x94139, size: 0x8, addend: 0x0, symName: '__ZN69_$LT$pyo3..instance..Bound$LT$T$GT$$u20$as$u20$core..clone..Clone$GT$5clone17h5beb0d7181470ceeE', symObjAddr: 0xDF00, symBinAddr: 0x209C4, symSize: 0x34 }
  - { offset: 0x94170, size: 0x8, addend: 0x0, symName: '__ZN69_$LT$pyo3..instance..Bound$LT$T$GT$$u20$as$u20$core..clone..Clone$GT$5clone17hd2b321835d2411f7E', symObjAddr: 0xE004, symBinAddr: 0x209F8, symSize: 0x34 }
  - { offset: 0x941AD, size: 0x8, addend: 0x0, symName: '__ZN69_$LT$pyo3..instance..Bound$LT$T$GT$$u20$as$u20$core..fmt..Display$GT$3fmt17h04a7b71ba7905052E', symObjAddr: 0xE0A0, symBinAddr: 0x20A2C, symSize: 0x54 }
  - { offset: 0x94211, size: 0x8, addend: 0x0, symName: '__ZN69_$LT$pyo3..instance..Bound$LT$T$GT$$u20$as$u20$core..fmt..Display$GT$3fmt17h45bd95835e863d1aE', symObjAddr: 0xE0F4, symBinAddr: 0x20A80, symSize: 0x54 }
  - { offset: 0x94275, size: 0x8, addend: 0x0, symName: '__ZN69_$LT$pyo3..instance..Bound$LT$T$GT$$u20$as$u20$core..fmt..Display$GT$3fmt17hd1b2396a30714593E', symObjAddr: 0xE19C, symBinAddr: 0x20AD4, symSize: 0x54 }
  - { offset: 0x942DF, size: 0x8, addend: 0x0, symName: '__ZN69_$LT$pyo3..instance..Py$LT$T$GT$$u20$as$u20$core..ops..drop..Drop$GT$4drop17h72f557e7d27742b3E', symObjAddr: 0xE1F0, symBinAddr: 0x20B28, symSize: 0x28 }
  - { offset: 0x94312, size: 0x8, addend: 0x0, symName: '__ZN69_$LT$pyo3..instance..Py$LT$T$GT$$u20$as$u20$core..ops..drop..Drop$GT$4drop17h8d249047ef989521E', symObjAddr: 0xE218, symBinAddr: 0x20B50, symSize: 0x28 }
  - { offset: 0x94345, size: 0x8, addend: 0x0, symName: '__ZN69_$LT$pyo3..instance..Py$LT$T$GT$$u20$as$u20$core..ops..drop..Drop$GT$4drop17hc352f95902c1ce14E', symObjAddr: 0xE240, symBinAddr: 0x20B78, symSize: 0x28 }
  - { offset: 0x94378, size: 0x8, addend: 0x0, symName: '__ZN69_$LT$pyo3..instance..Py$LT$T$GT$$u20$as$u20$core..ops..drop..Drop$GT$4drop17hef304a876265b990E', symObjAddr: 0xE290, symBinAddr: 0x20BA0, symSize: 0x28 }
  - { offset: 0x943AB, size: 0x8, addend: 0x0, symName: '__ZN69_$LT$pyo3..instance..Py$LT$T$GT$$u20$as$u20$core..ops..drop..Drop$GT$4drop17hf47b4031087478d0E', symObjAddr: 0xE2B8, symBinAddr: 0x20BC8, symSize: 0x28 }
  - { offset: 0x943E4, size: 0x8, addend: 0x0, symName: '__ZN72_$LT$pyo3..instance..Bound$LT$T$GT$$u20$as$u20$core..ops..drop..Drop$GT$4drop17h05ea56c8a54f7bd1E', symObjAddr: 0xE2E0, symBinAddr: 0x20BF0, symSize: 0x1A0 }
  - { offset: 0x94453, size: 0x8, addend: 0x0, symName: '__ZN72_$LT$pyo3..instance..Bound$LT$T$GT$$u20$as$u20$core..ops..drop..Drop$GT$4drop17h065f49ee145a2610E', symObjAddr: 0xE480, symBinAddr: 0x20D90, symSize: 0x1A0 }
  - { offset: 0x944C2, size: 0x8, addend: 0x0, symName: '__ZN72_$LT$pyo3..instance..Bound$LT$T$GT$$u20$as$u20$core..ops..drop..Drop$GT$4drop17h1c26e65aa6f6bc48E', symObjAddr: 0xE620, symBinAddr: 0x20F30, symSize: 0x1A0 }
  - { offset: 0x94531, size: 0x8, addend: 0x0, symName: '__ZN72_$LT$pyo3..instance..Bound$LT$T$GT$$u20$as$u20$core..ops..drop..Drop$GT$4drop17h1d671a16a453c3a6E', symObjAddr: 0xE7C0, symBinAddr: 0x210D0, symSize: 0x1A0 }
  - { offset: 0x945A0, size: 0x8, addend: 0x0, symName: '__ZN72_$LT$pyo3..instance..Bound$LT$T$GT$$u20$as$u20$core..ops..drop..Drop$GT$4drop17h4923a63ac9b72b05E', symObjAddr: 0xEB00, symBinAddr: 0x21270, symSize: 0x1A0 }
  - { offset: 0x9460F, size: 0x8, addend: 0x0, symName: '__ZN72_$LT$pyo3..instance..Bound$LT$T$GT$$u20$as$u20$core..ops..drop..Drop$GT$4drop17h62b7062cd4ac808cE', symObjAddr: 0xECA0, symBinAddr: 0x21410, symSize: 0x1A0 }
  - { offset: 0x9467E, size: 0x8, addend: 0x0, symName: '__ZN72_$LT$pyo3..instance..Bound$LT$T$GT$$u20$as$u20$core..ops..drop..Drop$GT$4drop17h8138f51286b10b1aE', symObjAddr: 0xEFE0, symBinAddr: 0x215B0, symSize: 0x1A0 }
  - { offset: 0x946ED, size: 0x8, addend: 0x0, symName: '__ZN72_$LT$pyo3..instance..Bound$LT$T$GT$$u20$as$u20$core..ops..drop..Drop$GT$4drop17h8b7713c10f280e69E', symObjAddr: 0xF180, symBinAddr: 0x21750, symSize: 0x1A0 }
  - { offset: 0x9475C, size: 0x8, addend: 0x0, symName: '__ZN72_$LT$pyo3..instance..Bound$LT$T$GT$$u20$as$u20$core..ops..drop..Drop$GT$4drop17haa83c67a8a72aba9E', symObjAddr: 0xF4C0, symBinAddr: 0x218F0, symSize: 0x1A0 }
  - { offset: 0x947CB, size: 0x8, addend: 0x0, symName: '__ZN72_$LT$pyo3..instance..Bound$LT$T$GT$$u20$as$u20$core..ops..drop..Drop$GT$4drop17hbc276ce35c31640fE', symObjAddr: 0xF800, symBinAddr: 0x21A90, symSize: 0x1A0 }
  - { offset: 0x9483A, size: 0x8, addend: 0x0, symName: '__ZN72_$LT$pyo3..instance..Bound$LT$T$GT$$u20$as$u20$core..ops..drop..Drop$GT$4drop17hd5bf71e3948a888eE', symObjAddr: 0xF9A0, symBinAddr: 0x21C30, symSize: 0x1A0 }
  - { offset: 0x948AF, size: 0x8, addend: 0x0, symName: '__ZN74_$LT$pyo3..instance..Bound$LT$T$GT$$u20$as$u20$core..ops..deref..Deref$GT$5deref17h2b4c9f0d80d2287cE', symObjAddr: 0x10020, symBinAddr: 0x21DD0, symSize: 0x24 }
  - { offset: 0x948E6, size: 0x8, addend: 0x0, symName: '__ZN74_$LT$pyo3..instance..Bound$LT$T$GT$$u20$as$u20$core..ops..deref..Deref$GT$5deref17h7d4d30efae1850f6E', symObjAddr: 0x100B0, symBinAddr: 0x21DF4, symSize: 0x24 }
  - { offset: 0x9491D, size: 0x8, addend: 0x0, symName: '__ZN74_$LT$pyo3..instance..Bound$LT$T$GT$$u20$as$u20$core..ops..deref..Deref$GT$5deref17h87d82c22174b49d8E', symObjAddr: 0x100D4, symBinAddr: 0x21E18, symSize: 0x24 }
  - { offset: 0x94954, size: 0x8, addend: 0x0, symName: '__ZN74_$LT$pyo3..instance..Bound$LT$T$GT$$u20$as$u20$core..ops..deref..Deref$GT$5deref17hcd64044dcf8447bcE', symObjAddr: 0x1011C, symBinAddr: 0x21E3C, symSize: 0x24 }
  - { offset: 0x9498B, size: 0x8, addend: 0x0, symName: '__ZN74_$LT$pyo3..instance..Bound$LT$T$GT$$u20$as$u20$core..ops..deref..Deref$GT$5deref17he473e9acf5de5dcbE', symObjAddr: 0x10164, symBinAddr: 0x21E60, symSize: 0x24 }
  - { offset: 0x949C8, size: 0x8, addend: 0x0, symName: '__ZN77_$LT$pyo3..instance..Borrowed$LT$T$GT$$u20$as$u20$core..ops..deref..Deref$GT$5deref17h222ab168e9860135E', symObjAddr: 0x10248, symBinAddr: 0x21E84, symSize: 0x74 }
  - { offset: 0x949FF, size: 0x8, addend: 0x0, symName: '__ZN77_$LT$pyo3..instance..Borrowed$LT$T$GT$$u20$as$u20$core..ops..deref..Deref$GT$5deref17h2e8a0aa79e18e0b2E', symObjAddr: 0x102BC, symBinAddr: 0x21EF8, symSize: 0x74 }
  - { offset: 0x94A36, size: 0x8, addend: 0x0, symName: '__ZN77_$LT$pyo3..instance..Borrowed$LT$T$GT$$u20$as$u20$core..ops..deref..Deref$GT$5deref17h58c539df2b40955fE', symObjAddr: 0x10330, symBinAddr: 0x21F6C, symSize: 0x74 }
  - { offset: 0x94A6D, size: 0x8, addend: 0x0, symName: '__ZN77_$LT$pyo3..instance..Borrowed$LT$T$GT$$u20$as$u20$core..ops..deref..Deref$GT$5deref17h592fdb3a20c7ffc4E', symObjAddr: 0x103A4, symBinAddr: 0x21FE0, symSize: 0x74 }
  - { offset: 0x94AA4, size: 0x8, addend: 0x0, symName: '__ZN77_$LT$pyo3..instance..Borrowed$LT$T$GT$$u20$as$u20$core..ops..deref..Deref$GT$5deref17hb015c4cebcf4c879E', symObjAddr: 0x10500, symBinAddr: 0x22054, symSize: 0x74 }
  - { offset: 0x94ADB, size: 0x8, addend: 0x0, symName: '__ZN77_$LT$pyo3..instance..Borrowed$LT$T$GT$$u20$as$u20$core..ops..deref..Deref$GT$5deref17hc40556a791f0da8dE', symObjAddr: 0x105E8, symBinAddr: 0x220C8, symSize: 0x74 }
  - { offset: 0x94B18, size: 0x8, addend: 0x0, symName: '__ZN80_$LT$pyo3..instance..Bound$LT$T$GT$$u20$as$u20$pyo3..conversion..AsPyPointer$GT$6as_ptr17hd4a57750d2017a78E', symObjAddr: 0x10680, symBinAddr: 0x22160, symSize: 0x2C }
  - { offset: 0x94B55, size: 0x8, addend: 0x0, symName: '__ZN87_$LT$pyo3..instance..Bound$LT$T$GT$$u20$as$u20$pyo3..instance..BoundObject$LT$T$GT$$GT$10into_bound17hc094b56f96ad1b89E', symObjAddr: 0x10858, symBinAddr: 0x22224, symSize: 0x14 }
  - { offset: 0x94B8C, size: 0x8, addend: 0x0, symName: '__ZN87_$LT$pyo3..instance..Bound$LT$T$GT$$u20$as$u20$pyo3..instance..BoundObject$LT$T$GT$$GT$11as_borrowed17h9cfff7d92d875e7bE', symObjAddr: 0x10890, symBinAddr: 0x22238, symSize: 0x24 }
  - { offset: 0x94BC3, size: 0x8, addend: 0x0, symName: '__ZN87_$LT$pyo3..instance..Bound$LT$T$GT$$u20$as$u20$pyo3..instance..BoundObject$LT$T$GT$$GT$11as_borrowed17hf1edcb1acde28fccE', symObjAddr: 0x108B4, symBinAddr: 0x2225C, symSize: 0x24 }
  - { offset: 0x94BFA, size: 0x8, addend: 0x0, symName: '__ZN87_$LT$pyo3..instance..Bound$LT$T$GT$$u20$as$u20$pyo3..instance..BoundObject$LT$T$GT$$GT$6unbind17ha2f266bd49ee3789E', symObjAddr: 0x108FC, symBinAddr: 0x22280, symSize: 0x24 }
  - { offset: 0x94C31, size: 0x8, addend: 0x0, symName: '__ZN87_$LT$pyo3..instance..Bound$LT$T$GT$$u20$as$u20$pyo3..instance..BoundObject$LT$T$GT$$GT$8into_any17h104d282c9ebe0fffE', symObjAddr: 0x10944, symBinAddr: 0x222A4, symSize: 0x24 }
  - { offset: 0x94C68, size: 0x8, addend: 0x0, symName: '__ZN87_$LT$pyo3..instance..Bound$LT$T$GT$$u20$as$u20$pyo3..instance..BoundObject$LT$T$GT$$GT$8into_any17h5f8af30b76dcd78cE', symObjAddr: 0x10968, symBinAddr: 0x222C8, symSize: 0x24 }
  - { offset: 0x94C9F, size: 0x8, addend: 0x0, symName: '__ZN87_$LT$pyo3..instance..Bound$LT$T$GT$$u20$as$u20$pyo3..instance..BoundObject$LT$T$GT$$GT$8into_any17h9d6ba2ffb26e918aE', symObjAddr: 0x109B0, symBinAddr: 0x222EC, symSize: 0x24 }
  - { offset: 0x94CD6, size: 0x8, addend: 0x0, symName: '__ZN87_$LT$pyo3..instance..Bound$LT$T$GT$$u20$as$u20$pyo3..instance..BoundObject$LT$T$GT$$GT$8into_any17hc4dc477ba1be85c7E', symObjAddr: 0x109D4, symBinAddr: 0x22310, symSize: 0x24 }
  - { offset: 0x94D0D, size: 0x8, addend: 0x0, symName: '__ZN87_$LT$pyo3..instance..Bound$LT$T$GT$$u20$as$u20$pyo3..instance..BoundObject$LT$T$GT$$GT$8into_any17heef80a81859a4f0bE', symObjAddr: 0x109F8, symBinAddr: 0x22334, symSize: 0x24 }
  - { offset: 0x94D4A, size: 0x8, addend: 0x0, symName: '__ZN90_$LT$pyo3..instance..Borrowed$LT$T$GT$$u20$as$u20$pyo3..instance..BoundObject$LT$T$GT$$GT$11as_borrowed17h640a1f277ec93f72E', symObjAddr: 0x10A48, symBinAddr: 0x22358, symSize: 0x18 }
  - { offset: 0x94D81, size: 0x8, addend: 0x0, symName: '__ZN90_$LT$pyo3..instance..Borrowed$LT$T$GT$$u20$as$u20$pyo3..instance..BoundObject$LT$T$GT$$GT$11as_borrowed17h64759bffbd0792a8E', symObjAddr: 0x10A60, symBinAddr: 0x22370, symSize: 0x18 }
  - { offset: 0x94DB8, size: 0x8, addend: 0x0, symName: '__ZN90_$LT$pyo3..instance..Borrowed$LT$T$GT$$u20$as$u20$pyo3..instance..BoundObject$LT$T$GT$$GT$8into_any17h29b27b66bb59b74cE', symObjAddr: 0x10AA0, symBinAddr: 0x22388, symSize: 0x24 }
  - { offset: 0x94DEF, size: 0x8, addend: 0x0, symName: '__ZN90_$LT$pyo3..instance..Borrowed$LT$T$GT$$u20$as$u20$pyo3..instance..BoundObject$LT$T$GT$$GT$8into_any17h544369303c35bd8bE', symObjAddr: 0x10AC4, symBinAddr: 0x223AC, symSize: 0x24 }
  - { offset: 0x94E26, size: 0x8, addend: 0x0, symName: '__ZN90_$LT$pyo3..instance..Borrowed$LT$T$GT$$u20$as$u20$pyo3..instance..BoundObject$LT$T$GT$$GT$8into_any17h939ccd9fcae98f14E', symObjAddr: 0x10B0C, symBinAddr: 0x223D0, symSize: 0x24 }
  - { offset: 0x94E6E, size: 0x8, addend: 0x0, symName: '__ZN196_$LT$$RF$pyo3..instance..Bound$LT$pyo3..types..module..PyModule$GT$$u20$as$u20$pyo3..impl_..pyfunction..WrapPyFunctionArg$LT$pyo3..instance..Bound$LT$pyo3..types..function..PyCFunction$GT$$GT$$GT$15wrap_pyfunction17h761f2bac7bbaead1E', symObjAddr: 0x75A0, symBinAddr: 0x1DD1C, symSize: 0x44 }
  - { offset: 0x94F8E, size: 0x8, addend: 0x0, symName: '__ZN47_$LT$T$u20$as$u20$pyo3..err..PyErrArguments$GT$9arguments17h928dfd5fd5bb57edE', symObjAddr: 0x7778, symBinAddr: 0x1DDF0, symSize: 0x3C }
  - { offset: 0x9516E, size: 0x8, addend: 0x0, symName: __ZN4pyo310conversion15IntoPyObjectExt22into_pyobject_or_pyerr17h27ef8459564f28f3E, symObjAddr: 0x7AF0, symBinAddr: 0x1DEEC, symSize: 0x48 }
  - { offset: 0x951DE, size: 0x8, addend: 0x0, symName: __ZN4pyo310conversion15IntoPyObjectExt22into_pyobject_or_pyerr17h3e61cabcc784fec5E, symObjAddr: 0x7B38, symBinAddr: 0x1DF34, symSize: 0x48 }
  - { offset: 0x9524E, size: 0x8, addend: 0x0, symName: __ZN4pyo310conversion15IntoPyObjectExt22into_pyobject_or_pyerr17h51c3a5d25a30bb61E, symObjAddr: 0x7C48, symBinAddr: 0x1DF7C, symSize: 0x48 }
  - { offset: 0x952BE, size: 0x8, addend: 0x0, symName: __ZN4pyo310conversion15IntoPyObjectExt22into_pyobject_or_pyerr17h96e9fbbd30cfb09bE, symObjAddr: 0x7DA0, symBinAddr: 0x1DFC4, symSize: 0x48 }
  - { offset: 0x9532E, size: 0x8, addend: 0x0, symName: __ZN4pyo310conversion15IntoPyObjectExt22into_pyobject_or_pyerr17ha789c0ede9eecaa5E, symObjAddr: 0x7E30, symBinAddr: 0x1E00C, symSize: 0x48 }
  - { offset: 0x9539E, size: 0x8, addend: 0x0, symName: __ZN4pyo310conversion15IntoPyObjectExt22into_pyobject_or_pyerr17hc41bb9d3615754f6E, symObjAddr: 0x7E78, symBinAddr: 0x1E054, symSize: 0x48 }
  - { offset: 0x95414, size: 0x8, addend: 0x0, symName: '__ZN78_$LT$pyo3..instance..Py$LT$T$GT$$u20$as$u20$pyo3..conversion..IntoPyObject$GT$13into_pyobject17h57438b81fec0a5a0E', symObjAddr: 0x1065C, symBinAddr: 0x2213C, symSize: 0x24 }
  - { offset: 0x9546C, size: 0x8, addend: 0x0, symName: '__ZN81_$LT$pyo3..instance..Bound$LT$T$GT$$u20$as$u20$pyo3..conversion..IntoPyObject$GT$13into_pyobject17h2f3cd9e846eb4fa4E', symObjAddr: 0x106AC, symBinAddr: 0x2218C, symSize: 0x14 }
  - { offset: 0x954BE, size: 0x8, addend: 0x0, symName: '__ZN81_$LT$pyo3..instance..Bound$LT$T$GT$$u20$as$u20$pyo3..conversion..IntoPyObject$GT$13into_pyobject17h9d7c4679f5d04851E', symObjAddr: 0x106D4, symBinAddr: 0x221A0, symSize: 0x14 }
  - { offset: 0x95516, size: 0x8, addend: 0x0, symName: '__ZN84_$LT$pyo3..instance..Borrowed$LT$T$GT$$u20$as$u20$pyo3..conversion..IntoPyObject$GT$13into_pyobject17hd6a662ae12cd66aeE', symObjAddr: 0x10734, symBinAddr: 0x221B4, symSize: 0x14 }
  - { offset: 0x95568, size: 0x8, addend: 0x0, symName: '__ZN84_$LT$pyo3..instance..Borrowed$LT$T$GT$$u20$as$u20$pyo3..conversion..IntoPyObject$GT$13into_pyobject17he79d10d785bc72c7E', symObjAddr: 0x10748, symBinAddr: 0x221C8, symSize: 0x14 }
  - { offset: 0x955C0, size: 0x8, addend: 0x0, symName: '__ZN85_$LT$$RF$pyo3..instance..Bound$LT$T$GT$$u20$as$u20$pyo3..conversion..IntoPyObject$GT$13into_pyobject17h39ecaeffdf8bf5f3E', symObjAddr: 0x1075C, symBinAddr: 0x221DC, symSize: 0x24 }
  - { offset: 0x95612, size: 0x8, addend: 0x0, symName: '__ZN85_$LT$$RF$pyo3..instance..Bound$LT$T$GT$$u20$as$u20$pyo3..conversion..IntoPyObject$GT$13into_pyobject17h89529e896205f8daE', symObjAddr: 0x10780, symBinAddr: 0x22200, symSize: 0x24 }
  - { offset: 0x95C38, size: 0x8, addend: 0x0, symName: '__ZN4pyo35types5bytes77_$LT$impl$u20$pyo3..instance..Borrowed$LT$pyo3..types..bytes..PyBytes$GT$$GT$8as_bytes17hd84030f8282607b0E', symObjAddr: 0x8168, symBinAddr: 0x1E09C, symSize: 0x90 }
  - { offset: 0x95C91, size: 0x8, addend: 0x0, symName: '__ZN4pyo35types5tuple77_$LT$impl$u20$pyo3..instance..Borrowed$LT$pyo3..types..tuple..PyTuple$GT$$GT$13iter_borrowed17he85f7ff2a346ceeaE', symObjAddr: 0x8610, symBinAddr: 0x1E12C, symSize: 0x24 }
  - { offset: 0x95EC0, size: 0x8, addend: 0x0, symName: '__ZN4pyo35types5tuple77_$LT$impl$u20$pyo3..instance..Borrowed$LT$pyo3..types..tuple..PyTuple$GT$$GT$27get_borrowed_item_unchecked17h66cccd6fe8ec570eE', symObjAddr: 0x8694, symBinAddr: 0x1E150, symSize: 0x60 }
  - { offset: 0x95F1D, size: 0x8, addend: 0x0, symName: '__ZN4pyo35types6string79_$LT$impl$u20$pyo3..instance..Borrowed$LT$pyo3..types..string..PyString$GT$$GT$15to_string_lossy17h36b6f3172e7b38e4E', symObjAddr: 0x8890, symBinAddr: 0x1E1B0, symSize: 0x174 }
  - { offset: 0x95FE7, size: 0x8, addend: 0x0, symName: '__ZN4pyo35types6string79_$LT$impl$u20$pyo3..instance..Borrowed$LT$pyo3..types..string..PyString$GT$$GT$6to_cow17h7b871895a8460800E', symObjAddr: 0x8B70, symBinAddr: 0x1E324, symSize: 0x3C }
  - { offset: 0x9600A, size: 0x8, addend: 0x0, symName: '__ZN4pyo35types6string79_$LT$impl$u20$pyo3..instance..Borrowed$LT$pyo3..types..string..PyString$GT$$GT$6to_str17hddbcdf6827c4f614E', symObjAddr: 0x8BAC, symBinAddr: 0x1E360, symSize: 0xD0 }
  - { offset: 0x96076, size: 0x8, addend: 0x0, symName: '__ZN4pyo35types8iterator83_$LT$impl$u20$pyo3..instance..Borrowed$LT$pyo3..types..iterator..PyIterator$GT$$GT$4next17h450b7bd799d77606E', symObjAddr: 0x9A08, symBinAddr: 0x1E430, symSize: 0x9C }
  - { offset: 0x96117, size: 0x8, addend: 0x0, symName: '__ZN4pyo38instance11Py$LT$T$GT$10into_bound17h76dfe08bc125682aE', symObjAddr: 0x9BEC, symBinAddr: 0x1E4CC, symSize: 0x1C }
  - { offset: 0x9615E, size: 0x8, addend: 0x0, symName: '__ZN4pyo38instance11Py$LT$T$GT$13from_non_null17h0a22cb0cd4705ddeE', symObjAddr: 0x9C80, symBinAddr: 0x1E4E8, symSize: 0x14 }
  - { offset: 0x9618A, size: 0x8, addend: 0x0, symName: '__ZN4pyo38instance11Py$LT$T$GT$13from_non_null17h11598a4312bad71eE', symObjAddr: 0x9C94, symBinAddr: 0x1E4FC, symSize: 0x14 }
  - { offset: 0x961B6, size: 0x8, addend: 0x0, symName: '__ZN4pyo38instance11Py$LT$T$GT$13from_non_null17h2df7d01343133fb3E', symObjAddr: 0x9CA8, symBinAddr: 0x1E510, symSize: 0x14 }
  - { offset: 0x961E2, size: 0x8, addend: 0x0, symName: '__ZN4pyo38instance11Py$LT$T$GT$13from_non_null17h395ab4134fb271a0E', symObjAddr: 0x9CBC, symBinAddr: 0x1E524, symSize: 0x14 }
  - { offset: 0x9620E, size: 0x8, addend: 0x0, symName: '__ZN4pyo38instance11Py$LT$T$GT$13from_non_null17h39748264824caf00E', symObjAddr: 0x9CD0, symBinAddr: 0x1E538, symSize: 0x14 }
  - { offset: 0x9623A, size: 0x8, addend: 0x0, symName: '__ZN4pyo38instance11Py$LT$T$GT$13from_non_null17h3bc13b9780fd5d34E', symObjAddr: 0x9CE4, symBinAddr: 0x1E54C, symSize: 0x14 }
  - { offset: 0x96266, size: 0x8, addend: 0x0, symName: '__ZN4pyo38instance11Py$LT$T$GT$13from_non_null17h63d3ea4e8d61294bE', symObjAddr: 0x9CF8, symBinAddr: 0x1E560, symSize: 0x14 }
  - { offset: 0x96292, size: 0x8, addend: 0x0, symName: '__ZN4pyo38instance11Py$LT$T$GT$13from_non_null17h88ce2fa2e51f98b3E', symObjAddr: 0x9D34, symBinAddr: 0x1E574, symSize: 0x14 }
  - { offset: 0x962BE, size: 0x8, addend: 0x0, symName: '__ZN4pyo38instance11Py$LT$T$GT$13from_non_null17h8ad76d2aaf66302aE', symObjAddr: 0x9D48, symBinAddr: 0x1E588, symSize: 0x14 }
  - { offset: 0x962EA, size: 0x8, addend: 0x0, symName: '__ZN4pyo38instance11Py$LT$T$GT$13from_non_null17ha0443a843ec9bed1E', symObjAddr: 0x9D5C, symBinAddr: 0x1E59C, symSize: 0x14 }
  - { offset: 0x96316, size: 0x8, addend: 0x0, symName: '__ZN4pyo38instance11Py$LT$T$GT$13from_non_null17hceb8c3f33b6ddfb0E', symObjAddr: 0x9D84, symBinAddr: 0x1E5B0, symSize: 0x14 }
  - { offset: 0x96342, size: 0x8, addend: 0x0, symName: '__ZN4pyo38instance11Py$LT$T$GT$13from_non_null17hfb9f86828a019091E', symObjAddr: 0x9DE8, symBinAddr: 0x1E5C4, symSize: 0x14 }
  - { offset: 0x96399, size: 0x8, addend: 0x0, symName: '__ZN4pyo38instance11Py$LT$T$GT$14from_owned_ptr17heb6a28ceba718827E', symObjAddr: 0x9E60, symBinAddr: 0x1E5D8, symSize: 0x50 }
  - { offset: 0x963E0, size: 0x8, addend: 0x0, symName: '__ZN4pyo38instance11Py$LT$T$GT$21from_owned_ptr_or_err17h1c9f1f3789b00ee5E', symObjAddr: 0x9EB0, symBinAddr: 0x1E628, symSize: 0x94 }
  - { offset: 0x96445, size: 0x8, addend: 0x0, symName: '__ZN4pyo38instance11Py$LT$T$GT$21from_owned_ptr_or_err17hbba5838aea0c2404E', symObjAddr: 0x9F44, symBinAddr: 0x1E6BC, symSize: 0x94 }
  - { offset: 0x964AA, size: 0x8, addend: 0x0, symName: '__ZN4pyo38instance11Py$LT$T$GT$21from_owned_ptr_or_err17hcd37dd159131ce5fE', symObjAddr: 0x9FD8, symBinAddr: 0x1E750, symSize: 0x94 }
  - { offset: 0x9650F, size: 0x8, addend: 0x0, symName: '__ZN4pyo38instance11Py$LT$T$GT$21from_owned_ptr_or_opt17h7ef2621511ed28c6E', symObjAddr: 0xA06C, symBinAddr: 0x1E7E4, symSize: 0x28 }
  - { offset: 0x9658A, size: 0x8, addend: 0x0, symName: '__ZN4pyo38instance11Py$LT$T$GT$4bind17h899b7a257d30d38dE', symObjAddr: 0xA1BC, symBinAddr: 0x1E820, symSize: 0x74 }
  - { offset: 0x965EB, size: 0x8, addend: 0x0, symName: '__ZN4pyo38instance11Py$LT$T$GT$4bind17hb1b094f00c19a421E', symObjAddr: 0xA230, symBinAddr: 0x1E894, symSize: 0x74 }
  - { offset: 0x9663F, size: 0x8, addend: 0x0, symName: '__ZN4pyo38instance11Py$LT$T$GT$4bind17hc01c5c1305f3761bE', symObjAddr: 0xA2A4, symBinAddr: 0x1E908, symSize: 0x74 }
  - { offset: 0x966A0, size: 0x8, addend: 0x0, symName: '__ZN4pyo38instance11Py$LT$T$GT$4bind17hd7f629f2a0bab088E', symObjAddr: 0xA318, symBinAddr: 0x1E97C, symSize: 0x74 }
  - { offset: 0x966E7, size: 0x8, addend: 0x0, symName: '__ZN4pyo38instance11Py$LT$T$GT$6as_ptr17h0137adecf64f245fE', symObjAddr: 0xA41C, symBinAddr: 0x1E9F0, symSize: 0x1C }
  - { offset: 0x96720, size: 0x8, addend: 0x0, symName: '__ZN4pyo38instance11Py$LT$T$GT$6as_ptr17h0461e26508fb39f7E', symObjAddr: 0xA438, symBinAddr: 0x1EA0C, symSize: 0x1C }
  - { offset: 0x9674C, size: 0x8, addend: 0x0, symName: '__ZN4pyo38instance11Py$LT$T$GT$6as_ptr17h389a63d0628e4571E', symObjAddr: 0xA4C4, symBinAddr: 0x1EA28, symSize: 0x1C }
  - { offset: 0x96785, size: 0x8, addend: 0x0, symName: '__ZN4pyo38instance11Py$LT$T$GT$6as_ptr17h39a3f1206193b5acE', symObjAddr: 0xA4E0, symBinAddr: 0x1EA44, symSize: 0x1C }
  - { offset: 0x967B1, size: 0x8, addend: 0x0, symName: '__ZN4pyo38instance11Py$LT$T$GT$6as_ptr17h43c3f16a2e2318f7E', symObjAddr: 0xA518, symBinAddr: 0x1EA60, symSize: 0x1C }
  - { offset: 0x967DD, size: 0x8, addend: 0x0, symName: '__ZN4pyo38instance11Py$LT$T$GT$6as_ptr17h46f450b266c70fc8E', symObjAddr: 0xA550, symBinAddr: 0x1EA7C, symSize: 0x1C }
  - { offset: 0x96809, size: 0x8, addend: 0x0, symName: '__ZN4pyo38instance11Py$LT$T$GT$6as_ptr17h4f3c9cc98dad00ddE', symObjAddr: 0xA5A4, symBinAddr: 0x1EA98, symSize: 0x1C }
  - { offset: 0x96842, size: 0x8, addend: 0x0, symName: '__ZN4pyo38instance11Py$LT$T$GT$6as_ptr17h5e7342ef14fe0717E', symObjAddr: 0xA5DC, symBinAddr: 0x1EAB4, symSize: 0x1C }
  - { offset: 0x9686E, size: 0x8, addend: 0x0, symName: '__ZN4pyo38instance11Py$LT$T$GT$6as_ptr17h671681d95bd1ad5cE', symObjAddr: 0xA5F8, symBinAddr: 0x1EAD0, symSize: 0x1C }
  - { offset: 0x9689A, size: 0x8, addend: 0x0, symName: '__ZN4pyo38instance11Py$LT$T$GT$6as_ptr17h8774e9533fb249a0E', symObjAddr: 0xA64C, symBinAddr: 0x1EAEC, symSize: 0x1C }
  - { offset: 0x968D3, size: 0x8, addend: 0x0, symName: '__ZN4pyo38instance11Py$LT$T$GT$6as_ptr17h99e86a2df3b6b1c8E', symObjAddr: 0xA668, symBinAddr: 0x1EB08, symSize: 0x1C }
  - { offset: 0x9690C, size: 0x8, addend: 0x0, symName: '__ZN4pyo38instance11Py$LT$T$GT$6as_ptr17h9a638fb1fe6ab1d4E', symObjAddr: 0xA684, symBinAddr: 0x1EB24, symSize: 0x1C }
  - { offset: 0x96938, size: 0x8, addend: 0x0, symName: '__ZN4pyo38instance11Py$LT$T$GT$6as_ptr17h9f34c062b9361123E', symObjAddr: 0xA6BC, symBinAddr: 0x1EB40, symSize: 0x1C }
  - { offset: 0x96964, size: 0x8, addend: 0x0, symName: '__ZN4pyo38instance11Py$LT$T$GT$6as_ptr17hfa58e3ce2f87ed19E', symObjAddr: 0xA748, symBinAddr: 0x1EB5C, symSize: 0x1C }
  - { offset: 0x9699D, size: 0x8, addend: 0x0, symName: '__ZN4pyo38instance11Py$LT$T$GT$6as_ptr17hfc0278118a10275dE', symObjAddr: 0xA764, symBinAddr: 0x1EB78, symSize: 0x1C }
  - { offset: 0x969C9, size: 0x8, addend: 0x0, symName: '__ZN4pyo38instance11Py$LT$T$GT$8into_any17h05347c9bf0d41e77E', symObjAddr: 0xA780, symBinAddr: 0x1EB94, symSize: 0x3C }
  - { offset: 0x969F5, size: 0x8, addend: 0x0, symName: '__ZN4pyo38instance11Py$LT$T$GT$8into_any17h1dc31233d54ff21dE', symObjAddr: 0xA7BC, symBinAddr: 0x1EBD0, symSize: 0x3C }
  - { offset: 0x96A21, size: 0x8, addend: 0x0, symName: '__ZN4pyo38instance11Py$LT$T$GT$8into_any17h35ffcc2e521c2aa8E', symObjAddr: 0xA834, symBinAddr: 0x1EC0C, symSize: 0x3C }
  - { offset: 0x96A4D, size: 0x8, addend: 0x0, symName: '__ZN4pyo38instance11Py$LT$T$GT$8into_any17h9c480e68406900aeE', symObjAddr: 0xA924, symBinAddr: 0x1EC48, symSize: 0x3C }
  - { offset: 0x96A79, size: 0x8, addend: 0x0, symName: '__ZN4pyo38instance11Py$LT$T$GT$8into_any17h9eb3b82c31d14e0bE', symObjAddr: 0xA960, symBinAddr: 0x1EC84, symSize: 0x3C }
  - { offset: 0x96AA5, size: 0x8, addend: 0x0, symName: '__ZN4pyo38instance11Py$LT$T$GT$8into_any17ha14cbe162be75411E', symObjAddr: 0xA99C, symBinAddr: 0x1ECC0, symSize: 0x3C }
  - { offset: 0x96AD1, size: 0x8, addend: 0x0, symName: '__ZN4pyo38instance11Py$LT$T$GT$8into_any17hd592fd5bc608e4d3E', symObjAddr: 0xAA14, symBinAddr: 0x1ECFC, symSize: 0x3C }
  - { offset: 0x96AFD, size: 0x8, addend: 0x0, symName: '__ZN4pyo38instance11Py$LT$T$GT$8into_any17hdbb232976afa9896E', symObjAddr: 0xAA50, symBinAddr: 0x1ED38, symSize: 0x3C }
  - { offset: 0x96B29, size: 0x8, addend: 0x0, symName: '__ZN4pyo38instance11Py$LT$T$GT$8into_any17hddec483ecb9e323cE', symObjAddr: 0xAA8C, symBinAddr: 0x1ED74, symSize: 0x3C }
  - { offset: 0x96B55, size: 0x8, addend: 0x0, symName: '__ZN4pyo38instance11Py$LT$T$GT$8into_any17hea7ae9458860bda4E', symObjAddr: 0xAAC8, symBinAddr: 0x1EDB0, symSize: 0x3C }
  - { offset: 0x96B81, size: 0x8, addend: 0x0, symName: '__ZN4pyo38instance11Py$LT$T$GT$8into_ptr17hd7dce30321a23e97E', symObjAddr: 0xAB34, symBinAddr: 0x1EDEC, symSize: 0x30 }
  - { offset: 0x96BAD, size: 0x8, addend: 0x0, symName: '__ZN4pyo38instance11Py$LT$T$GT$9clone_ref17h01163582785ec3d1E', symObjAddr: 0xAB64, symBinAddr: 0x1EE1C, symSize: 0x100 }
  - { offset: 0x96C5C, size: 0x8, addend: 0x0, symName: '__ZN4pyo38instance11Py$LT$T$GT$9clone_ref17h5c246527e8f8ed53E', symObjAddr: 0xB164, symBinAddr: 0x1EF1C, symSize: 0x100 }
  - { offset: 0x96D0B, size: 0x8, addend: 0x0, symName: '__ZN4pyo38instance11Py$LT$T$GT$9clone_ref17h90c1c63633886bf8E', symObjAddr: 0xB464, symBinAddr: 0x1F01C, symSize: 0x100 }
  - { offset: 0x96DBA, size: 0x8, addend: 0x0, symName: '__ZN4pyo38instance11Py$LT$T$GT$9clone_ref17h92de2b4a718251d0E', symObjAddr: 0xB564, symBinAddr: 0x1F11C, symSize: 0x100 }
  - { offset: 0x96E69, size: 0x8, addend: 0x0, symName: '__ZN4pyo38instance11Py$LT$T$GT$9clone_ref17ha9c4e2eed39afa0fE', symObjAddr: 0xB664, symBinAddr: 0x1F21C, symSize: 0x100 }
  - { offset: 0x96F18, size: 0x8, addend: 0x0, symName: '__ZN4pyo38instance11Py$LT$T$GT$9clone_ref17hbf8b494941ca912fE', symObjAddr: 0xB764, symBinAddr: 0x1F31C, symSize: 0x100 }
  - { offset: 0x96FC7, size: 0x8, addend: 0x0, symName: '__ZN4pyo38instance14Bound$LT$T$GT$11as_borrowed17h0efd776a752d7e51E', symObjAddr: 0xBCA4, symBinAddr: 0x1F714, symSize: 0x48 }
  - { offset: 0x9700D, size: 0x8, addend: 0x0, symName: '__ZN4pyo38instance14Bound$LT$T$GT$11as_borrowed17h55177043f5b90c61E', symObjAddr: 0xBD7C, symBinAddr: 0x1F75C, symSize: 0x48 }
  - { offset: 0x97046, size: 0x8, addend: 0x0, symName: '__ZN4pyo38instance14Bound$LT$T$GT$11as_borrowed17h6a43a2f1ad6cc9ffE', symObjAddr: 0xBDC4, symBinAddr: 0x1F7A4, symSize: 0x48 }
  - { offset: 0x97072, size: 0x8, addend: 0x0, symName: '__ZN4pyo38instance14Bound$LT$T$GT$11as_borrowed17h87bd01b57dc30608E', symObjAddr: 0xBE0C, symBinAddr: 0x1F7EC, symSize: 0x48 }
  - { offset: 0x9709E, size: 0x8, addend: 0x0, symName: '__ZN4pyo38instance14Bound$LT$T$GT$11as_borrowed17h9a9d37d245fd4383E', symObjAddr: 0xBE54, symBinAddr: 0x1F834, symSize: 0x48 }
  - { offset: 0x970D7, size: 0x8, addend: 0x0, symName: '__ZN4pyo38instance14Bound$LT$T$GT$2py17h38356fd918cdf117E', symObjAddr: 0xBFA4, symBinAddr: 0x1F87C, symSize: 0x10 }
  - { offset: 0x97103, size: 0x8, addend: 0x0, symName: '__ZN4pyo38instance14Bound$LT$T$GT$2py17h4901b7ee394e6c36E', symObjAddr: 0xBFC4, symBinAddr: 0x1F88C, symSize: 0x10 }
  - { offset: 0x9713C, size: 0x8, addend: 0x0, symName: '__ZN4pyo38instance14Bound$LT$T$GT$2py17h51fffb5a04cbe8cbE', symObjAddr: 0xBFD4, symBinAddr: 0x1F89C, symSize: 0x10 }
  - { offset: 0x97175, size: 0x8, addend: 0x0, symName: '__ZN4pyo38instance14Bound$LT$T$GT$2py17h6fc76dab79614aabE', symObjAddr: 0xC004, symBinAddr: 0x1F8AC, symSize: 0x10 }
  - { offset: 0x971A1, size: 0x8, addend: 0x0, symName: '__ZN4pyo38instance14Bound$LT$T$GT$2py17hc490c2db768c7063E', symObjAddr: 0xC054, symBinAddr: 0x1F8BC, symSize: 0x10 }
  - { offset: 0x971CD, size: 0x8, addend: 0x0, symName: '__ZN4pyo38instance14Bound$LT$T$GT$2py17hd48a42577e09045eE', symObjAddr: 0xC074, symBinAddr: 0x1F8CC, symSize: 0x10 }
  - { offset: 0x971F9, size: 0x8, addend: 0x0, symName: '__ZN4pyo38instance14Bound$LT$T$GT$2py17hd5f9cd544d782476E', symObjAddr: 0xC084, symBinAddr: 0x1F8DC, symSize: 0x10 }
  - { offset: 0x97225, size: 0x8, addend: 0x0, symName: '__ZN4pyo38instance14Bound$LT$T$GT$2py17he417b46f5f09b9d3E', symObjAddr: 0xC0B4, symBinAddr: 0x1F8EC, symSize: 0x10 }
  - { offset: 0x97251, size: 0x8, addend: 0x0, symName: '__ZN4pyo38instance14Bound$LT$T$GT$2py17hf31c43751b2d9a1eE', symObjAddr: 0xC0C4, symBinAddr: 0x1F8FC, symSize: 0x10 }
  - { offset: 0x9727D, size: 0x8, addend: 0x0, symName: '__ZN4pyo38instance14Bound$LT$T$GT$2py17hfa84e1c4ecbcd268E', symObjAddr: 0xC0D4, symBinAddr: 0x1F90C, symSize: 0x10 }
  - { offset: 0x972A9, size: 0x8, addend: 0x0, symName: '__ZN4pyo38instance14Bound$LT$T$GT$6as_any17h3a4951f2d4784d6fE', symObjAddr: 0xC240, symBinAddr: 0x1F91C, symSize: 0x74 }
  - { offset: 0x972D5, size: 0x8, addend: 0x0, symName: '__ZN4pyo38instance14Bound$LT$T$GT$6as_any17h4af27468657124a0E', symObjAddr: 0xC2B4, symBinAddr: 0x1F990, symSize: 0x74 }
  - { offset: 0x97301, size: 0x8, addend: 0x0, symName: '__ZN4pyo38instance14Bound$LT$T$GT$6as_any17h4ce4488750ff7c41E', symObjAddr: 0xC328, symBinAddr: 0x1FA04, symSize: 0x74 }
  - { offset: 0x9732D, size: 0x8, addend: 0x0, symName: '__ZN4pyo38instance14Bound$LT$T$GT$6as_any17h4fb2fbd7a185dd58E', symObjAddr: 0xC39C, symBinAddr: 0x1FA78, symSize: 0x74 }
  - { offset: 0x97359, size: 0x8, addend: 0x0, symName: '__ZN4pyo38instance14Bound$LT$T$GT$6as_any17h74324351b983e200E', symObjAddr: 0xC4F8, symBinAddr: 0x1FAEC, symSize: 0x74 }
  - { offset: 0x97392, size: 0x8, addend: 0x0, symName: '__ZN4pyo38instance14Bound$LT$T$GT$6as_any17h948b01ec7ea3106cE', symObjAddr: 0xC56C, symBinAddr: 0x1FB60, symSize: 0x74 }
  - { offset: 0x973BE, size: 0x8, addend: 0x0, symName: '__ZN4pyo38instance14Bound$LT$T$GT$6as_any17he28c7a584c70a51bE', symObjAddr: 0xC6C8, symBinAddr: 0x1FBD4, symSize: 0x74 }
  - { offset: 0x973EA, size: 0x8, addend: 0x0, symName: '__ZN4pyo38instance14Bound$LT$T$GT$6as_any17he5ead2ae6c62a33eE', symObjAddr: 0xC73C, symBinAddr: 0x1FC48, symSize: 0x74 }
  - { offset: 0x97416, size: 0x8, addend: 0x0, symName: '__ZN4pyo38instance14Bound$LT$T$GT$6as_ptr17h0fad3942b1460d65E', symObjAddr: 0xC7B0, symBinAddr: 0x1FCBC, symSize: 0x2C }
  - { offset: 0x97442, size: 0x8, addend: 0x0, symName: '__ZN4pyo38instance14Bound$LT$T$GT$6as_ptr17h10c942102a38011fE', symObjAddr: 0xC7DC, symBinAddr: 0x1FCE8, symSize: 0x2C }
  - { offset: 0x9746E, size: 0x8, addend: 0x0, symName: '__ZN4pyo38instance14Bound$LT$T$GT$6as_ptr17h4d41ae45f320a5f3E', symObjAddr: 0xC8B8, symBinAddr: 0x1FD14, symSize: 0x2C }
  - { offset: 0x9749A, size: 0x8, addend: 0x0, symName: '__ZN4pyo38instance14Bound$LT$T$GT$6as_ptr17h50337aaf10540e65E', symObjAddr: 0xC8E4, symBinAddr: 0x1FD40, symSize: 0x2C }
  - { offset: 0x974C6, size: 0x8, addend: 0x0, symName: '__ZN4pyo38instance14Bound$LT$T$GT$6as_ptr17h5e770aec5e8c00e0E', symObjAddr: 0xC93C, symBinAddr: 0x1FD6C, symSize: 0x2C }
  - { offset: 0x974F2, size: 0x8, addend: 0x0, symName: '__ZN4pyo38instance14Bound$LT$T$GT$6as_ptr17h63dc96aa0dbc8b0bE', symObjAddr: 0xC968, symBinAddr: 0x1FD98, symSize: 0x2C }
  - { offset: 0x9751E, size: 0x8, addend: 0x0, symName: '__ZN4pyo38instance14Bound$LT$T$GT$6as_ptr17h957bd679888a8cc5E', symObjAddr: 0xCA44, symBinAddr: 0x1FDC4, symSize: 0x2C }
  - { offset: 0x9754A, size: 0x8, addend: 0x0, symName: '__ZN4pyo38instance14Bound$LT$T$GT$6as_ptr17hb091c885b4719bf6E', symObjAddr: 0xCAC8, symBinAddr: 0x1FDF0, symSize: 0x2C }
  - { offset: 0x97576, size: 0x8, addend: 0x0, symName: '__ZN4pyo38instance14Bound$LT$T$GT$6as_ptr17hb8282aaaeaa8bd98E', symObjAddr: 0xCB20, symBinAddr: 0x1FE1C, symSize: 0x2C }
  - { offset: 0x975A2, size: 0x8, addend: 0x0, symName: '__ZN4pyo38instance14Bound$LT$T$GT$6as_ptr17hc95a81f17b625ba8E', symObjAddr: 0xCB78, symBinAddr: 0x1FE48, symSize: 0x2C }
  - { offset: 0x975DB, size: 0x8, addend: 0x0, symName: '__ZN4pyo38instance14Bound$LT$T$GT$6as_ptr17hcc2ac7814f789e0aE', symObjAddr: 0xCBA4, symBinAddr: 0x1FE74, symSize: 0x2C }
  - { offset: 0x97607, size: 0x8, addend: 0x0, symName: '__ZN4pyo38instance14Bound$LT$T$GT$6as_ptr17he45f1581df0140e2E', symObjAddr: 0xCC80, symBinAddr: 0x1FEA0, symSize: 0x2C }
  - { offset: 0x97633, size: 0x8, addend: 0x0, symName: '__ZN4pyo38instance14Bound$LT$T$GT$6as_ptr17hf81e7061d09f7dd0E', symObjAddr: 0xCCAC, symBinAddr: 0x1FECC, symSize: 0x2C }
  - { offset: 0x9765F, size: 0x8, addend: 0x0, symName: '__ZN4pyo38instance14Bound$LT$T$GT$6as_ptr17hffd96eda4e80e544E', symObjAddr: 0xCCD8, symBinAddr: 0x1FEF8, symSize: 0x2C }
  - { offset: 0x9768B, size: 0x8, addend: 0x0, symName: '__ZN4pyo38instance14Bound$LT$T$GT$6unbind17h28104e69e2285f7fE', symObjAddr: 0xCD04, symBinAddr: 0x1FF24, symSize: 0x48 }
  - { offset: 0x976D5, size: 0x8, addend: 0x0, symName: '__ZN4pyo38instance14Bound$LT$T$GT$6unbind17h29c4f864fe339f8cE', symObjAddr: 0xCD4C, symBinAddr: 0x1FF6C, symSize: 0x48 }
  - { offset: 0x9771F, size: 0x8, addend: 0x0, symName: '__ZN4pyo38instance14Bound$LT$T$GT$6unbind17h3e8186eea15e826eE', symObjAddr: 0xCD94, symBinAddr: 0x1FFB4, symSize: 0x48 }
  - { offset: 0x97769, size: 0x8, addend: 0x0, symName: '__ZN4pyo38instance14Bound$LT$T$GT$6unbind17h45e24a42c6091b86E', symObjAddr: 0xCDDC, symBinAddr: 0x1FFFC, symSize: 0x48 }
  - { offset: 0x977B3, size: 0x8, addend: 0x0, symName: '__ZN4pyo38instance14Bound$LT$T$GT$6unbind17h721a370bbc3ceaa0E', symObjAddr: 0xCE24, symBinAddr: 0x20044, symSize: 0x48 }
  - { offset: 0x977FD, size: 0x8, addend: 0x0, symName: '__ZN4pyo38instance14Bound$LT$T$GT$6unbind17h79fba9d581b76d53E', symObjAddr: 0xCE6C, symBinAddr: 0x2008C, symSize: 0x48 }
  - { offset: 0x97847, size: 0x8, addend: 0x0, symName: '__ZN4pyo38instance14Bound$LT$T$GT$6unbind17h7f6e0141402c8c41E', symObjAddr: 0xCEB4, symBinAddr: 0x200D4, symSize: 0x48 }
  - { offset: 0x97891, size: 0x8, addend: 0x0, symName: '__ZN4pyo38instance14Bound$LT$T$GT$6unbind17h7fd462a65352bca6E', symObjAddr: 0xCEFC, symBinAddr: 0x2011C, symSize: 0x48 }
  - { offset: 0x978DB, size: 0x8, addend: 0x0, symName: '__ZN4pyo38instance14Bound$LT$T$GT$6unbind17h8cd5312e900240b2E', symObjAddr: 0xCF8C, symBinAddr: 0x20164, symSize: 0x48 }
  - { offset: 0x97925, size: 0x8, addend: 0x0, symName: '__ZN4pyo38instance14Bound$LT$T$GT$6unbind17hbf161341de6d43ecE', symObjAddr: 0xD064, symBinAddr: 0x201AC, symSize: 0x48 }
  - { offset: 0x9796F, size: 0x8, addend: 0x0, symName: '__ZN4pyo38instance14Bound$LT$T$GT$6unbind17he6dc804a3948f1cbE', symObjAddr: 0xD0F4, symBinAddr: 0x201F4, symSize: 0x48 }
  - { offset: 0x979B9, size: 0x8, addend: 0x0, symName: '__ZN4pyo38instance14Bound$LT$T$GT$8into_any17h0ead213c173425f0E', symObjAddr: 0xD184, symBinAddr: 0x2023C, symSize: 0x30 }
  - { offset: 0x979E5, size: 0x8, addend: 0x0, symName: '__ZN4pyo38instance14Bound$LT$T$GT$8into_any17h13e752d145609f1bE', symObjAddr: 0xD1B4, symBinAddr: 0x2026C, symSize: 0x30 }
  - { offset: 0x97A11, size: 0x8, addend: 0x0, symName: '__ZN4pyo38instance14Bound$LT$T$GT$8into_any17h559b41f1b57ac15cE', symObjAddr: 0xD244, symBinAddr: 0x2029C, symSize: 0x30 }
  - { offset: 0x97A3D, size: 0x8, addend: 0x0, symName: '__ZN4pyo38instance14Bound$LT$T$GT$8into_any17h67912264509c5658E', symObjAddr: 0xD274, symBinAddr: 0x202CC, symSize: 0x30 }
  - { offset: 0x97A69, size: 0x8, addend: 0x0, symName: '__ZN4pyo38instance14Bound$LT$T$GT$8into_any17hafad5c8e649ac37eE', symObjAddr: 0xD2D4, symBinAddr: 0x202FC, symSize: 0x30 }
  - { offset: 0x97A95, size: 0x8, addend: 0x0, symName: '__ZN4pyo38instance14Bound$LT$T$GT$8into_any17hc13891beecd2bbabE', symObjAddr: 0xD304, symBinAddr: 0x2032C, symSize: 0x30 }
  - { offset: 0x97AC1, size: 0x8, addend: 0x0, symName: '__ZN4pyo38instance14Bound$LT$T$GT$8into_any17hd30be288bd247fb4E', symObjAddr: 0xD364, symBinAddr: 0x2035C, symSize: 0x30 }
  - { offset: 0x97AED, size: 0x8, addend: 0x0, symName: '__ZN4pyo38instance14Bound$LT$T$GT$8into_any17hd994083a72ea4e9fE', symObjAddr: 0xD394, symBinAddr: 0x2038C, symSize: 0x30 }
  - { offset: 0x97B19, size: 0x8, addend: 0x0, symName: '__ZN4pyo38instance14Bound$LT$T$GT$8into_any17hdd6f0077002c82cfE', symObjAddr: 0xD3C4, symBinAddr: 0x203BC, symSize: 0x30 }
  - { offset: 0x97B45, size: 0x8, addend: 0x0, symName: '__ZN4pyo38instance14Bound$LT$T$GT$8into_any17he557bd04e7f48d09E', symObjAddr: 0xD3F4, symBinAddr: 0x203EC, symSize: 0x30 }
  - { offset: 0x97B71, size: 0x8, addend: 0x0, symName: '__ZN4pyo38instance14Bound$LT$T$GT$8into_ptr17h68fccd23ec6e5ff7E', symObjAddr: 0xD454, symBinAddr: 0x2041C, symSize: 0x40 }
  - { offset: 0x97B9D, size: 0x8, addend: 0x0, symName: '__ZN4pyo38instance17Borrowed$LT$T$GT$6as_ptr17h1e6fdf2282178591E', symObjAddr: 0xD494, symBinAddr: 0x2045C, symSize: 0x1C }
  - { offset: 0x97BC9, size: 0x8, addend: 0x0, symName: '__ZN4pyo38instance17Borrowed$LT$T$GT$6as_ptr17h22a9ca36cfc439f7E', symObjAddr: 0xD4B0, symBinAddr: 0x20478, symSize: 0x1C }
  - { offset: 0x97BF5, size: 0x8, addend: 0x0, symName: '__ZN4pyo38instance17Borrowed$LT$T$GT$6as_ptr17h74de12cc4bac2d32E', symObjAddr: 0xD4CC, symBinAddr: 0x20494, symSize: 0x1C }
  - { offset: 0x97C21, size: 0x8, addend: 0x0, symName: '__ZN4pyo38instance17Borrowed$LT$T$GT$6as_ptr17he03f112d2d3b0ee9E', symObjAddr: 0xD504, symBinAddr: 0x204B0, symSize: 0x1C }
  - { offset: 0x97C4D, size: 0x8, addend: 0x0, symName: '__ZN4pyo38instance17Borrowed$LT$T$GT$6as_ptr17hf1d8417d974c0c91E', symObjAddr: 0xD520, symBinAddr: 0x204CC, symSize: 0x1C }
  - { offset: 0x97C79, size: 0x8, addend: 0x0, symName: '__ZN4pyo38instance17Borrowed$LT$T$GT$6to_any17h2a351438f0bd1ad2E', symObjAddr: 0xD53C, symBinAddr: 0x204E8, symSize: 0x14 }
  - { offset: 0x97CA5, size: 0x8, addend: 0x0, symName: '__ZN4pyo38instance17Borrowed$LT$T$GT$6to_any17h5f96883df2710819E', symObjAddr: 0xD578, symBinAddr: 0x204FC, symSize: 0x14 }
  - { offset: 0x97CD1, size: 0x8, addend: 0x0, symName: '__ZN4pyo38instance17Borrowed$LT$T$GT$6to_any17h68f6ffef56d2ef37E', symObjAddr: 0xD58C, symBinAddr: 0x20510, symSize: 0x14 }
  - { offset: 0x97CFD, size: 0x8, addend: 0x0, symName: '__ZN4pyo38instance17Borrowed$LT$T$GT$8to_owned17h46ebf1cff74be0e3E', symObjAddr: 0xD5C8, symBinAddr: 0x20524, symSize: 0x2C }
  - { offset: 0x97D29, size: 0x8, addend: 0x0, symName: '__ZN4pyo38instance17Borrowed$LT$T$GT$8to_owned17h6d9760b3c6b064ebE', symObjAddr: 0xD5F4, symBinAddr: 0x20550, symSize: 0x2C }
  - { offset: 0x97D55, size: 0x8, addend: 0x0, symName: '__ZN4pyo38instance17Borrowed$LT$T$GT$8to_owned17he15ac0dd28dafdd3E', symObjAddr: 0xD620, symBinAddr: 0x2057C, symSize: 0x2C }
  - { offset: 0x97D8E, size: 0x8, addend: 0x0, symName: '__ZN4pyo38instance36Bound$LT$pyo3..types..any..PyAny$GT$14from_owned_ptr17h2707b20426bddff6E', symObjAddr: 0xD6C0, symBinAddr: 0x205A8, symSize: 0x2C }
  - { offset: 0x97DD6, size: 0x8, addend: 0x0, symName: '__ZN4pyo38instance36Bound$LT$pyo3..types..any..PyAny$GT$21from_owned_ptr_or_err17h4d4769e46aa5f542E', symObjAddr: 0xD760, symBinAddr: 0x205D4, symSize: 0x40 }
  - { offset: 0x97E11, size: 0x8, addend: 0x0, symName: '__ZN4pyo38instance36Bound$LT$pyo3..types..any..PyAny$GT$21from_owned_ptr_or_opt17ha621db36c9c9c1acE', symObjAddr: 0xD7C8, symBinAddr: 0x2063C, symSize: 0x2C }
  - { offset: 0x97E4C, size: 0x8, addend: 0x0, symName: '__ZN4pyo38instance39Borrowed$LT$pyo3..types..any..PyAny$GT$18downcast_unchecked17h705c391de674fbeaE', symObjAddr: 0xD90C, symBinAddr: 0x20690, symSize: 0x14 }
  - { offset: 0x97E78, size: 0x8, addend: 0x0, symName: '__ZN4pyo38instance39Borrowed$LT$pyo3..types..any..PyAny$GT$18downcast_unchecked17h9f96e162cdfc33c1E', symObjAddr: 0xD934, symBinAddr: 0x206A4, symSize: 0x14 }
  - { offset: 0x97EA4, size: 0x8, addend: 0x0, symName: '__ZN4pyo38instance39Borrowed$LT$pyo3..types..any..PyAny$GT$18downcast_unchecked17hef7ff6298888d7feE', symObjAddr: 0xD948, symBinAddr: 0x206B8, symSize: 0x14 }
  - { offset: 0x97ED0, size: 0x8, addend: 0x0, symName: '__ZN4pyo38instance39Borrowed$LT$pyo3..types..any..PyAny$GT$18from_ptr_unchecked17hf7be3391f3b81545E', symObjAddr: 0xD95C, symBinAddr: 0x206CC, symSize: 0x2C }
  - { offset: 0x97F0E, size: 0x8, addend: 0x0, symName: '__ZN4pyo38instance39Borrowed$LT$pyo3..types..any..PyAny$GT$8downcast17he8342a1fbb759caeE', symObjAddr: 0xDA98, symBinAddr: 0x206F8, symSize: 0x88 }
  - { offset: 0x97F3A, size: 0x8, addend: 0x0, symName: '__ZN4pyo38instance39Borrowed$LT$pyo3..types..any..PyAny$GT$8from_ptr17h4198fcf0b8fe0d64E', symObjAddr: 0xDB20, symBinAddr: 0x20780, symSize: 0x34 }
  - { offset: 0x98F25, size: 0x8, addend: 0x0, symName: '__ZN152_$LT$core..result..Result$LT$pyo3..instance..Bound$LT$pyo3..types..any..PyAny$GT$$C$pyo3..err..PyErr$GT$$u20$as$u20$pyo3..py_result_ext..PyResultExt$GT$23downcast_into_unchecked17h1a467bf03b8c58e0E', symObjAddr: 0x140, symBinAddr: 0x223F4, symSize: 0x40 }
  - { offset: 0x98F5B, size: 0x8, addend: 0x0, symName: '__ZN152_$LT$core..result..Result$LT$pyo3..instance..Bound$LT$pyo3..types..any..PyAny$GT$$C$pyo3..err..PyErr$GT$$u20$as$u20$pyo3..py_result_ext..PyResultExt$GT$23downcast_into_unchecked17h9f2624dd465c4bbbE', symObjAddr: 0x400, symBinAddr: 0x22434, symSize: 0x40 }
  - { offset: 0x98F91, size: 0x8, addend: 0x0, symName: '__ZN152_$LT$core..result..Result$LT$pyo3..instance..Bound$LT$pyo3..types..any..PyAny$GT$$C$pyo3..err..PyErr$GT$$u20$as$u20$pyo3..py_result_ext..PyResultExt$GT$23downcast_into_unchecked17hbd6eefd8a03c79daE', symObjAddr: 0x480, symBinAddr: 0x22474, symSize: 0x40 }
  - { offset: 0x9A268, size: 0x8, addend: 0x0, symName: '__ZN153_$LT$core..result..Result$LT$T$C$F$GT$$u20$as$u20$core..ops..try_trait..FromResidual$LT$core..result..Result$LT$core..convert..Infallible$C$E$GT$$GT$$GT$13from_residual17h0491857294656f51E', symObjAddr: 0x580, symBinAddr: 0x224B4, symSize: 0x6C }
  - { offset: 0x9A2EE, size: 0x8, addend: 0x0, symName: '__ZN153_$LT$core..result..Result$LT$T$C$F$GT$$u20$as$u20$core..ops..try_trait..FromResidual$LT$core..result..Result$LT$core..convert..Infallible$C$E$GT$$GT$$GT$13from_residual17h21a1857d998d2e20E', symObjAddr: 0x728, symBinAddr: 0x22520, symSize: 0x64 }
  - { offset: 0x9A356, size: 0x8, addend: 0x0, symName: '__ZN153_$LT$core..result..Result$LT$T$C$F$GT$$u20$as$u20$core..ops..try_trait..FromResidual$LT$core..result..Result$LT$core..convert..Infallible$C$E$GT$$GT$$GT$13from_residual17h2b9866730b1e45f8E', symObjAddr: 0x7F8, symBinAddr: 0x22584, symSize: 0x6C }
  - { offset: 0x9A3DC, size: 0x8, addend: 0x0, symName: '__ZN153_$LT$core..result..Result$LT$T$C$F$GT$$u20$as$u20$core..ops..try_trait..FromResidual$LT$core..result..Result$LT$core..convert..Infallible$C$E$GT$$GT$$GT$13from_residual17h2c0a44ed656049b1E', symObjAddr: 0x864, symBinAddr: 0x225F0, symSize: 0x6C }
  - { offset: 0x9A462, size: 0x8, addend: 0x0, symName: '__ZN153_$LT$core..result..Result$LT$T$C$F$GT$$u20$as$u20$core..ops..try_trait..FromResidual$LT$core..result..Result$LT$core..convert..Infallible$C$E$GT$$GT$$GT$13from_residual17h4f8d3b17117dbebfE', symObjAddr: 0xD00, symBinAddr: 0x2265C, symSize: 0x6C }
  - { offset: 0x9A4E8, size: 0x8, addend: 0x0, symName: '__ZN153_$LT$core..result..Result$LT$T$C$F$GT$$u20$as$u20$core..ops..try_trait..FromResidual$LT$core..result..Result$LT$core..convert..Infallible$C$E$GT$$GT$$GT$13from_residual17h580b51bda4f002d7E', symObjAddr: 0xDD8, symBinAddr: 0x226C8, symSize: 0x6C }
  - { offset: 0x9A56E, size: 0x8, addend: 0x0, symName: '__ZN153_$LT$core..result..Result$LT$T$C$F$GT$$u20$as$u20$core..ops..try_trait..FromResidual$LT$core..result..Result$LT$core..convert..Infallible$C$E$GT$$GT$$GT$13from_residual17h5cadeb3f494769bdE', symObjAddr: 0xE44, symBinAddr: 0x22734, symSize: 0x6C }
  - { offset: 0x9A5F4, size: 0x8, addend: 0x0, symName: '__ZN153_$LT$core..result..Result$LT$T$C$F$GT$$u20$as$u20$core..ops..try_trait..FromResidual$LT$core..result..Result$LT$core..convert..Infallible$C$E$GT$$GT$$GT$13from_residual17h66f584399c7c18dbE', symObjAddr: 0xF1C, symBinAddr: 0x227A0, symSize: 0x6C }
  - { offset: 0x9A67A, size: 0x8, addend: 0x0, symName: '__ZN153_$LT$core..result..Result$LT$T$C$F$GT$$u20$as$u20$core..ops..try_trait..FromResidual$LT$core..result..Result$LT$core..convert..Infallible$C$E$GT$$GT$$GT$13from_residual17h9a0e593921d19e80E', symObjAddr: 0x1630, symBinAddr: 0x2280C, symSize: 0x6C }
  - { offset: 0x9A700, size: 0x8, addend: 0x0, symName: '__ZN153_$LT$core..result..Result$LT$T$C$F$GT$$u20$as$u20$core..ops..try_trait..FromResidual$LT$core..result..Result$LT$core..convert..Infallible$C$E$GT$$GT$$GT$13from_residual17ha858704bd8edece8E', symObjAddr: 0x1774, symBinAddr: 0x22878, symSize: 0x6C }
  - { offset: 0x9A786, size: 0x8, addend: 0x0, symName: '__ZN153_$LT$core..result..Result$LT$T$C$F$GT$$u20$as$u20$core..ops..try_trait..FromResidual$LT$core..result..Result$LT$core..convert..Infallible$C$E$GT$$GT$$GT$13from_residual17ha978cab8e0c64356E', symObjAddr: 0x182C, symBinAddr: 0x228E4, symSize: 0x6C }
  - { offset: 0x9A80C, size: 0x8, addend: 0x0, symName: '__ZN153_$LT$core..result..Result$LT$T$C$F$GT$$u20$as$u20$core..ops..try_trait..FromResidual$LT$core..result..Result$LT$core..convert..Infallible$C$E$GT$$GT$$GT$13from_residual17hace40fea19292879E', symObjAddr: 0x1904, symBinAddr: 0x22950, symSize: 0x6C }
  - { offset: 0x9A892, size: 0x8, addend: 0x0, symName: '__ZN153_$LT$core..result..Result$LT$T$C$F$GT$$u20$as$u20$core..ops..try_trait..FromResidual$LT$core..result..Result$LT$core..convert..Infallible$C$E$GT$$GT$$GT$13from_residual17hbe923fb959339be2E', symObjAddr: 0x1ABC, symBinAddr: 0x229BC, symSize: 0x6C }
  - { offset: 0x9A918, size: 0x8, addend: 0x0, symName: '__ZN153_$LT$core..result..Result$LT$T$C$F$GT$$u20$as$u20$core..ops..try_trait..FromResidual$LT$core..result..Result$LT$core..convert..Infallible$C$E$GT$$GT$$GT$13from_residual17hc25bb28e7a3e389fE', symObjAddr: 0x1B94, symBinAddr: 0x22A28, symSize: 0x14 }
  - { offset: 0x9A961, size: 0x8, addend: 0x0, symName: '__ZN153_$LT$core..result..Result$LT$T$C$F$GT$$u20$as$u20$core..ops..try_trait..FromResidual$LT$core..result..Result$LT$core..convert..Infallible$C$E$GT$$GT$$GT$13from_residual17hc7e437893ec799a7E', symObjAddr: 0x1BA8, symBinAddr: 0x22A3C, symSize: 0x64 }
  - { offset: 0x9A9C9, size: 0x8, addend: 0x0, symName: '__ZN153_$LT$core..result..Result$LT$T$C$F$GT$$u20$as$u20$core..ops..try_trait..FromResidual$LT$core..result..Result$LT$core..convert..Infallible$C$E$GT$$GT$$GT$13from_residual17hd33ec220b04b56b9E', symObjAddr: 0x1C0C, symBinAddr: 0x22AA0, symSize: 0x6C }
  - { offset: 0x9AA4F, size: 0x8, addend: 0x0, symName: '__ZN153_$LT$core..result..Result$LT$T$C$F$GT$$u20$as$u20$core..ops..try_trait..FromResidual$LT$core..result..Result$LT$core..convert..Infallible$C$E$GT$$GT$$GT$13from_residual17hefd3e1df2b510d56E', symObjAddr: 0x2230, symBinAddr: 0x22B0C, symSize: 0x64 }
  - { offset: 0x9D130, size: 0x8, addend: 0x0, symName: __ZN4core6result6Result3Err17ha428872695f8e796E, symObjAddr: 0x5CAC, symBinAddr: 0x2374C, symSize: 0x3C }
  - { offset: 0x9D174, size: 0x8, addend: 0x0, symName: '__ZN79_$LT$core..result..Result$LT$T$C$E$GT$$u20$as$u20$core..ops..try_trait..Try$GT$6branch17h09b7ef2576b8cf76E', symObjAddr: 0x5D90, symBinAddr: 0x23788, symSize: 0xA0 }
  - { offset: 0x9D1F1, size: 0x8, addend: 0x0, symName: '__ZN79_$LT$core..result..Result$LT$T$C$E$GT$$u20$as$u20$core..ops..try_trait..Try$GT$6branch17h0eb90c8bfe5a229bE', symObjAddr: 0x5E30, symBinAddr: 0x23828, symSize: 0xA0 }
  - { offset: 0x9D26E, size: 0x8, addend: 0x0, symName: '__ZN79_$LT$core..result..Result$LT$T$C$E$GT$$u20$as$u20$core..ops..try_trait..Try$GT$6branch17h1069a5c318f97441E', symObjAddr: 0x5ED0, symBinAddr: 0x238C8, symSize: 0xA0 }
  - { offset: 0x9D2EB, size: 0x8, addend: 0x0, symName: '__ZN79_$LT$core..result..Result$LT$T$C$E$GT$$u20$as$u20$core..ops..try_trait..Try$GT$6branch17h1df844c4623396cfE', symObjAddr: 0x6194, symBinAddr: 0x23968, symSize: 0xA0 }
  - { offset: 0x9D368, size: 0x8, addend: 0x0, symName: '__ZN79_$LT$core..result..Result$LT$T$C$E$GT$$u20$as$u20$core..ops..try_trait..Try$GT$6branch17h2e65a01270d3c1c6E', symObjAddr: 0x6568, symBinAddr: 0x23A08, symSize: 0xA0 }
  - { offset: 0x9D3E5, size: 0x8, addend: 0x0, symName: '__ZN79_$LT$core..result..Result$LT$T$C$E$GT$$u20$as$u20$core..ops..try_trait..Try$GT$6branch17h3c4344f30b33e900E', symObjAddr: 0x6690, symBinAddr: 0x23AA8, symSize: 0xA0 }
  - { offset: 0x9D462, size: 0x8, addend: 0x0, symName: '__ZN79_$LT$core..result..Result$LT$T$C$E$GT$$u20$as$u20$core..ops..try_trait..Try$GT$6branch17h3d0bff5d81a3c6afE', symObjAddr: 0x6730, symBinAddr: 0x23B48, symSize: 0xA0 }
  - { offset: 0x9D4DF, size: 0x8, addend: 0x0, symName: '__ZN79_$LT$core..result..Result$LT$T$C$E$GT$$u20$as$u20$core..ops..try_trait..Try$GT$6branch17h5213c7403b436b23E', symObjAddr: 0x6A50, symBinAddr: 0x23BE8, symSize: 0x44 }
  - { offset: 0x9D55B, size: 0x8, addend: 0x0, symName: '__ZN79_$LT$core..result..Result$LT$T$C$E$GT$$u20$as$u20$core..ops..try_trait..Try$GT$6branch17h5354272701131bb0E', symObjAddr: 0x6A94, symBinAddr: 0x23C2C, symSize: 0x28 }
  - { offset: 0x9D5B9, size: 0x8, addend: 0x0, symName: '__ZN79_$LT$core..result..Result$LT$T$C$E$GT$$u20$as$u20$core..ops..try_trait..Try$GT$6branch17h55b7ea462029324cE', symObjAddr: 0x6ABC, symBinAddr: 0x23C54, symSize: 0xA0 }
  - { offset: 0x9D636, size: 0x8, addend: 0x0, symName: '__ZN79_$LT$core..result..Result$LT$T$C$E$GT$$u20$as$u20$core..ops..try_trait..Try$GT$6branch17h57e36f2c4738d8d9E', symObjAddr: 0x6BAC, symBinAddr: 0x23CF4, symSize: 0x28 }
  - { offset: 0x9D694, size: 0x8, addend: 0x0, symName: '__ZN79_$LT$core..result..Result$LT$T$C$E$GT$$u20$as$u20$core..ops..try_trait..Try$GT$6branch17h58cce8c146d6db39E', symObjAddr: 0x6BD4, symBinAddr: 0x23D1C, symSize: 0xA0 }
  - { offset: 0x9D711, size: 0x8, addend: 0x0, symName: '__ZN79_$LT$core..result..Result$LT$T$C$E$GT$$u20$as$u20$core..ops..try_trait..Try$GT$6branch17h5eec4b364e5f59b8E', symObjAddr: 0x6D14, symBinAddr: 0x23DBC, symSize: 0xA0 }
  - { offset: 0x9D78E, size: 0x8, addend: 0x0, symName: '__ZN79_$LT$core..result..Result$LT$T$C$E$GT$$u20$as$u20$core..ops..try_trait..Try$GT$6branch17h86012285f9080b42E', symObjAddr: 0x70E4, symBinAddr: 0x23E5C, symSize: 0x88 }
  - { offset: 0x9D80C, size: 0x8, addend: 0x0, symName: '__ZN79_$LT$core..result..Result$LT$T$C$E$GT$$u20$as$u20$core..ops..try_trait..Try$GT$6branch17h99fbaabc15f42e8bE', symObjAddr: 0x7474, symBinAddr: 0x23EE4, symSize: 0xA0 }
  - { offset: 0x9D889, size: 0x8, addend: 0x0, symName: '__ZN79_$LT$core..result..Result$LT$T$C$E$GT$$u20$as$u20$core..ops..try_trait..Try$GT$6branch17h9bb1c33afc1f9fc1E', symObjAddr: 0x7514, symBinAddr: 0x23F84, symSize: 0x88 }
  - { offset: 0x9D907, size: 0x8, addend: 0x0, symName: '__ZN79_$LT$core..result..Result$LT$T$C$E$GT$$u20$as$u20$core..ops..try_trait..Try$GT$6branch17h9d49481b7863c718E', symObjAddr: 0x759C, symBinAddr: 0x2400C, symSize: 0xAC }
  - { offset: 0x9D984, size: 0x8, addend: 0x0, symName: '__ZN79_$LT$core..result..Result$LT$T$C$E$GT$$u20$as$u20$core..ops..try_trait..Try$GT$6branch17ha6e79b64fcd0a8e6E', symObjAddr: 0x7648, symBinAddr: 0x240B8, symSize: 0xA0 }
  - { offset: 0x9DA01, size: 0x8, addend: 0x0, symName: '__ZN79_$LT$core..result..Result$LT$T$C$E$GT$$u20$as$u20$core..ops..try_trait..Try$GT$6branch17ha90ad463a774738bE', symObjAddr: 0x76E8, symBinAddr: 0x24158, symSize: 0xA0 }
  - { offset: 0x9DA7E, size: 0x8, addend: 0x0, symName: '__ZN79_$LT$core..result..Result$LT$T$C$E$GT$$u20$as$u20$core..ops..try_trait..Try$GT$6branch17hab5f11dcd672b660E', symObjAddr: 0x7788, symBinAddr: 0x241F8, symSize: 0x88 }
  - { offset: 0x9DAFC, size: 0x8, addend: 0x0, symName: '__ZN79_$LT$core..result..Result$LT$T$C$E$GT$$u20$as$u20$core..ops..try_trait..Try$GT$6branch17haeb242c46840a142E', symObjAddr: 0x7810, symBinAddr: 0x24280, symSize: 0x14 }
  - { offset: 0x9DB38, size: 0x8, addend: 0x0, symName: '__ZN79_$LT$core..result..Result$LT$T$C$E$GT$$u20$as$u20$core..ops..try_trait..Try$GT$6branch17hb45ab6b8af5d338dE', symObjAddr: 0x7824, symBinAddr: 0x24294, symSize: 0x90 }
  - { offset: 0x9DBB5, size: 0x8, addend: 0x0, symName: '__ZN79_$LT$core..result..Result$LT$T$C$E$GT$$u20$as$u20$core..ops..try_trait..Try$GT$6branch17hc028ef23ad956497E', symObjAddr: 0x7A14, symBinAddr: 0x24324, symSize: 0x38 }
  - { offset: 0x9DC31, size: 0x8, addend: 0x0, symName: '__ZN79_$LT$core..result..Result$LT$T$C$E$GT$$u20$as$u20$core..ops..try_trait..Try$GT$6branch17hd6057aea3e9f545cE', symObjAddr: 0x7C9C, symBinAddr: 0x2435C, symSize: 0xA0 }
  - { offset: 0x9DCAE, size: 0x8, addend: 0x0, symName: '__ZN79_$LT$core..result..Result$LT$T$C$E$GT$$u20$as$u20$core..ops..try_trait..Try$GT$6branch17hec99536db99dcbd8E', symObjAddr: 0x7E90, symBinAddr: 0x243FC, symSize: 0xA0 }
  - { offset: 0x9DD2B, size: 0x8, addend: 0x0, symName: '__ZN79_$LT$core..result..Result$LT$T$C$E$GT$$u20$as$u20$core..ops..try_trait..Try$GT$6branch17hed4ab7d8351e4645E', symObjAddr: 0x7F30, symBinAddr: 0x2449C, symSize: 0xA0 }
  - { offset: 0x9DDA8, size: 0x8, addend: 0x0, symName: '__ZN79_$LT$core..result..Result$LT$T$C$E$GT$$u20$as$u20$core..ops..try_trait..Try$GT$6branch17hff19bc4b017e2a38E', symObjAddr: 0x8070, symBinAddr: 0x2453C, symSize: 0xA8 }
  - { offset: 0xA05F3, size: 0x8, addend: 0x0, symName: '__ZN4core6result19Result$LT$T$C$E$GT$14unwrap_or_else17h96096a698eee9b8fE', symObjAddr: 0x281C, symBinAddr: 0x22B70, symSize: 0x8C }
  - { offset: 0xA06B0, size: 0x8, addend: 0x0, symName: '__ZN4core6result19Result$LT$T$C$E$GT$3map17h7113eefed9666585E', symObjAddr: 0x2F80, symBinAddr: 0x22BFC, symSize: 0xA8 }
  - { offset: 0xA0744, size: 0x8, addend: 0x0, symName: '__ZN4core6result19Result$LT$T$C$E$GT$3map17h7b7c837a84aa07fbE', symObjAddr: 0x3028, symBinAddr: 0x22CA4, symSize: 0x90 }
  - { offset: 0xA07D7, size: 0x8, addend: 0x0, symName: '__ZN4core6result19Result$LT$T$C$E$GT$3map17h845184e764460343E', symObjAddr: 0x3148, symBinAddr: 0x22D34, symSize: 0x90 }
  - { offset: 0xA0882, size: 0x8, addend: 0x0, symName: '__ZN4core6result19Result$LT$T$C$E$GT$3map17hb28d37226611d844E', symObjAddr: 0x3450, symBinAddr: 0x22DC4, symSize: 0xBC }
  - { offset: 0xA0915, size: 0x8, addend: 0x0, symName: '__ZN4core6result19Result$LT$T$C$E$GT$3map17hea817acfdbb26640E', symObjAddr: 0x36B8, symBinAddr: 0x22E80, symSize: 0x9C }
  - { offset: 0xA09A8, size: 0x8, addend: 0x0, symName: '__ZN4core6result19Result$LT$T$C$E$GT$3map17hec8626ce0b6c4353E', symObjAddr: 0x3754, symBinAddr: 0x22F1C, symSize: 0x90 }
  - { offset: 0xA0A3B, size: 0x8, addend: 0x0, symName: '__ZN4core6result19Result$LT$T$C$E$GT$3map17hfc0b26ddf68da203E', symObjAddr: 0x37E4, symBinAddr: 0x22FAC, symSize: 0xA0 }
  - { offset: 0xA0ADB, size: 0x8, addend: 0x0, symName: '__ZN4core6result19Result$LT$T$C$E$GT$3map17hff31d41c625a95a0E', symObjAddr: 0x3884, symBinAddr: 0x2304C, symSize: 0x9C }
  - { offset: 0xA0B6E, size: 0x8, addend: 0x0, symName: '__ZN4core6result19Result$LT$T$C$E$GT$6expect17h1f32d5e33204e8b6E', symObjAddr: 0x3A60, symBinAddr: 0x230E8, symSize: 0xA4 }
  - { offset: 0xA0BD8, size: 0x8, addend: 0x0, symName: '__ZN4core6result19Result$LT$T$C$E$GT$6expect17h35e47fffb36cc87bE', symObjAddr: 0x3CE8, symBinAddr: 0x2318C, symSize: 0x84 }
  - { offset: 0xA0C3A, size: 0x8, addend: 0x0, symName: '__ZN4core6result19Result$LT$T$C$E$GT$6expect17h4aac56113bf1d896E', symObjAddr: 0x3E1C, symBinAddr: 0x23210, symSize: 0xB0 }
  - { offset: 0xA0C9D, size: 0x8, addend: 0x0, symName: '__ZN4core6result19Result$LT$T$C$E$GT$6expect17h772010b0663d6158E', symObjAddr: 0x3ECC, symBinAddr: 0x232C0, symSize: 0x78 }
  - { offset: 0xA0D21, size: 0x8, addend: 0x0, symName: '__ZN4core6result19Result$LT$T$C$E$GT$7map_err17h10b37a4c50d7bbf2E', symObjAddr: 0x4570, symBinAddr: 0x23338, symSize: 0x84 }
  - { offset: 0xA0DCB, size: 0x8, addend: 0x0, symName: '__ZN4core6result19Result$LT$T$C$E$GT$7map_err17h34fe3ccfc89311cfE', symObjAddr: 0x4A18, symBinAddr: 0x233BC, symSize: 0x7C }
  - { offset: 0xA0E82, size: 0x8, addend: 0x0, symName: '__ZN4core6result19Result$LT$T$C$E$GT$7map_err17h3a77e0a7242fea91E', symObjAddr: 0x4A94, symBinAddr: 0x23438, symSize: 0x30 }
  - { offset: 0xA0EFF, size: 0x8, addend: 0x0, symName: '__ZN4core6result19Result$LT$T$C$E$GT$7map_err17h72cb7e05554b49d7E', symObjAddr: 0x4DB0, symBinAddr: 0x23468, symSize: 0x84 }
  - { offset: 0xA0F92, size: 0x8, addend: 0x0, symName: '__ZN4core6result19Result$LT$T$C$E$GT$7map_err17he8ca4c765edb8cc9E', symObjAddr: 0x5358, symBinAddr: 0x234EC, symSize: 0xB0 }
  - { offset: 0xA1025, size: 0x8, addend: 0x0, symName: '__ZN4core6result19Result$LT$T$C$E$GT$7map_err17hfd5d74ea1a0cf966E', symObjAddr: 0x5604, symBinAddr: 0x2359C, symSize: 0x7C }
  - { offset: 0xA10F7, size: 0x8, addend: 0x0, symName: '__ZN4core6result19Result$LT$T$C$E$GT$9unwrap_or17h3da4b1bff461111aE', symObjAddr: 0x5B78, symBinAddr: 0x23618, symSize: 0x70 }
  - { offset: 0xA113B, size: 0x8, addend: 0x0, symName: '__ZN4core6result19Result$LT$T$C$E$GT$9unwrap_or17h42618089bcb8e4e4E', symObjAddr: 0x5BE8, symBinAddr: 0x23688, symSize: 0xC4 }
  - { offset: 0xA1843, size: 0x8, addend: 0x0, symName: '__ZN9hashbrown3raw13RawTableInner14prepare_resize28_$u7b$$u7b$closure$u7d$$u7d$17hace0432259cbb02fE', symObjAddr: 0x28C, symBinAddr: 0x24804, symSize: 0xB0 }
  - { offset: 0xA19F7, size: 0x8, addend: 0x0, symName: '__ZN9hashbrown3raw13RawTableInner15rehash_in_place28_$u7b$$u7b$closure$u7d$$u7d$17h9caa17330bc61dafE', symObjAddr: 0x758, symBinAddr: 0x248B4, symSize: 0x1F8 }
  - { offset: 0xA1E65, size: 0x8, addend: 0x0, symName: __ZN9hashbrown3raw19capacity_to_buckets17h9c2c49b4e6225ebdE, symObjAddr: 0x13EC, symBinAddr: 0x24F78, symSize: 0x2C8 }
  - { offset: 0xA57CA, size: 0x8, addend: 0x0, symName: __ZN9hashbrown3raw11TableLayout20calculate_layout_for17h8c9fd0ad2942d6baE, symObjAddr: 0x3C, symBinAddr: 0x245E4, symSize: 0x220 }
  - { offset: 0xA5E53, size: 0x8, addend: 0x0, symName: __ZN9hashbrown3raw13RawTableInner17new_uninitialized17hc9acc414add84321E, symObjAddr: 0xBFC, symBinAddr: 0x24AAC, symSize: 0x2AC }
  - { offset: 0xA6180, size: 0x8, addend: 0x0, symName: __ZN9hashbrown3raw13RawTableInner22fallible_with_capacity17h7ea00b4f66db3c64E, symObjAddr: 0xEA8, symBinAddr: 0x24D58, symSize: 0x220 }
  - { offset: 0xA6D64, size: 0x8, addend: 0x0, symName: '__ZN77_$LT$alloc..raw_vec..RawVec$LT$T$C$A$GT$$u20$as$u20$core..ops..drop..Drop$GT$4drop17h14aa6e44e2ac1232E', symObjAddr: 0x4550, symBinAddr: 0x27724, symSize: 0x34 }
  - { offset: 0xA6DA0, size: 0x8, addend: 0x0, symName: '__ZN77_$LT$alloc..raw_vec..RawVec$LT$T$C$A$GT$$u20$as$u20$core..ops..drop..Drop$GT$4drop17hcb0768d7e723a16fE', symObjAddr: 0x46B8, symBinAddr: 0x27758, symSize: 0x30 }
  - { offset: 0xA6EB7, size: 0x8, addend: 0x0, symName: '__ZN5alloc5boxed12Box$LT$T$GT$8into_raw17h5b7550e2925b8934E', symObjAddr: 0x2798, symBinAddr: 0x26A28, symSize: 0x14 }
  - { offset: 0xA6EF4, size: 0x8, addend: 0x0, symName: '__ZN72_$LT$alloc..boxed..Box$LT$T$C$A$GT$$u20$as$u20$core..ops..drop..Drop$GT$4drop17hc43157a55fc33bc3E', symObjAddr: 0x41C4, symBinAddr: 0x274B0, symSize: 0xB0 }
  - { offset: 0xA702D, size: 0x8, addend: 0x0, symName: '__ZN72_$LT$alloc..boxed..Box$LT$T$C$A$GT$$u20$as$u20$core..ops..drop..Drop$GT$4drop17he06e8af91a91d36aE', symObjAddr: 0x4338, symBinAddr: 0x27560, symSize: 0xC4 }
  - { offset: 0xA7166, size: 0x8, addend: 0x0, symName: '__ZN72_$LT$alloc..boxed..Box$LT$T$C$A$GT$$u20$as$u20$core..ops..drop..Drop$GT$4drop17hf28c95911d1a4fd7E', symObjAddr: 0x43FC, symBinAddr: 0x27624, symSize: 0xC4 }
  - { offset: 0xA72EF, size: 0x8, addend: 0x0, symName: '__ZN90_$LT$alloc..boxed..Box$LT$F$C$A$GT$$u20$as$u20$core..ops..function..FnOnce$LT$Args$GT$$GT$9call_once17hf1f61e87262afa02E', symObjAddr: 0x4C70, symBinAddr: 0x27B1C, symSize: 0x138 }
  - { offset: 0xA7466, size: 0x8, addend: 0x0, symName: '__ZN87_$LT$T$u20$as$u20$alloc..slice..$LT$impl$u20$$u5b$T$u5d$$GT$..to_vec_in..ConvertVec$GT$6to_vec17h24948f75ac059e12E', symObjAddr: 0x47B4, symBinAddr: 0x27788, symSize: 0xF4 }
  - { offset: 0xA7D47, size: 0x8, addend: 0x0, symName: '__ZN4core3ptr9const_ptr33_$LT$impl$u20$$BP$const$u20$T$GT$20offset_from_unsigned18precondition_check17h0ed60e25c2e39812E', symObjAddr: 0x430, symBinAddr: 0x253D8, symSize: 0x60 }
  - { offset: 0xA7E30, size: 0x8, addend: 0x0, symName: '__ZN4core3ptr9const_ptr33_$LT$impl$u20$$BP$const$u20$T$GT$6offset18precondition_check17h7f4a3a6e6bd2a5faE', symObjAddr: 0x490, symBinAddr: 0x25438, symSize: 0xC4 }
  - { offset: 0xA8029, size: 0x8, addend: 0x0, symName: '__ZN4core3ptr9const_ptr33_$LT$impl$u20$$BP$const$u20$T$GT$7is_null17h9eee2f5c32e4d472E', symObjAddr: 0x56C, symBinAddr: 0x254FC, symSize: 0x18 }
  - { offset: 0xA964E, size: 0x8, addend: 0x0, symName: '__ZN4core5slice29_$LT$impl$u20$$u5b$T$u5d$$GT$4iter17hb94e74b4f86ee84eE', symObjAddr: 0xAF0, symBinAddr: 0x257E0, symSize: 0x28 }
  - { offset: 0xA9C0F, size: 0x8, addend: 0x0, symName: '__ZN118_$LT$$u5b$core..mem..maybe_uninit..MaybeUninit$LT$T$GT$$u5d$$u20$as$u20$core..array..iter..iter_inner..PartialDrop$GT$12partial_drop17h13656b07cd00df5fE', symObjAddr: 0x268, symBinAddr: 0x252A0, symSize: 0xA0 }
  - { offset: 0xA9D0F, size: 0x8, addend: 0x0, symName: '__ZN129_$LT$$u5b$core..mem..maybe_uninit..MaybeUninit$LT$T$GT$$u3b$$u20$N$u5d$$u20$as$u20$core..array..iter..iter_inner..PartialDrop$GT$12partial_drop17ha5b8f8fab0d35b65E', symObjAddr: 0x308, symBinAddr: 0x25340, symSize: 0x4C }
  - { offset: 0xA9D6B, size: 0x8, addend: 0x0, symName: '__ZN129_$LT$$u5b$core..mem..maybe_uninit..MaybeUninit$LT$T$GT$$u3b$$u20$N$u5d$$u20$as$u20$core..array..iter..iter_inner..PartialDrop$GT$12partial_drop17hb782fd439811ecb9E', symObjAddr: 0x354, symBinAddr: 0x2538C, symSize: 0x4C }
  - { offset: 0xA9F92, size: 0x8, addend: 0x0, symName: __ZN4core4hash3sip9u8to64_le17h7eaec78fcdf2aca6E, symObjAddr: 0x610, symBinAddr: 0x255A0, symSize: 0x240 }
  - { offset: 0xAA14F, size: 0x8, addend: 0x0, symName: '__ZN69_$LT$core..hash..sip..Sip13Rounds$u20$as$u20$core..hash..sip..Sip$GT$8c_rounds17h62b3fd4a1152dd3fE', symObjAddr: 0x3494, symBinAddr: 0x26BD4, symSize: 0x1A0 }
  - { offset: 0xAA2C4, size: 0x8, addend: 0x0, symName: '__ZN69_$LT$core..hash..sip..Sip13Rounds$u20$as$u20$core..hash..sip..Sip$GT$8d_rounds17h0d282f03dfcaf311E', symObjAddr: 0x3634, symBinAddr: 0x26D74, symSize: 0x46C }
  - { offset: 0xAA701, size: 0x8, addend: 0x0, symName: '__ZN71_$LT$core..hash..sip..Hasher$LT$S$GT$$u20$as$u20$core..hash..Hasher$GT$5write17h3a54fd752a2fbc30E', symObjAddr: 0x3AA0, symBinAddr: 0x271E0, symSize: 0x230 }
  - { offset: 0xAA87A, size: 0x8, addend: 0x0, symName: '__ZN71_$LT$core..hash..sip..Hasher$LT$S$GT$$u20$as$u20$core..hash..Hasher$GT$6finish17h6b03f3154697ae57E', symObjAddr: 0x3CD0, symBinAddr: 0x27410, symSize: 0xA0 }
  - { offset: 0xAB53E, size: 0x8, addend: 0x0, symName: __ZN8pyo3_ffi7cpython11tupleobject16PyTuple_GET_ITEM17h3c662ab08b86a9b6E, symObjAddr: 0x4A28, symBinAddr: 0x278D4, symSize: 0x10C }
  - { offset: 0xAB59D, size: 0x8, addend: 0x0, symName: __ZN8pyo3_ffi7cpython11tupleobject16PyTuple_GET_SIZE17h0637786a8178074cE, symObjAddr: 0x4B34, symBinAddr: 0x279E0, symSize: 0x24 }
  - { offset: 0xAB5C9, size: 0x8, addend: 0x0, symName: __ZN8pyo3_ffi7cpython11tupleobject16PyTuple_SET_ITEM17hc73f8819d6daffe0E, symObjAddr: 0x4B58, symBinAddr: 0x27A04, symSize: 0x118 }
  - { offset: 0xABD3B, size: 0x8, addend: 0x0, symName: __ZN4pyo33gil4POOL17h666068be22be9ff6E, symObjAddr: 0x6258, symBinAddr: 0xA8408, symSize: 0x0 }
  - { offset: 0xABDA8, size: 0x8, addend: 0x0, symName: __ZN4pyo33gil5START17h9f084b89fd981934E, symObjAddr: 0x6298, symBinAddr: 0xA8448, symSize: 0x0 }
  - { offset: 0xABDD1, size: 0x8, addend: 0x0, symName: '__ZN4pyo33gil9GIL_COUNT29_$u7b$$u7b$constant$u7d$$u7d$28_$u7b$$u7b$closure$u7d$$u7d$23__RUST_STD_INTERNAL_VAL17h7a5dd7723e4534deE', symObjAddr: 0x62DC, symBinAddr: 0xA8E10, symSize: 0x0 }
  - { offset: 0xABDE0, size: 0x8, addend: 0x0, symName: '__ZN4pyo33gil9GIL_COUNT29_$u7b$$u7b$constant$u7d$$u7d$28_$u7b$$u7b$closure$u7d$$u7d$17h1720529f6162cf6fE', symObjAddr: 0x196C, symBinAddr: 0x2643C, symSize: 0x30 }
  - { offset: 0xABEE2, size: 0x8, addend: 0x0, symName: '__ZN4pyo33gil10SuspendGIL3new28_$u7b$$u7b$closure$u7d$$u7d$17he791884163934486E', symObjAddr: 0xCEC, symBinAddr: 0x25898, symSize: 0x28 }
  - { offset: 0xABF29, size: 0x8, addend: 0x0, symName: '__ZN4pyo33gil15gil_is_acquired28_$u7b$$u7b$closure$u7d$$u7d$17h3fa1ec4d049903abE', symObjAddr: 0x12A8, symBinAddr: 0x25E54, symSize: 0x2C }
  - { offset: 0xABF77, size: 0x8, addend: 0x0, symName: __ZN4pyo33gil15register_decref17h209f5f1e4da5e644E, symObjAddr: 0x12D4, symBinAddr: 0x25E80, symSize: 0x1E0 }
  - { offset: 0xABFF7, size: 0x8, addend: 0x0, symName: '__ZN4pyo33gil19decrement_gil_count28_$u7b$$u7b$closure$u7d$$u7d$17hb9a59e2c750a413bE', symObjAddr: 0x14B4, symBinAddr: 0x26060, symSize: 0x8C }
  - { offset: 0xAC04F, size: 0x8, addend: 0x0, symName: '__ZN4pyo33gil19increment_gil_count28_$u7b$$u7b$closure$u7d$$u7d$17h6bd936732d9dd8ecE', symObjAddr: 0x1540, symBinAddr: 0x260EC, symSize: 0x74 }
  - { offset: 0xAC0A2, size: 0x8, addend: 0x0, symName: __ZN4pyo33gil27prepare_freethreaded_python17h04ec8d2dd1837b35E, symObjAddr: 0x15B4, symBinAddr: 0x26160, symSize: 0x1C }
  - { offset: 0xAC0C0, size: 0x8, addend: 0x0, symName: '__ZN4pyo33gil27prepare_freethreaded_python28_$u7b$$u7b$closure$u7d$$u7d$17h44ccef3753368e5bE', symObjAddr: 0x15D0, symBinAddr: 0x2617C, symSize: 0x38 }
  - { offset: 0xAC15A, size: 0x8, addend: 0x0, symName: '__ZN4pyo33gil8GILGuard7acquire28_$u7b$$u7b$closure$u7d$$u7d$17hda0c60c90ab486c5E', symObjAddr: 0x18DC, symBinAddr: 0x263AC, symSize: 0x90 }
  - { offset: 0xAC1E4, size: 0x8, addend: 0x0, symName: '__ZN61_$LT$pyo3..gil..GILGuard$u20$as$u20$core..ops..drop..Drop$GT$4drop17haa2445da5acfd3bdE', symObjAddr: 0x3344, symBinAddr: 0x26AC0, symSize: 0x5C }
  - { offset: 0xAC243, size: 0x8, addend: 0x0, symName: '__ZN63_$LT$pyo3..gil..SuspendGIL$u20$as$u20$core..ops..drop..Drop$GT$4drop17hd5d94f8c55493b2cE', symObjAddr: 0x33A0, symBinAddr: 0x26B1C, symSize: 0x80 }
  - { offset: 0xAC290, size: 0x8, addend: 0x0, symName: '__ZN63_$LT$pyo3..gil..SuspendGIL$u20$as$u20$core..ops..drop..Drop$GT$4drop28_$u7b$$u7b$closure$u7d$$u7d$17hd25f20629e7a61f5E', symObjAddr: 0x3420, symBinAddr: 0x26B9C, symSize: 0x38 }
  - { offset: 0xAC5EF, size: 0x8, addend: 0x0, symName: '__ZN107_$LT$pyo3..instance..Bound$LT$pyo3..types..list..PyList$GT$$u20$as$u20$pyo3..types..list..PyListMethods$GT$6append5inner17h5cfe56e453f92a30E', symObjAddr: 0x40, symBinAddr: 0x25240, symSize: 0x60 }
  - { offset: 0xAC65D, size: 0x8, addend: 0x0, symName: '__ZN75_$LT$pyo3..types..list..PyList$u20$as$u20$pyo3..type_object..PyTypeInfo$GT$15type_object_raw17h24c8b0fae97d0016E', symObjAddr: 0x44C0, symBinAddr: 0x276E8, symSize: 0x24 }
  - { offset: 0xAC699, size: 0x8, addend: 0x0, symName: '__ZN75_$LT$pyo3..types..list..PyList$u20$as$u20$pyo3..type_object..PyTypeInfo$GT$15type_object_raw28_$u7b$$u7b$closure$u7d$$u7d$17h668afea629b974b1E', symObjAddr: 0x44E4, symBinAddr: 0x2770C, symSize: 0x18 }
  - { offset: 0xAC6E9, size: 0x8, addend: 0x0, symName: __ZN4pyo35types5tuple16array_into_tuple17h360b4859a0474775E, symObjAddr: 0x1A90, symBinAddr: 0x264C8, symSize: 0x200 }
  - { offset: 0xAC79F, size: 0x8, addend: 0x0, symName: __ZN4pyo35types5tuple16array_into_tuple17h563151424dd0a037E, symObjAddr: 0x1C90, symBinAddr: 0x266C8, symSize: 0x1F8 }
  - { offset: 0xAC91A, size: 0x8, addend: 0x0, symName: '__ZN4pyo35types5tuple74_$LT$impl$u20$pyo3..conversion..IntoPyObject$u20$for$u20$$LP$T0$C$$RP$$GT$13into_pyobject17h23b0afb732a7fe30E', symObjAddr: 0x24B4, symBinAddr: 0x26938, symSize: 0xCC }
  - { offset: 0xACA07, size: 0x8, addend: 0x0, symName: __ZN4pyo311type_object10PyTypeInfo10is_type_of17hb9c40bb54a4e221cE, symObjAddr: 0xC5C, symBinAddr: 0x25808, symSize: 0x50 }
  - { offset: 0xACA42, size: 0x8, addend: 0x0, symName: '__ZN52_$LT$T$u20$as$u20$pyo3..type_object..PyTypeCheck$GT$10type_check17he49a2d00faa3cc1bE', symObjAddr: 0x2744, symBinAddr: 0x26A04, symSize: 0x24 }
  - { offset: 0xACD00, size: 0x8, addend: 0x0, symName: '__ZN4core4hash3sip15Hasher$LT$S$GT$5reset17h67e6966903e5a5d1E', symObjAddr: 0x584, symBinAddr: 0x25514, symSize: 0x8C }
  - { offset: 0xACD7D, size: 0x8, addend: 0x0, symName: __ZN4pyo33gil10SuspendGIL3new17hfadc8b47e718e755E, symObjAddr: 0xCAC, symBinAddr: 0x25858, symSize: 0x40 }
  - { offset: 0xACE64, size: 0x8, addend: 0x0, symName: __ZN4pyo33gil13ReferencePool13update_counts17h5a13dba40f985aacE, symObjAddr: 0xD14, symBinAddr: 0x258C0, symSize: 0x420 }
  - { offset: 0xACF8E, size: 0x8, addend: 0x0, symName: __ZN4pyo33gil13ReferencePool15register_decref17hb2caf2191a395d8dE, symObjAddr: 0x1134, symBinAddr: 0x25CE0, symSize: 0x128 }
  - { offset: 0xACFFA, size: 0x8, addend: 0x0, symName: __ZN4pyo33gil13ReferencePool3new17hd71d3ffbafbd532eE, symObjAddr: 0x125C, symBinAddr: 0x25E08, symSize: 0x4C }
  - { offset: 0xAD00D, size: 0x8, addend: 0x0, symName: __ZN4pyo33gil7LockGIL4bail17h90198fb1b6ffdfc3E, symObjAddr: 0x1688, symBinAddr: 0x69B2C, symSize: 0x5C }
  - { offset: 0xAD030, size: 0x8, addend: 0x0, symName: __ZN4pyo33gil8GILGuard17acquire_unchecked17h8a0d2c9ee1bb4584E, symObjAddr: 0x16E4, symBinAddr: 0x261B4, symSize: 0xAC }
  - { offset: 0xAD096, size: 0x8, addend: 0x0, symName: __ZN4pyo33gil8GILGuard6assume17h6d65602cd92a8121E, symObjAddr: 0x1790, symBinAddr: 0x26260, symSize: 0xB0 }
  - { offset: 0xAD0E8, size: 0x8, addend: 0x0, symName: __ZN4pyo33gil8GILGuard6python17h082d4df6f1ecf50aE, symObjAddr: 0x1840, symBinAddr: 0x26310, symSize: 0x20 }
  - { offset: 0xAD10A, size: 0x8, addend: 0x0, symName: __ZN4pyo33gil8GILGuard7acquire17hc8fd65f927871bdaE, symObjAddr: 0x1860, symBinAddr: 0x26330, symSize: 0x7C }
  - { offset: 0xAD132, size: 0x8, addend: 0x0, symName: __ZN4pyo35types4list6PyList5empty17hd996216964b3d559E, symObjAddr: 0x1A10, symBinAddr: 0x2646C, symSize: 0x30 }
  - { offset: 0xAD16C, size: 0x8, addend: 0x0, symName: __ZN4pyo35types4none6PyNone3get17h3195d772c0212b2aE, symObjAddr: 0x1A64, symBinAddr: 0x2649C, symSize: 0x2C }
  - { offset: 0xAD1A6, size: 0x8, addend: 0x0, symName: __ZN4pyo35types5tuple21BorrowedTupleIterator3new17h9f7e1587670cddbdE, symObjAddr: 0x2370, symBinAddr: 0x268C0, symSize: 0x48 }
  - { offset: 0xAD1F4, size: 0x8, addend: 0x0, symName: __ZN4pyo35types5tuple21BorrowedTupleIterator8get_item17hdbef99e9618f32b2E, symObjAddr: 0x23B8, symBinAddr: 0x26908, symSize: 0x30 }
  - { offset: 0xAD292, size: 0x8, addend: 0x0, symName: '__ZN5alloc7raw_vec19RawVec$LT$T$C$A$GT$8grow_one17h8d9ab8bcb2c78d3aE', symObjAddr: 0x2AF8, symBinAddr: 0x26A3C, symSize: 0x84 }
  - { offset: 0xAD877, size: 0x8, addend: 0x0, symName: '__ZN88_$LT$hashbrown..scopeguard..ScopeGuard$LT$T$C$F$GT$$u20$as$u20$core..ops..drop..Drop$GT$4drop17h64421d1a7d596624E', symObjAddr: 0x48A8, symBinAddr: 0x2787C, symSize: 0x2C }
  - { offset: 0xAD8B1, size: 0x8, addend: 0x0, symName: '__ZN88_$LT$hashbrown..scopeguard..ScopeGuard$LT$T$C$F$GT$$u20$as$u20$core..ops..drop..Drop$GT$4drop17h977777a2c26d154aE', symObjAddr: 0x48D4, symBinAddr: 0x278A8, symSize: 0x2C }
  - { offset: 0xAF9EC, size: 0x8, addend: 0x0, symName: '__ZN100_$LT$core..iter..adapters..take..Take$LT$I$GT$$u20$as$u20$core..iter..traits..iterator..Iterator$GT$4next17he0867118b958a90fE', symObjAddr: 0x60, symBinAddr: 0x27C54, symSize: 0x58 }
  - { offset: 0xAFA21, size: 0x8, addend: 0x0, symName: '__ZN100_$LT$core..iter..adapters..take..Take$LT$I$GT$$u20$as$u20$core..iter..traits..iterator..Iterator$GT$9size_hint17h9c1ddfb0324d254dE', symObjAddr: 0xB8, symBinAddr: 0x27CAC, symSize: 0x100 }
  - { offset: 0xAFC18, size: 0x8, addend: 0x0, symName: __ZN4core4iter8adapters3zip27TrustedRandomAccessNoCoerce4size17h12d72a3544a90d07E, symObjAddr: 0x1ACC, symBinAddr: 0x28014, symSize: 0x2C }
  - { offset: 0xAFC4F, size: 0x8, addend: 0x0, symName: __ZN4core4iter8adapters3zip27TrustedRandomAccessNoCoerce4size17h3f8274b91f0aa394E, symObjAddr: 0x1AF8, symBinAddr: 0x28040, symSize: 0x2C }
  - { offset: 0xAFD76, size: 0x8, addend: 0x0, symName: __ZN4core4iter6traits8iterator8Iterator3zip17h741e6d25694f3637E, symObjAddr: 0x1140, symBinAddr: 0x27E18, symSize: 0xB0 }
  - { offset: 0xAFDEC, size: 0x8, addend: 0x0, symName: __ZN4core4iter6traits8iterator8Iterator3zip17hf166efdb872fb143E, symObjAddr: 0x12B8, symBinAddr: 0x27EC8, symSize: 0xC8 }
  - { offset: 0xAFE62, size: 0x8, addend: 0x0, symName: __ZN4core4iter6traits8iterator8Iterator4take17ha6acb9cb1cbd9acaE, symObjAddr: 0x1398, symBinAddr: 0x27F90, symSize: 0x2C }
  - { offset: 0xAFEBD, size: 0x8, addend: 0x0, symName: __ZN4core4iter6traits8iterator8Iterator9enumerate17h270cd76e3bec627aE, symObjAddr: 0x17B4, symBinAddr: 0x27FBC, symSize: 0x18 }
  - { offset: 0xAFEEE, size: 0x8, addend: 0x0, symName: __ZN4core4iter6traits8iterator8Iterator9enumerate17h270cd76e3bec627aE, symObjAddr: 0x17B4, symBinAddr: 0x27FBC, symSize: 0x18 }
  - { offset: 0xAFF09, size: 0x8, addend: 0x0, symName: __ZN4core4iter6traits8iterator8Iterator9enumerate17h747d81d40f171a30E, symObjAddr: 0x17CC, symBinAddr: 0x27FD4, symSize: 0x18 }
  - { offset: 0xAFF3A, size: 0x8, addend: 0x0, symName: __ZN4core4iter6traits8iterator8Iterator9enumerate17h747d81d40f171a30E, symObjAddr: 0x17CC, symBinAddr: 0x27FD4, symSize: 0x18 }
  - { offset: 0xAFF55, size: 0x8, addend: 0x0, symName: __ZN4core4iter6traits8iterator8Iterator9enumerate17hfdebc227f3a5d9c1E, symObjAddr: 0x17E4, symBinAddr: 0x27FEC, symSize: 0x28 }
  - { offset: 0xB0474, size: 0x8, addend: 0x0, symName: '__ZN82_$LT$core..array..iter..IntoIter$LT$T$C$_$GT$$u20$as$u20$core..ops..drop..Drop$GT$4drop17h4b91d300331836fdE', symObjAddr: 0x314C, symBinAddr: 0x286B8, symSize: 0x30 }
  - { offset: 0xB04C5, size: 0x8, addend: 0x0, symName: '__ZN82_$LT$core..array..iter..IntoIter$LT$T$C$_$GT$$u20$as$u20$core..ops..drop..Drop$GT$4drop17he3e2fb3f8720bbbcE', symObjAddr: 0x3190, symBinAddr: 0x286E8, symSize: 0x30 }
  - { offset: 0xB051C, size: 0x8, addend: 0x0, symName: '__ZN99_$LT$core..array..iter..IntoIter$LT$T$C$_$GT$$u20$as$u20$core..iter..traits..iterator..Iterator$GT$4next17hbd31e7dd581dd331E', symObjAddr: 0x3D70, symBinAddr: 0x28AE4, symSize: 0x2C }
  - { offset: 0xB0551, size: 0x8, addend: 0x0, symName: '__ZN99_$LT$core..array..iter..IntoIter$LT$T$C$_$GT$$u20$as$u20$core..iter..traits..iterator..Iterator$GT$4next17he9dcd7e7da3d4dedE', symObjAddr: 0x3D9C, symBinAddr: 0x28B10, symSize: 0x2C }
  - { offset: 0xB0651, size: 0x8, addend: 0x0, symName: __ZN4core10intrinsics11rotate_left17h44a28091045c18beE, symObjAddr: 0xFC0, symBinAddr: 0x27DAC, symSize: 0x54 }
  - { offset: 0xB06A2, size: 0x8, addend: 0x0, symName: __ZN4core3str8converts19from_utf8_unchecked17hf0b5f941a76dd7a5E, symObjAddr: 0x10C8, symBinAddr: 0x27E00, symSize: 0x18 }
  - { offset: 0xB07BD, size: 0x8, addend: 0x0, symName: '__ZN91_$LT$core..slice..iter..Iter$LT$T$GT$$u20$as$u20$core..iter..traits..iterator..Iterator$GT$24__iterator_get_unchecked17h0fcc24d310d323c9E', symObjAddr: 0x3220, symBinAddr: 0x28778, symSize: 0x20 }
  - { offset: 0xB0818, size: 0x8, addend: 0x0, symName: '__ZN91_$LT$core..slice..iter..Iter$LT$T$GT$$u20$as$u20$core..iter..traits..iterator..Iterator$GT$24__iterator_get_unchecked17hdfd6dd2ffcb03d30E', symObjAddr: 0x3288, symBinAddr: 0x28798, symSize: 0x28 }
  - { offset: 0xB0873, size: 0x8, addend: 0x0, symName: '__ZN91_$LT$core..slice..iter..Iter$LT$T$GT$$u20$as$u20$core..iter..traits..iterator..Iterator$GT$4next17h7d75a6f836a998d5E', symObjAddr: 0x36C0, symBinAddr: 0x287C0, symSize: 0x84 }
  - { offset: 0xB0929, size: 0x8, addend: 0x0, symName: '__ZN91_$LT$core..slice..iter..Iter$LT$T$GT$$u20$as$u20$core..iter..traits..iterator..Iterator$GT$4next17hd57820139e9f90e5E', symObjAddr: 0x37C8, symBinAddr: 0x28844, symSize: 0x84 }
  - { offset: 0xB09DF, size: 0x8, addend: 0x0, symName: '__ZN91_$LT$core..slice..iter..Iter$LT$T$GT$$u20$as$u20$core..iter..traits..iterator..Iterator$GT$9size_hint17h3d474c0d62e271a1E', symObjAddr: 0x3900, symBinAddr: 0x288C8, symSize: 0xB4 }
  - { offset: 0xB0B0C, size: 0x8, addend: 0x0, symName: '__ZN91_$LT$core..slice..iter..Iter$LT$T$GT$$u20$as$u20$core..iter..traits..iterator..Iterator$GT$9size_hint17hce6c7e424378e548E', symObjAddr: 0x39B4, symBinAddr: 0x2897C, symSize: 0xB4 }
  - { offset: 0xB0C39, size: 0x8, addend: 0x0, symName: '__ZN91_$LT$core..slice..iter..Iter$LT$T$GT$$u20$as$u20$core..iter..traits..iterator..Iterator$GT$9size_hint17hf4ff62b23b8f99eeE', symObjAddr: 0x3A68, symBinAddr: 0x28A30, symSize: 0xB4 }
  - { offset: 0xB0D6D, size: 0x8, addend: 0x0, symName: __ZN4core5slice3raw14from_raw_parts17h2750d6c4f5eec8feE, symObjAddr: 0x1BE4, symBinAddr: 0x2806C, symSize: 0x58 }
  - { offset: 0xB0DB5, size: 0x8, addend: 0x0, symName: __ZN4core5slice3raw14from_raw_parts18precondition_check17h3e7a1868e7898475E, symObjAddr: 0x1D44, symBinAddr: 0x280C4, symSize: 0x10C }
  - { offset: 0xB0ECC, size: 0x8, addend: 0x0, symName: __ZN4core5slice3raw18from_raw_parts_mut17h069281636badd9deE, symObjAddr: 0x1E50, symBinAddr: 0x281D0, symSize: 0x58 }
  - { offset: 0xB0F14, size: 0x8, addend: 0x0, symName: __ZN4core5slice3raw18from_raw_parts_mut18precondition_check17hd36ba2a2cbf69021E, symObjAddr: 0x1EA8, symBinAddr: 0x28228, symSize: 0x10C }
  - { offset: 0xB1C1A, size: 0x8, addend: 0x0, symName: __ZN8pyo3_ffi8pyerrors22PyExceptionClass_Check17hdfaaf67b7403c2bdE, symObjAddr: 0x31C0, symBinAddr: 0x28718, symSize: 0x60 }
  - { offset: 0xB21D8, size: 0x8, addend: 0x0, symName: '__ZN63_$LT$alloc..alloc..Global$u20$as$u20$core..alloc..Allocator$GT$10deallocate17h81cbf1a8065ec5b9E', symObjAddr: 0x2F44, symBinAddr: 0x28620, symSize: 0x58 }
  - { offset: 0xB22A6, size: 0x8, addend: 0x0, symName: '__ZN63_$LT$alloc..alloc..Global$u20$as$u20$core..alloc..Allocator$GT$8allocate17h633ea0f852f1c682E', symObjAddr: 0x2FE0, symBinAddr: 0x28678, symSize: 0x40 }
  - { offset: 0xB2312, size: 0x8, addend: 0x0, symName: __ZN5alloc5alloc15exchange_malloc17hc6aeb73fdaaea928E, symObjAddr: 0x2950, symBinAddr: 0x283DC, symSize: 0xB0 }
  - { offset: 0xB27A7, size: 0x8, addend: 0x0, symName: '__ZN4core5slice4iter13Iter$LT$T$GT$3new17h1b026c8637d60525E', symObjAddr: 0x1FB4, symBinAddr: 0x28334, symSize: 0x50 }
  - { offset: 0xB2957, size: 0x8, addend: 0x0, symName: '__ZN4core5slice4iter13Iter$LT$T$GT$3new17h9a5a2c072f384c96E', symObjAddr: 0x2004, symBinAddr: 0x28384, symSize: 0x58 }
  - { offset: 0xB2C17, size: 0x8, addend: 0x0, symName: __ZN5alloc5alloc6Global18alloc_impl_runtime17hd896dd5c523681b0E, symObjAddr: 0x2A00, symBinAddr: 0x2848C, symSize: 0x194 }
  - { offset: 0xB33BE, size: 0x8, addend: 0x0, symName: '__ZN103_$LT$alloc..vec..into_iter..IntoIter$LT$T$C$A$GT$$u20$as$u20$core..iter..traits..iterator..Iterator$GT$4next17he67e94ce6248d1dbE', symObjAddr: 0x94, symBinAddr: 0x28B3C, symSize: 0x88 }
  - { offset: 0xB3518, size: 0x8, addend: 0x0, symName: '__ZN103_$LT$alloc..vec..into_iter..IntoIter$LT$T$C$A$GT$$u20$as$u20$core..iter..traits..iterator..Iterator$GT$9size_hint17h9b88775374be85fcE', symObjAddr: 0x32C, symBinAddr: 0x28BC4, symSize: 0xB4 }
  - { offset: 0xB3641, size: 0x8, addend: 0x0, symName: '__ZN157_$LT$$LT$alloc..vec..into_iter..IntoIter$LT$T$C$A$GT$$u20$as$u20$core..ops..drop..Drop$GT$..drop..DropGuard$LT$T$C$A$GT$$u20$as$u20$core..ops..drop..Drop$GT$4drop17h4a0009e578502e6bE', symObjAddr: 0x400, symBinAddr: 0x28C78, symSize: 0x6C }
  - { offset: 0xB37AD, size: 0x8, addend: 0x0, symName: '__ZN86_$LT$alloc..vec..into_iter..IntoIter$LT$T$C$A$GT$$u20$as$u20$core..ops..drop..Drop$GT$4drop17h1742e37ddc0413afE', symObjAddr: 0x35A8, symBinAddr: 0x29668, symSize: 0x64 }
  - { offset: 0xB3D32, size: 0x8, addend: 0x0, symName: '__ZN4core3ptr7mut_ptr31_$LT$impl$u20$$BP$mut$u20$T$GT$7is_null17hcead6143acb1e06dE', symObjAddr: 0xED4, symBinAddr: 0x28DA4, symSize: 0x18 }
  - { offset: 0xB53B4, size: 0x8, addend: 0x0, symName: '__ZN42_$LT$$RF$T$u20$as$u20$core..fmt..Debug$GT$3fmt17hcb28f0a6aea715a0E', symObjAddr: 0xB5C, symBinAddr: 0x28CE4, symSize: 0x30 }
  - { offset: 0xB54AA, size: 0x8, addend: 0x0, symName: '__ZN4core3fmt3num52_$LT$impl$u20$core..fmt..Debug$u20$for$u20$isize$GT$3fmt17h8e9a30a045800fe8E', symObjAddr: 0xD34, symBinAddr: 0x28D14, symSize: 0x90 }
  - { offset: 0xB5566, size: 0x8, addend: 0x0, symName: '__ZN50_$LT$$BP$mut$u20$T$u20$as$u20$core..fmt..Debug$GT$3fmt17hcd75c29cd46183daE', symObjAddr: 0x2D28, symBinAddr: 0x29358, symSize: 0x38 }
  - { offset: 0xB55D8, size: 0x8, addend: 0x0, symName: '__ZN54_$LT$$BP$const$u20$T$u20$as$u20$core..fmt..Pointer$GT$3fmt17hb4b280003413f01fE', symObjAddr: 0x2EC0, symBinAddr: 0x293D8, symSize: 0xCC }
  - { offset: 0xB5648, size: 0x8, addend: 0x0, symName: __ZN4core4char7methods25encode_utf8_raw_unchecked17h57fd655c30028e99E, symObjAddr: 0x126C, symBinAddr: 0x28DBC, symSize: 0x188 }
  - { offset: 0xB5808, size: 0x8, addend: 0x0, symName: __ZN4core9core_arch10arm_shared4neon9generated13vget_lane_u6417h0a2c365d2b4a264dE, symObjAddr: 0x1568, symBinAddr: 0x28F44, symSize: 0x18 }
  - { offset: 0xB585A, size: 0x8, addend: 0x0, symName: '__ZN50_$LT$T$u20$as$u20$core..convert..Into$LT$U$GT$$GT$4into17ha8d167ef99e44577E', symObjAddr: 0x2DCC, symBinAddr: 0x29390, symSize: 0x28 }
  - { offset: 0xB58A0, size: 0x8, addend: 0x0, symName: '__ZN53_$LT$T$u20$as$u20$core..convert..TryInto$LT$U$GT$$GT$8try_into17h993a6f6caaf94f23E', symObjAddr: 0x2E80, symBinAddr: 0x293B8, symSize: 0x20 }
  - { offset: 0xB58E6, size: 0x8, addend: 0x0, symName: '__ZN55_$LT$$RF$T$u20$as$u20$core..convert..AsRef$LT$U$GT$$GT$6as_ref17h03b1f1b9a8e1a39dE', symObjAddr: 0x2F8C, symBinAddr: 0x294A4, symSize: 0x28 }
  - { offset: 0xB5BEE, size: 0x8, addend: 0x0, symName: __ZN4pyo310conversion15IntoPyObjectExt17into_bound_py_any17h4430e3809b7b2f92E, symObjAddr: 0x1640, symBinAddr: 0x28F5C, symSize: 0x54 }
  - { offset: 0xB5C5E, size: 0x8, addend: 0x0, symName: __ZN4pyo310conversion15IntoPyObjectExt22into_pyobject_or_pyerr17h9dfa66e5b0c15608E, symObjAddr: 0x1778, symBinAddr: 0x28FB0, symSize: 0x4C }
  - { offset: 0xB5CD4, size: 0x8, addend: 0x0, symName: '__ZN57_$LT$T$u20$as$u20$pyo3..conversion..FromPyObjectBound$GT$20from_py_object_bound17h093118946b9cf84fE', symObjAddr: 0x2FE8, symBinAddr: 0x294CC, symSize: 0x34 }
  - { offset: 0xB5D0B, size: 0x8, addend: 0x0, symName: '__ZN57_$LT$T$u20$as$u20$pyo3..conversion..FromPyObjectBound$GT$20from_py_object_bound17h14f3c628ad87314fE', symObjAddr: 0x3084, symBinAddr: 0x29500, symSize: 0x34 }
  - { offset: 0xB5D42, size: 0x8, addend: 0x0, symName: '__ZN57_$LT$T$u20$as$u20$pyo3..conversion..FromPyObjectBound$GT$20from_py_object_bound17h4843c5778d303e1aE', symObjAddr: 0x3120, symBinAddr: 0x29534, symSize: 0x34 }
  - { offset: 0xB5D79, size: 0x8, addend: 0x0, symName: '__ZN57_$LT$T$u20$as$u20$pyo3..conversion..FromPyObjectBound$GT$20from_py_object_bound17ha6bcb1f36f9c3452E', symObjAddr: 0x3224, symBinAddr: 0x29568, symSize: 0x34 }
  - { offset: 0xB5E79, size: 0x8, addend: 0x0, symName: '__ZN4pyo35impl_8pymodule9ModuleDef11make_module28_$u7b$$u7b$closure$u7d$$u7d$17h744d040074110387E', symObjAddr: 0x1B74, symBinAddr: 0x29188, symSize: 0x1A0 }
  - { offset: 0xB5F2A, size: 0x8, addend: 0x0, symName: '__ZN4pyo35impl_8pymodule9ModuleDef11make_module28_$u7b$$u7b$closure$u7d$$u7d$17h8f9752de3461d2afE', symObjAddr: 0x1D14, symBinAddr: 0x29328, symSize: 0x30 }
  - { offset: 0xB60D8, size: 0x8, addend: 0x0, symName: '__ZN87_$LT$$BP$mut$u20$pyo3_ffi..object..PyObject$u20$as$u20$pyo3..ffi_ptr_ext..FfiPtrExt$GT$12assume_owned17hc99d368ff48c4d6dE', symObjAddr: 0x36FC, symBinAddr: 0x296CC, symSize: 0x24 }
  - { offset: 0xB611D, size: 0x8, addend: 0x0, symName: '__ZN87_$LT$$BP$mut$u20$pyo3_ffi..object..PyObject$u20$as$u20$pyo3..ffi_ptr_ext..FfiPtrExt$GT$15assume_borrowed17h04f2c5c4b967ba1bE', symObjAddr: 0x3720, symBinAddr: 0x296F0, symSize: 0x24 }
  - { offset: 0xB6162, size: 0x8, addend: 0x0, symName: '__ZN87_$LT$$BP$mut$u20$pyo3_ffi..object..PyObject$u20$as$u20$pyo3..ffi_ptr_ext..FfiPtrExt$GT$19assume_owned_or_err17hc6ae973dd3ad3895E', symObjAddr: 0x3744, symBinAddr: 0x29714, symSize: 0x24 }
  - { offset: 0xB61A7, size: 0x8, addend: 0x0, symName: '__ZN87_$LT$$BP$mut$u20$pyo3_ffi..object..PyObject$u20$as$u20$pyo3..ffi_ptr_ext..FfiPtrExt$GT$19assume_owned_or_opt17h54dda404d117584dE', symObjAddr: 0x3768, symBinAddr: 0x29738, symSize: 0x24 }
  - { offset: 0xB61EC, size: 0x8, addend: 0x0, symName: '__ZN87_$LT$$BP$mut$u20$pyo3_ffi..object..PyObject$u20$as$u20$pyo3..ffi_ptr_ext..FfiPtrExt$GT$25assume_borrowed_unchecked17h874c877775973cedE', symObjAddr: 0x37D4, symBinAddr: 0x2975C, symSize: 0x24 }
  - { offset: 0xB62E3, size: 0x8, addend: 0x0, symName: __ZN8pyo3_ffi6object10Py_IS_TYPE17h1df42519b0075a36E, symObjAddr: 0x3960, symBinAddr: 0x29780, symSize: 0x38 }
  - { offset: 0xB631D, size: 0x8, addend: 0x0, symName: __ZN8pyo3_ffi6object12PyType_Check17hdee47c6e770ef118E, symObjAddr: 0x3AC4, symBinAddr: 0x297B8, symSize: 0x30 }
  - { offset: 0xB634B, size: 0x8, addend: 0x0, symName: __ZN8pyo3_ffi6object17PyType_HasFeature17he155ad80c0c38537E, symObjAddr: 0x3AF4, symBinAddr: 0x297E8, symSize: 0x8C }
  - { offset: 0xB63A6, size: 0x8, addend: 0x0, symName: __ZN8pyo3_ffi6object18PyObject_TypeCheck17h9999d16aa9db1e60E, symObjAddr: 0x3B8C, symBinAddr: 0x29874, symSize: 0x70 }
  - { offset: 0xB63E3, size: 0x8, addend: 0x0, symName: __ZN8pyo3_ffi6object19PyType_FastSubclass17h3f3734c405942cf0E, symObjAddr: 0x3BFC, symBinAddr: 0x298E4, symSize: 0x28 }
  - { offset: 0xB6420, size: 0x8, addend: 0x0, symName: __ZN8pyo3_ffi6object7Py_None17h843348bc6383705bE, symObjAddr: 0x3C24, symBinAddr: 0x2990C, symSize: 0xC }
  - { offset: 0xB643E, size: 0x8, addend: 0x0, symName: __ZN8pyo3_ffi6object7Py_SIZE17ha0d353312eb3bdceE, symObjAddr: 0x3C30, symBinAddr: 0x29918, symSize: 0x1D4 }
  - { offset: 0xB64EC, size: 0x8, addend: 0x0, symName: __ZN8pyo3_ffi6object7Py_TYPE17haf2b09114f8d7df7E, symObjAddr: 0x3E04, symBinAddr: 0x29AEC, symSize: 0x74 }
  - { offset: 0xB765E, size: 0x8, addend: 0x0, symName: __ZN4pyo35impl_8pymodule9ModuleDef11make_module17h318e5a86246d49e6E, symObjAddr: 0x19E8, symBinAddr: 0x28FFC, symSize: 0x18C }
  - { offset: 0xB7766, size: 0x8, addend: 0x0, symName: '__ZN5alloc3vec9into_iter21IntoIter$LT$T$C$A$GT$16as_raw_mut_slice17h803aa4cbae6b2d1fE', symObjAddr: 0x33A8, symBinAddr: 0x2959C, symSize: 0xCC }
  - { offset: 0xB795E, size: 0x8, addend: 0x0, symName: '__ZN100_$LT$core..array..iter..iter_inner..PolymorphicIter$LT$DATA$GT$$u20$as$u20$core..ops..drop..Drop$GT$4drop17h7fe5379254bbc159E', symObjAddr: 0x0, symBinAddr: 0x29B60, symSize: 0x30 }
  - { offset: 0xB79B4, size: 0x8, addend: 0x0, symName: '__ZN103_$LT$pyo3..instance..Bound$LT$pyo3..types..any..PyAny$GT$$u20$as$u20$pyo3..types..any..PyAnyMethods$GT$7getattr5inner17h63371111c7b30caaE', symObjAddr: 0xCD0, symBinAddr: 0x29BC0, symSize: 0x6C }
  - { offset: 0xB79F7, size: 0x8, addend: 0x0, symName: '__ZN103_$LT$pyo3..instance..Bound$LT$pyo3..types..any..PyAny$GT$$u20$as$u20$pyo3..types..any..PyAnyMethods$GT$7setattr5inner17hd661afbd94c78178E', symObjAddr: 0xEA4, symBinAddr: 0x29C2C, symSize: 0x7C }
  - { offset: 0xB7A55, size: 0x8, addend: 0x0, symName: '__ZN107_$LT$pyo3..instance..Bound$LT$pyo3..types..dict..PyDict$GT$$u20$as$u20$pyo3..types..dict..PyDictMethods$GT$8set_item5inner17h07ee9079885f645cE', symObjAddr: 0x1434, symBinAddr: 0x29CA8, symSize: 0x7C }
  - { offset: 0xB7E45, size: 0x8, addend: 0x0, symName: '__ZN4pyo34sync8Interned3get28_$u7b$$u7b$closure$u7d$$u7d$17h860c22738ad7443cE', symObjAddr: 0x47F0, symBinAddr: 0x2A890, symSize: 0x34 }
  - { offset: 0xB7E91, size: 0x8, addend: 0x0, symName: '__ZN4pyo34sync20GILOnceCell$LT$T$GT$11get_or_init28_$u7b$$u7b$closure$u7d$$u7d$17h50d5fc05c8c9441fE', symObjAddr: 0x2854, symBinAddr: 0x2A0DC, symSize: 0x34 }
  - { offset: 0xB7ED1, size: 0x8, addend: 0x0, symName: '__ZN4pyo34sync20GILOnceCell$LT$T$GT$11get_or_init28_$u7b$$u7b$closure$u7d$$u7d$17hded85a6a046dbf7dE', symObjAddr: 0x2888, symBinAddr: 0x2A110, symSize: 0x24 }
  - { offset: 0xB7F3C, size: 0x8, addend: 0x0, symName: '__ZN4pyo34sync20GILOnceCell$LT$T$GT$3set28_$u7b$$u7b$closure$u7d$$u7d$17h4d96d6b990c0635aE', symObjAddr: 0x3530, symBinAddr: 0x2A5D8, symSize: 0xD0 }
  - { offset: 0xB7FCF, size: 0x8, addend: 0x0, symName: '__ZN4pyo34sync20GILOnceCell$LT$T$GT$3set28_$u7b$$u7b$closure$u7d$$u7d$17ha8f4f29aec107752E', symObjAddr: 0x3788, symBinAddr: 0x2A6A8, symSize: 0xD0 }
  - { offset: 0xB8062, size: 0x8, addend: 0x0, symName: '__ZN4pyo34sync20GILOnceCell$LT$T$GT$3set28_$u7b$$u7b$closure$u7d$$u7d$17hbe80bf0e4363070eE', symObjAddr: 0x396C, symBinAddr: 0x2A778, symSize: 0xD0 }
  - { offset: 0xB9987, size: 0x8, addend: 0x0, symName: __ZN4core3ptr9alignment9Alignment13new_unchecked18precondition_check17hed11020143af5f58E, symObjAddr: 0x168C, symBinAddr: 0x29D3C, symSize: 0x70 }
  - { offset: 0xBA09B, size: 0x8, addend: 0x0, symName: '__ZN100_$LT$core..array..iter..iter_inner..PolymorphicIter$LT$DATA$GT$$u20$as$u20$core..ops..drop..Drop$GT$4drop17h7fe5379254bbc159E', symObjAddr: 0x0, symBinAddr: 0x29B60, symSize: 0x30 }
  - { offset: 0xBA0E8, size: 0x8, addend: 0x0, symName: '__ZN100_$LT$core..array..iter..iter_inner..PolymorphicIter$LT$DATA$GT$$u20$as$u20$core..ops..drop..Drop$GT$4drop17hefb1f9bd4b3e2864E', symObjAddr: 0x30, symBinAddr: 0x29B90, symSize: 0x30 }
  - { offset: 0xBBBAC, size: 0x8, addend: 0x0, symName: __ZN4core3ffi5c_str4CStr6as_ptr17h38b5e9c34bb47a6aE, symObjAddr: 0x1548, symBinAddr: 0x29D24, symSize: 0x18 }
  - { offset: 0xBBE14, size: 0x8, addend: 0x0, symName: '__ZN4core5array4iter10iter_inner78PolymorphicIter$LT$$u5b$core..mem..maybe_uninit..MaybeUninit$LT$T$GT$$u5d$$GT$4next17ha39241f7de5c3b25E', symObjAddr: 0x1D90, symBinAddr: 0x29DAC, symSize: 0x170 }
  - { offset: 0xBC0B3, size: 0x8, addend: 0x0, symName: '__ZN4pyo34sync20GILOnceCell$LT$T$GT$11get_or_init17ha082419c57a187b2E', symObjAddr: 0x2694, symBinAddr: 0x29F1C, symSize: 0xD8 }
  - { offset: 0xBC19E, size: 0x8, addend: 0x0, symName: '__ZN4pyo34sync20GILOnceCell$LT$T$GT$11get_or_init17ha9c80acd8461dfbfE', symObjAddr: 0x276C, symBinAddr: 0x29FF4, symSize: 0xE8 }
  - { offset: 0xBC2F9, size: 0x8, addend: 0x0, symName: __ZN5alloc3fmt6format17ha1be7f83387552b0E, symObjAddr: 0x4CE8, symBinAddr: 0x2A8F0, symSize: 0xD8 }
  - { offset: 0xBC3BD, size: 0x8, addend: 0x0, symName: '__ZN5alloc3fmt6format28_$u7b$$u7b$closure$u7d$$u7d$17h858e7f9358b57dc9E', symObjAddr: 0x4DC0, symBinAddr: 0x2A9C8, symSize: 0x30 }
  - { offset: 0xBC54A, size: 0x8, addend: 0x0, symName: '__ZN4pyo34sync20GILOnceCell$LT$T$GT$15get_or_try_init17hedd7bd6aab1ed7afE', symObjAddr: 0x2BF0, symBinAddr: 0x2A134, symSize: 0xCC }
  - { offset: 0xBC5C4, size: 0x8, addend: 0x0, symName: '__ZN4pyo34sync20GILOnceCell$LT$T$GT$3get17h5f6903d6c51ead0aE', symObjAddr: 0x2DFC, symBinAddr: 0x2A200, symSize: 0xA8 }
  - { offset: 0xBC608, size: 0x8, addend: 0x0, symName: '__ZN4pyo34sync20GILOnceCell$LT$T$GT$3get17h7223365e8ce38627E', symObjAddr: 0x2EA4, symBinAddr: 0x2A2A8, symSize: 0xA8 }
  - { offset: 0xBC64C, size: 0x8, addend: 0x0, symName: '__ZN4pyo34sync20GILOnceCell$LT$T$GT$3get17hb48cbbe9fb6f3502E', symObjAddr: 0x2FF8, symBinAddr: 0x2A350, symSize: 0xA8 }
  - { offset: 0xBC690, size: 0x8, addend: 0x0, symName: '__ZN4pyo34sync20GILOnceCell$LT$T$GT$3set17h329d3b90f602088aE', symObjAddr: 0x31E8, symBinAddr: 0x2A3F8, symSize: 0xA0 }
  - { offset: 0xBC715, size: 0x8, addend: 0x0, symName: '__ZN4pyo34sync20GILOnceCell$LT$T$GT$3set17h6fceae3c72f9e422E', symObjAddr: 0x3288, symBinAddr: 0x2A498, symSize: 0xA0 }
  - { offset: 0xBC79A, size: 0x8, addend: 0x0, symName: '__ZN4pyo34sync20GILOnceCell$LT$T$GT$3set17he4f04691c3e3e204E', symObjAddr: 0x3490, symBinAddr: 0x2A538, symSize: 0xA0 }
  - { offset: 0xBC9BC, size: 0x8, addend: 0x0, symName: '__ZN4pyo34sync20GILOnceCell$LT$T$GT$4init17h8b9780cb93f11707E', symObjAddr: 0x3D60, symBinAddr: 0x69B88, symSize: 0x19C }
  - { offset: 0xBCABE, size: 0x8, addend: 0x0, symName: '__ZN4pyo34sync20GILOnceCell$LT$T$GT$4init17hd6b6b281b5572944E', symObjAddr: 0x3EFC, symBinAddr: 0x69D24, symSize: 0x120 }
  - { offset: 0xBCB75, size: 0x8, addend: 0x0, symName: '__ZN4pyo34sync20GILOnceCell$LT$T$GT$4init17hfb346ce1c47908f7E', symObjAddr: 0x4340, symBinAddr: 0x69E44, symSize: 0x11C }
  - { offset: 0xBCC43, size: 0x8, addend: 0x0, symName: __ZN4pyo34sync8Interned3get17hacb2b35ddfe90916E, symObjAddr: 0x47A8, symBinAddr: 0x2A848, symSize: 0x48 }
  - { offset: 0xBCC8E, size: 0x8, addend: 0x0, symName: __ZN4pyo35types4dict6PyDict3new17h5dd769d4b260e59bE, symObjAddr: 0x4A88, symBinAddr: 0x2A8C4, symSize: 0x2C }
  - { offset: 0xBDFBA, size: 0x8, addend: 0x0, symName: '__ZN4core3ptr7mut_ptr31_$LT$impl$u20$$BP$mut$u20$T$GT$6offset18precondition_check17h5a6e68e8d23be3d4E', symObjAddr: 0xC5C, symBinAddr: 0x2ACE0, symSize: 0xC4 }
  - { offset: 0xBE8BB, size: 0x8, addend: 0x0, symName: '__ZN185_$LT$core..ops..control_flow..ControlFlow$LT$B$C$C$GT$$u20$as$u20$core..ops..try_trait..FromResidual$LT$core..ops..control_flow..ControlFlow$LT$B$C$core..convert..Infallible$GT$$GT$$GT$13from_residual17h7577bdbf3f90fb45E', symObjAddr: 0x9B8, symBinAddr: 0x2ABA4, symSize: 0x18 }
  - { offset: 0xBE8FF, size: 0x8, addend: 0x0, symName: '__ZN95_$LT$core..ops..control_flow..ControlFlow$LT$B$C$C$GT$$u20$as$u20$core..ops..try_trait..Try$GT$11from_output17hb1e21920e8f871ecE', symObjAddr: 0x7EAC, symBinAddr: 0x2B484, symSize: 0x10 }
  - { offset: 0xBE93D, size: 0x8, addend: 0x0, symName: '__ZN95_$LT$core..ops..control_flow..ControlFlow$LT$B$C$C$GT$$u20$as$u20$core..ops..try_trait..Try$GT$6branch17h9997d7d302720ef7E', symObjAddr: 0x7EF4, symBinAddr: 0x2B494, symSize: 0x54 }
  - { offset: 0xBEB37, size: 0x8, addend: 0x0, symName: '__ZN4core3ops8function5impls79_$LT$impl$u20$core..ops..function..FnMut$LT$A$GT$$u20$for$u20$$RF$mut$u20$F$GT$8call_mut17h10dec421b32e27c0E', symObjAddr: 0xBEC, symBinAddr: 0x2AC70, symSize: 0x38 }
  - { offset: 0xBEB86, size: 0x8, addend: 0x0, symName: '__ZN4core3ops8function5impls79_$LT$impl$u20$core..ops..function..FnMut$LT$A$GT$$u20$for$u20$$RF$mut$u20$F$GT$8call_mut17hd7b3590fbc6772e5E', symObjAddr: 0xC24, symBinAddr: 0x2ACA8, symSize: 0x38 }
  - { offset: 0xBED94, size: 0x8, addend: 0x0, symName: '__ZN4core5slice29_$LT$impl$u20$$u5b$T$u5d$$GT$4iter17hd577c1b12130d317E', symObjAddr: 0xE7C, symBinAddr: 0x2ADA4, symSize: 0x28 }
  - { offset: 0xBF28D, size: 0x8, addend: 0x0, symName: __ZN4pyo35types6module7__all__8INTERNED17h51e71ebae5d2639dE, symObjAddr: 0x9C88, symBinAddr: 0xA8450, symSize: 0x0 }
  - { offset: 0xBF2AE, size: 0x8, addend: 0x0, symName: __ZN4pyo35types6module8__name__8INTERNED17he3098ffe60ff77eaE, symObjAddr: 0x9CA8, symBinAddr: 0xA8470, symSize: 0x0 }
  - { offset: 0xBF2C6, size: 0x8, addend: 0x0, symName: '__ZN115_$LT$pyo3..instance..Bound$LT$pyo3..types..module..PyModule$GT$$u20$as$u20$pyo3..types..module..PyModuleMethods$GT$3add5inner17h01600d262c0bc442E', symObjAddr: 0x29C, symBinAddr: 0x2A9F8, symSize: 0x140 }
  - { offset: 0xBF355, size: 0x8, addend: 0x0, symName: __ZN4pyo35types6module7__all__17hae49360fd2b088c1E, symObjAddr: 0x4790, symBinAddr: 0x2B140, symSize: 0x24 }
  - { offset: 0xBF428, size: 0x8, addend: 0x0, symName: __ZN4pyo35types6module8__name__17h7ccbc17173c68641E, symObjAddr: 0x4BE4, symBinAddr: 0x2B164, symSize: 0x24 }
  - { offset: 0xBF7D4, size: 0x8, addend: 0x0, symName: '__ZN4pyo35impl_16extract_argument19FunctionDescription34missing_required_keyword_arguments28_$u7b$$u7b$closure$u7d$$u7d$17h4cfc77a5ac7c33cfE', symObjAddr: 0x1F68, symBinAddr: 0x2ADCC, symSize: 0x84 }
  - { offset: 0xBF844, size: 0x8, addend: 0x0, symName: '__ZN4pyo35impl_16extract_argument19FunctionDescription37missing_required_positional_arguments28_$u7b$$u7b$closure$u7d$$u7d$17heb9d950e0a442336E', symObjAddr: 0x2134, symBinAddr: 0x2AE50, symSize: 0x78 }
  - { offset: 0xBF8B0, size: 0x8, addend: 0x0, symName: __ZN4pyo35impl_16extract_argument19push_parameter_list17ha4b7ec56c81722a7E, symObjAddr: 0x22B8, symBinAddr: 0x2AFD4, symSize: 0x16C }
  - { offset: 0xBF93C, size: 0x8, addend: 0x0, symName: __ZN4pyo35impl_16extract_argument25argument_extraction_error17h23b210fb29409b42E, symObjAddr: 0x2424, symBinAddr: 0x6AB7C, symSize: 0x26C }
  - { offset: 0xBFA11, size: 0x8, addend: 0x0, symName: '__ZN152_$LT$core..result..Result$LT$pyo3..instance..Bound$LT$pyo3..types..any..PyAny$GT$$C$pyo3..err..PyErr$GT$$u20$as$u20$pyo3..py_result_ext..PyResultExt$GT$23downcast_into_unchecked28_$u7b$$u7b$closure$u7d$$u7d$17h11555018369b008aE', symObjAddr: 0x740, symBinAddr: 0x2AB38, symSize: 0x24 }
  - { offset: 0xBFA50, size: 0x8, addend: 0x0, symName: '__ZN152_$LT$core..result..Result$LT$pyo3..instance..Bound$LT$pyo3..types..any..PyAny$GT$$C$pyo3..err..PyErr$GT$$u20$as$u20$pyo3..py_result_ext..PyResultExt$GT$23downcast_into_unchecked28_$u7b$$u7b$closure$u7d$$u7d$17h69586309aec502efE', symObjAddr: 0x860, symBinAddr: 0x2AB5C, symSize: 0x24 }
  - { offset: 0xBFA8F, size: 0x8, addend: 0x0, symName: '__ZN152_$LT$core..result..Result$LT$pyo3..instance..Bound$LT$pyo3..types..any..PyAny$GT$$C$pyo3..err..PyErr$GT$$u20$as$u20$pyo3..py_result_ext..PyResultExt$GT$23downcast_into_unchecked28_$u7b$$u7b$closure$u7d$$u7d$17hb2100453c9027e5aE', symObjAddr: 0x8F0, symBinAddr: 0x2AB80, symSize: 0x24 }
  - { offset: 0xBFCD0, size: 0x8, addend: 0x0, symName: '__ZN84_$LT$std..sys..sync..once_box..OnceBox$LT$T$GT$$u20$as$u20$core..ops..drop..Drop$GT$4drop17h1c838766c7ac5964E', symObjAddr: 0x7CAC, symBinAddr: 0x2B410, symSize: 0x74 }
  - { offset: 0xBFE01, size: 0x8, addend: 0x0, symName: '__ZN66_$LT$std..thread..id..ThreadId$u20$as$u20$core..cmp..PartialEq$GT$2eq17hab5bf77090f28c95E', symObjAddr: 0x7C08, symBinAddr: 0x2B3E4, symSize: 0x2C }
  - { offset: 0xC0F3E, size: 0x8, addend: 0x0, symName: '__ZN3std3sys4sync8once_box16OnceBox$LT$T$GT$10initialize17h7798fa84bb8e6604E', symObjAddr: 0x9D0, symBinAddr: 0x69F60, symSize: 0xD8 }
  - { offset: 0xC1115, size: 0x8, addend: 0x0, symName: '__ZN3std3sys4sync8once_box16OnceBox$LT$T$GT$11get_or_init17hf2a27c710ee4abcaE', symObjAddr: 0xAA8, symBinAddr: 0x2ABBC, symSize: 0xB4 }
  - { offset: 0xC12A8, size: 0x8, addend: 0x0, symName: __ZN4pyo35impl_16extract_argument19FunctionDescription26missing_required_arguments17h79b0bc5aa98fa8f3E, symObjAddr: 0x156C, symBinAddr: 0x6A038, symSize: 0x1F8 }
  - { offset: 0xC137A, size: 0x8, addend: 0x0, symName: __ZN4pyo35impl_16extract_argument19FunctionDescription27unexpected_keyword_argument17h6d33d96096724817E, symObjAddr: 0x1764, symBinAddr: 0x6A230, symSize: 0x124 }
  - { offset: 0xC1408, size: 0x8, addend: 0x0, symName: __ZN4pyo35impl_16extract_argument19FunctionDescription28multiple_values_for_argument17h257da7a23c1052e5E, symObjAddr: 0x1888, symBinAddr: 0x6A354, symSize: 0x110 }
  - { offset: 0xC148E, size: 0x8, addend: 0x0, symName: __ZN4pyo35impl_16extract_argument19FunctionDescription29too_many_positional_arguments17h4d994982ac38594fE, symObjAddr: 0x1998, symBinAddr: 0x6A464, symSize: 0x304 }
  - { offset: 0xC15A1, size: 0x8, addend: 0x0, symName: __ZN4pyo35impl_16extract_argument19FunctionDescription33positional_only_keyword_arguments17haeab9a01ad7cb676E, symObjAddr: 0x1C9C, symBinAddr: 0x6A768, symSize: 0x148 }
  - { offset: 0xC1664, size: 0x8, addend: 0x0, symName: __ZN4pyo35impl_16extract_argument19FunctionDescription34missing_required_keyword_arguments17h02fd053b7d92e382E, symObjAddr: 0x1DE4, symBinAddr: 0x6A8B0, symSize: 0x184 }
  - { offset: 0xC16FB, size: 0x8, addend: 0x0, symName: __ZN4pyo35impl_16extract_argument19FunctionDescription37missing_required_positional_arguments17h20e99e6f79b20945E, symObjAddr: 0x1FEC, symBinAddr: 0x6AA34, symSize: 0x148 }
  - { offset: 0xC1744, size: 0x8, addend: 0x0, symName: __ZN4pyo35impl_16extract_argument19FunctionDescription9full_name17hd711fc4b7da165c0E, symObjAddr: 0x21AC, symBinAddr: 0x2AEC8, symSize: 0x10C }
  - { offset: 0xC1867, size: 0x8, addend: 0x0, symName: __ZN4pyo35types8function11PyCFunction12internal_new17h2072d441a60997f5E, symObjAddr: 0x4C08, symBinAddr: 0x2B188, symSize: 0x25C }
  - { offset: 0xC2AF5, size: 0x8, addend: 0x0, symName: '__ZN145_$LT$core..option..Option$LT$T$GT$$u20$as$u20$core..ops..try_trait..FromResidual$LT$core..option..Option$LT$core..convert..Infallible$GT$$GT$$GT$13from_residual17h9579b6988f2974e8E', symObjAddr: 0x37C, symBinAddr: 0x2B4E8, symSize: 0x10 }
  - { offset: 0xC4034, size: 0x8, addend: 0x0, symName: '__ZN66_$LT$core..option..Option$LT$T$GT$$u20$as$u20$core..fmt..Debug$GT$3fmt17hc59babf4fcc8d38bE', symObjAddr: 0x4788, symBinAddr: 0x2CA48, symSize: 0x9C }
  - { offset: 0xC409E, size: 0x8, addend: 0x0, symName: '__ZN72_$LT$core..option..Option$LT$T$GT$$u20$as$u20$core..default..Default$GT$7default17hffd3d00ec57f6d0bE', symObjAddr: 0x4A88, symBinAddr: 0x2CB10, symSize: 0x8 }
  - { offset: 0xC40CC, size: 0x8, addend: 0x0, symName: '__ZN75_$LT$core..option..Option$LT$T$GT$$u20$as$u20$core..ops..try_trait..Try$GT$6branch17hf46635916b5ca300E', symObjAddr: 0x4BF4, symBinAddr: 0x2CB18, symSize: 0x40 }
  - { offset: 0xC46BB, size: 0x8, addend: 0x0, symName: '__ZN4core3ptr8non_null16NonNull$LT$T$GT$13new_unchecked18precondition_check17h642fb215333b7df8E', symObjAddr: 0x1620, symBinAddr: 0x2BC94, symSize: 0x58 }
  - { offset: 0xC4ADE, size: 0x8, addend: 0x0, symName: '__ZN4core3num23_$LT$impl$u20$usize$GT$13unchecked_add18precondition_check17hd19c34bc97969c82E', symObjAddr: 0x14EC, symBinAddr: 0x2BBF4, symSize: 0x64 }
  - { offset: 0xC57EE, size: 0x8, addend: 0x0, symName: '__ZN4core5slice4iter87_$LT$impl$u20$core..iter..traits..collect..IntoIterator$u20$for$u20$$RF$$u5b$T$u5d$$GT$9into_iter17h42976e01ae9318dbE', symObjAddr: 0x17B8, symBinAddr: 0x2BD80, symSize: 0x50 }
  - { offset: 0xC5C5C, size: 0x8, addend: 0x0, symName: __ZN4core4hash6Hasher11write_usize17hac8c21dd56e1f649E, symObjAddr: 0x1754, symBinAddr: 0x2BD44, symSize: 0x3C }
  - { offset: 0xC5E32, size: 0x8, addend: 0x0, symName: __ZN4core9ub_checks23maybe_is_nonoverlapping7runtime17hb27a00057e9c85aaE, symObjAddr: 0x2B64, symBinAddr: 0x2C780, symSize: 0xD8 }
  - { offset: 0xC6566, size: 0x8, addend: 0x0, symName: __ZN4pyo35impl_10trampoline33panic_result_into_callback_output17hf35c40ebda9f786eE, symObjAddr: 0x38A0, symBinAddr: 0x2C858, symSize: 0x114 }
  - { offset: 0xC6EFB, size: 0x8, addend: 0x0, symName: __ZN8pyo3_ffi10modsupport15PyModule_Create17hc5323306ec02cee1E, symObjAddr: 0x4D20, symBinAddr: 0x2CB68, symSize: 0x28 }
  - { offset: 0xC7AC6, size: 0x8, addend: 0x0, symName: '__ZN78_$LT$$u21$$u20$as$u20$std..sys..thread_local..native..lazy..DestroyedState$GT$13register_dtor17h334124a01ce5089cE', symObjAddr: 0x4C7C, symBinAddr: 0x2CB58, symSize: 0x10 }
  - { offset: 0xC7BD2, size: 0x8, addend: 0x0, symName: '__ZN3std4hash6random11RandomState3new28_$u7b$$u7b$closure$u7d$$u7d$17h29a61a0361613eb1E', symObjAddr: 0x5F8, symBinAddr: 0x2B58C, symSize: 0x2C }
  - { offset: 0xC7C8E, size: 0x8, addend: 0x0, symName: __ZN3std4hash6random11RandomState3new4KEYS27__rust_std_internal_init_fn17had4c9fd159b379d4E, symObjAddr: 0x624, symBinAddr: 0x2B5B8, symSize: 0x24 }
  - { offset: 0xC7CB0, size: 0x8, addend: 0x0, symName: '__ZN3std4hash6random11RandomState3new4KEYS29_$u7b$$u7b$constant$u7d$$u7d$28_$u7b$$u7b$closure$u7d$$u7d$17h2d08ac3d701f2e5cE', symObjAddr: 0x648, symBinAddr: 0x2B5DC, symSize: 0x34 }
  - { offset: 0xC7D1E, size: 0x8, addend: 0x0, symName: '__ZN71_$LT$std..hash..random..DefaultHasher$u20$as$u20$core..hash..Hasher$GT$5write17hb75cbfd338649383E', symObjAddr: 0x48A0, symBinAddr: 0x2CAE4, symSize: 0x2C }
  - { offset: 0xC828E, size: 0x8, addend: 0x0, symName: '__ZN3std3sys12thread_local6native4lazy20Storage$LT$T$C$D$GT$11get_or_init17h410dda3b7fb58f75E', symObjAddr: 0x38C, symBinAddr: 0x2B4F8, symSize: 0x94 }
  - { offset: 0xC848F, size: 0x8, addend: 0x0, symName: '__ZN3std3sys12thread_local6native4lazy20Storage$LT$T$C$D$GT$16get_or_init_slow17h67a80535b5caa91cE', symObjAddr: 0x420, symBinAddr: 0x6ADE8, symSize: 0x1D8 }
  - { offset: 0xC880F, size: 0x8, addend: 0x0, symName: '__ZN3std6thread5local17LocalKey$LT$T$GT$4with17h25e26e68fef4dd01E', symObjAddr: 0x6D0, symBinAddr: 0x2B610, symSize: 0x4C }
  - { offset: 0xC889F, size: 0x8, addend: 0x0, symName: '__ZN3std6thread5local17LocalKey$LT$T$GT$4with17h4d1671ea6fe27ce5E', symObjAddr: 0x764, symBinAddr: 0x2B65C, symSize: 0x50 }
  - { offset: 0xC890A, size: 0x8, addend: 0x0, symName: '__ZN3std6thread5local17LocalKey$LT$T$GT$4with17h7c6d99b58cf22fe4E', symObjAddr: 0x7B4, symBinAddr: 0x2B6AC, symSize: 0x48 }
  - { offset: 0xC89CA, size: 0x8, addend: 0x0, symName: '__ZN3std6thread5local17LocalKey$LT$T$GT$8try_with17h14ad6e28bd34563eE', symObjAddr: 0x7FC, symBinAddr: 0x2B6F4, symSize: 0xD0 }
  - { offset: 0xC8B4C, size: 0x8, addend: 0x0, symName: '__ZN3std6thread5local17LocalKey$LT$T$GT$8try_with17h2f64f48c7eccf19eE', symObjAddr: 0x8CC, symBinAddr: 0x2B7C4, symSize: 0xD8 }
  - { offset: 0xC8CCE, size: 0x8, addend: 0x0, symName: '__ZN3std6thread5local17LocalKey$LT$T$GT$8try_with17h4c447631f7edc98fE', symObjAddr: 0x9A4, symBinAddr: 0x2B89C, symSize: 0xE8 }
  - { offset: 0xC8E50, size: 0x8, addend: 0x0, symName: '__ZN3std6thread5local17LocalKey$LT$T$GT$8try_with17h62dbac48dba418b0E', symObjAddr: 0xA8C, symBinAddr: 0x2B984, symSize: 0xCC }
  - { offset: 0xC8FD1, size: 0x8, addend: 0x0, symName: '__ZN3std6thread5local17LocalKey$LT$T$GT$8try_with17h9573e29757baee69E', symObjAddr: 0xC30, symBinAddr: 0x2BA50, symSize: 0xD8 }
  - { offset: 0xC9153, size: 0x8, addend: 0x0, symName: '__ZN3std6thread5local17LocalKey$LT$T$GT$8try_with17hc68b0bdb652c4d40E', symObjAddr: 0xDEC, symBinAddr: 0x2BB28, symSize: 0xCC }
  - { offset: 0xC92DD, size: 0x8, addend: 0x0, symName: '__ZN4core3ptr8non_null16NonNull$LT$T$GT$13new_unchecked17he0be717cc5ebae59E', symObjAddr: 0x15E4, symBinAddr: 0x2BC58, symSize: 0x3C }
  - { offset: 0xC9323, size: 0x8, addend: 0x0, symName: '__ZN4core3ptr8non_null16NonNull$LT$T$GT$3new17h3d6530f38e37d183E', symObjAddr: 0x1678, symBinAddr: 0x2BCEC, symSize: 0x58 }
  - { offset: 0xC958E, size: 0x8, addend: 0x0, symName: '__ZN4core6option15Option$LT$T$GT$11map_or_else17h58cf4bd6ed565b49E', symObjAddr: 0x1998, symBinAddr: 0x2BDD0, symSize: 0xC0 }
  - { offset: 0xC9611, size: 0x8, addend: 0x0, symName: '__ZN4core6option15Option$LT$T$GT$14unwrap_or_else17h809f22ef9c8dc7deE', symObjAddr: 0x1BE8, symBinAddr: 0x2BE90, symSize: 0x58 }
  - { offset: 0xC9662, size: 0x8, addend: 0x0, symName: '__ZN4core6option15Option$LT$T$GT$16unwrap_unchecked17h3e1a7c462202af30E', symObjAddr: 0x1C40, symBinAddr: 0x2BEE8, symSize: 0x4C }
  - { offset: 0xC97F2, size: 0x8, addend: 0x0, symName: '__ZN4core6option15Option$LT$T$GT$16unwrap_unchecked17h67cdffe4c4b97732E', symObjAddr: 0x1C8C, symBinAddr: 0x2BF34, symSize: 0x4C }
  - { offset: 0xC9869, size: 0x8, addend: 0x0, symName: '__ZN4core6option15Option$LT$T$GT$3map17h1c050ec41978f755E', symObjAddr: 0x1DA8, symBinAddr: 0x2BF80, symSize: 0x5C }
  - { offset: 0xC98D4, size: 0x8, addend: 0x0, symName: '__ZN4core6option15Option$LT$T$GT$3map17h4500a60d1f6313a9E', symObjAddr: 0x1E04, symBinAddr: 0x2BFDC, symSize: 0x50 }
  - { offset: 0xC993F, size: 0x8, addend: 0x0, symName: '__ZN4core6option15Option$LT$T$GT$3map17h64775b30dc76f91aE', symObjAddr: 0x1E54, symBinAddr: 0x2C02C, symSize: 0x50 }
  - { offset: 0xC99FF, size: 0x8, addend: 0x0, symName: '__ZN4core6option15Option$LT$T$GT$3map17h9501167a97b5c7c3E', symObjAddr: 0x1F70, symBinAddr: 0x2C07C, symSize: 0x7C }
  - { offset: 0xC9A82, size: 0x8, addend: 0x0, symName: '__ZN4core6option15Option$LT$T$GT$3map17hbf19e7f0744c54cdE', symObjAddr: 0x1FEC, symBinAddr: 0x2C0F8, symSize: 0xA0 }
  - { offset: 0xC9AEE, size: 0x8, addend: 0x0, symName: '__ZN4core6option15Option$LT$T$GT$3map17hf3ce071837ea5f4eE', symObjAddr: 0x208C, symBinAddr: 0x2C198, symSize: 0x50 }
  - { offset: 0xC9B59, size: 0x8, addend: 0x0, symName: '__ZN4core6option15Option$LT$T$GT$3map17hfbf8d64c8d8a9bc3E', symObjAddr: 0x20DC, symBinAddr: 0x2C1E8, symSize: 0x84 }
  - { offset: 0xC9BD2, size: 0x8, addend: 0x0, symName: '__ZN4core6option15Option$LT$T$GT$4take17h1a4af955ac95673eE', symObjAddr: 0x2160, symBinAddr: 0x2C26C, symSize: 0x20 }
  - { offset: 0xC9C29, size: 0x8, addend: 0x0, symName: '__ZN4core6option15Option$LT$T$GT$4take17h2d69760e135847d9E', symObjAddr: 0x2180, symBinAddr: 0x2C28C, symSize: 0x20 }
  - { offset: 0xC9C8D, size: 0x8, addend: 0x0, symName: '__ZN4core6option15Option$LT$T$GT$4take17h769bc4858e301494E', symObjAddr: 0x21FC, symBinAddr: 0x2C2AC, symSize: 0x3C }
  - { offset: 0xC9CE4, size: 0x8, addend: 0x0, symName: '__ZN4core6option15Option$LT$T$GT$4take17ha30ec9cbb829d3acE', symObjAddr: 0x2258, symBinAddr: 0x2C2E8, symSize: 0x20 }
  - { offset: 0xC9D3B, size: 0x8, addend: 0x0, symName: '__ZN4core6option15Option$LT$T$GT$4take17hb78c2668c0c0cdd4E', symObjAddr: 0x2278, symBinAddr: 0x2C308, symSize: 0x20 }
  - { offset: 0xC9D9F, size: 0x8, addend: 0x0, symName: '__ZN4core6option15Option$LT$T$GT$6as_ref17h5bc88b3f2ad48cbfE', symObjAddr: 0x2318, symBinAddr: 0x2C328, symSize: 0x4C }
  - { offset: 0xC9E03, size: 0x8, addend: 0x0, symName: '__ZN4core6option15Option$LT$T$GT$6as_ref17h728a1b1f5a9bdb44E', symObjAddr: 0x2364, symBinAddr: 0x2C374, symSize: 0x4C }
  - { offset: 0xC9E67, size: 0x8, addend: 0x0, symName: '__ZN4core6option15Option$LT$T$GT$6as_ref17h7f58588856b347ebE', symObjAddr: 0x23B0, symBinAddr: 0x2C3C0, symSize: 0x4C }
  - { offset: 0xC9ECB, size: 0x8, addend: 0x0, symName: '__ZN4core6option15Option$LT$T$GT$6as_ref17hdaf55103853678c4E', symObjAddr: 0x2448, symBinAddr: 0x2C40C, symSize: 0x48 }
  - { offset: 0xC9F15, size: 0x8, addend: 0x0, symName: '__ZN4core6option15Option$LT$T$GT$6expect17h00964bf0621c6c79E', symObjAddr: 0x2490, symBinAddr: 0x2C454, symSize: 0x60 }
  - { offset: 0xC9F51, size: 0x8, addend: 0x0, symName: '__ZN4core6option15Option$LT$T$GT$6expect17hedd2deae7bf3d2daE', symObjAddr: 0x24F0, symBinAddr: 0x2C4B4, symSize: 0x5C }
  - { offset: 0xC9FA4, size: 0x8, addend: 0x0, symName: '__ZN4core6option15Option$LT$T$GT$6map_or17h03a4ca64fbb0aa43E', symObjAddr: 0x254C, symBinAddr: 0x2C510, symSize: 0x9C }
  - { offset: 0xCA046, size: 0x8, addend: 0x0, symName: '__ZN4core6option15Option$LT$T$GT$6map_or17h949943b903b6c8a1E', symObjAddr: 0x27D8, symBinAddr: 0x2C5AC, symSize: 0x9C }
  - { offset: 0xCA0D0, size: 0x8, addend: 0x0, symName: '__ZN4core6option15Option$LT$T$GT$6map_or17h9fb35593cdfc80ebE', symObjAddr: 0x2874, symBinAddr: 0x2C648, symSize: 0x9C }
  - { offset: 0xCA16B, size: 0x8, addend: 0x0, symName: '__ZN4core6option15Option$LT$T$GT$7is_none17h2b3fe950bd41c5afE', symObjAddr: 0x2910, symBinAddr: 0x2C6E4, symSize: 0x28 }
  - { offset: 0xCA1DE, size: 0x8, addend: 0x0, symName: '__ZN4core6option15Option$LT$T$GT$7is_none17h76c650d8203a1663E', symObjAddr: 0x2960, symBinAddr: 0x2C70C, symSize: 0x28 }
  - { offset: 0xCA228, size: 0x8, addend: 0x0, symName: '__ZN4core6option15Option$LT$T$GT$7is_some17h8a790d7e389a4ca9E', symObjAddr: 0x29B0, symBinAddr: 0x2C734, symSize: 0x28 }
  - { offset: 0xCA261, size: 0x8, addend: 0x0, symName: '__ZN4core6option15Option$LT$T$GT$7replace17h4be21f0cc53baa01E', symObjAddr: 0x2A00, symBinAddr: 0x2C75C, symSize: 0x24 }
  - { offset: 0xCA2CE, size: 0x8, addend: 0x0, symName: __ZN4pyo35impl_9pymethods11PyMethodDef13as_method_def17hf377f7b0afc061d9E, symObjAddr: 0x39F4, symBinAddr: 0x2C96C, symSize: 0xDC }
  - { offset: 0xCA55A, size: 0x8, addend: 0x0, symName: '__ZN45_$LT$T$u20$as$u20$alloc..string..ToString$GT$9to_string17h39d9282db3d5a0bfE', symObjAddr: 0x55C, symBinAddr: 0x2CCC0, symSize: 0x24 }
  - { offset: 0xCA591, size: 0x8, addend: 0x0, symName: '__ZN45_$LT$T$u20$as$u20$alloc..string..ToString$GT$9to_string17ha953a0ad622778d6E', symObjAddr: 0x67C, symBinAddr: 0x2CCE4, symSize: 0x24 }
  - { offset: 0xCA5CE, size: 0x8, addend: 0x0, symName: '__ZN49_$LT$T$u20$as$u20$alloc..string..SpecToString$GT$14spec_to_string17h004ab7efbaa8caeeE', symObjAddr: 0x8A4, symBinAddr: 0x2CE7C, symSize: 0xF4 }
  - { offset: 0xCA6BC, size: 0x8, addend: 0x0, symName: '__ZN76_$LT$alloc..string..String$u20$as$u20$core..convert..From$LT$$RF$str$GT$$GT$4from17haaa5a864ffae4062E', symObjAddr: 0x45F4, symBinAddr: 0x2E060, symSize: 0x50 }
  - { offset: 0xCA7A9, size: 0x8, addend: 0x0, symName: '__ZN55_$LT$$RF$str$u20$as$u20$alloc..string..SpecToString$GT$14spec_to_string17h9b7b460e69f19e05E', symObjAddr: 0x3C8C, symBinAddr: 0x2DC44, symSize: 0x5C }
  - { offset: 0xCA8D2, size: 0x8, addend: 0x0, symName: '__ZN58_$LT$alloc..string..String$u20$as$u20$core..fmt..Write$GT$10write_char17h47126612442984bfE', symObjAddr: 0x3CE8, symBinAddr: 0x2DCA0, symSize: 0x30 }
  - { offset: 0xCA90F, size: 0x8, addend: 0x0, symName: '__ZN58_$LT$alloc..string..String$u20$as$u20$core..fmt..Write$GT$9write_str17he33d5d45bc91d56eE', symObjAddr: 0x3D18, symBinAddr: 0x2DCD0, symSize: 0x38 }
  - { offset: 0xCA99D, size: 0x8, addend: 0x0, symName: '__ZN65_$LT$alloc..string..String$u20$as$u20$core..ops..deref..Deref$GT$5deref17h03e52b19c0dbe10dE', symObjAddr: 0x41C4, symBinAddr: 0x2DF54, symSize: 0x20 }
  - { offset: 0xCAA5C, size: 0x8, addend: 0x0, symName: '__ZN60_$LT$alloc..string..String$u20$as$u20$core..fmt..Display$GT$3fmt17h541954fb0f4beda3E', symObjAddr: 0x4070, symBinAddr: 0x2DF18, symSize: 0x3C }
  - { offset: 0xCAF9C, size: 0x8, addend: 0x0, symName: '__ZN5alloc3str83_$LT$impl$u20$core..borrow..Borrow$LT$str$GT$$u20$for$u20$alloc..string..String$GT$6borrow17hb81b563bfd71bde1E', symObjAddr: 0x3D64, symBinAddr: 0x2DD08, symSize: 0x20 }
  - { offset: 0xCB849, size: 0x8, addend: 0x0, symName: '__ZN70_$LT$core..num..error..TryFromIntError$u20$as$u20$core..fmt..Debug$GT$3fmt17h0a8290ba14c4a809E', symObjAddr: 0x4508, symBinAddr: 0x2DF74, symSize: 0x54 }
  - { offset: 0xCC8B7, size: 0x8, addend: 0x0, symName: __ZN4core3cmp3Ord3max17h3078b6d232eb80daE, symObjAddr: 0x16F0, symBinAddr: 0x2CF70, symSize: 0x74 }
  - { offset: 0xCC9AD, size: 0x8, addend: 0x0, symName: '__ZN146_$LT$core..ops..range..Range$LT$usize$GT$$u20$as$u20$core..iter..adapters..step_by..SpecRangeSetup$LT$core..ops..range..Range$LT$usize$GT$$GT$$GT$5setup17h8e60a3318a82d02aE', symObjAddr: 0x54, symBinAddr: 0x2CB90, symSize: 0x110 }
  - { offset: 0xCCB0B, size: 0x8, addend: 0x0, symName: '__ZN36_$LT$T$u20$as$u20$core..any..Any$GT$7type_id17h122cfbb245054f28E', symObjAddr: 0x164, symBinAddr: 0x2CCA0, symSize: 0x20 }
  - { offset: 0xCCE86, size: 0x8, addend: 0x0, symName: __ZN4core3fmt5Write9write_fmt17h419cf155c8e5de5aE, symObjAddr: 0x1A18, symBinAddr: 0x2D170, symSize: 0x34 }
  - { offset: 0xCCED3, size: 0x8, addend: 0x0, symName: '__ZN75_$LT$$RF$mut$u20$W$u20$as$u20$core..fmt..Write..write_fmt..SpecWriteFmt$GT$14spec_write_fmt17h720be73cec199a73E', symObjAddr: 0x455C, symBinAddr: 0x2DFC8, symSize: 0x98 }
  - { offset: 0xCD5E6, size: 0x8, addend: 0x0, symName: '__ZN4core3str6traits54_$LT$impl$u20$core..cmp..PartialEq$u20$for$u20$str$GT$2eq17he3f8b7813848fdbaE', symObjAddr: 0x1BCC, symBinAddr: 0x2D1A4, symSize: 0x4C }
  - { offset: 0xCD8D7, size: 0x8, addend: 0x0, symName: __ZN4core4hint21unreachable_unchecked18precondition_check17h33b4ae9826817495E, symObjAddr: 0x1D58, symBinAddr: 0x2D284, symSize: 0x3C }
  - { offset: 0xCD932, size: 0x8, addend: 0x0, symName: __ZN4pyo311conversions3std3num20err_if_invalid_value17h32b776da2e419ddcE, symObjAddr: 0x2120, symBinAddr: 0x2D320, symSize: 0xD8 }
  - { offset: 0xCD9B2, size: 0x8, addend: 0x0, symName: __ZN4pyo311conversions3std3num20err_if_invalid_value17h9a2f5f9e25338355E, symObjAddr: 0x21F8, symBinAddr: 0x2D3F8, symSize: 0xD8 }
  - { offset: 0xCDA37, size: 0x8, addend: 0x0, symName: '__ZN4pyo311conversions3std3num63_$LT$impl$u20$pyo3..conversion..FromPyObject$u20$for$u20$u8$GT$13extract_bound17h9932358f6504be83E', symObjAddr: 0x23DC, symBinAddr: 0x2D4D0, symSize: 0xD4 }
  - { offset: 0xCDAA9, size: 0x8, addend: 0x0, symName: '__ZN4pyo311conversions3std3num63_$LT$impl$u20$pyo3..conversion..FromPyObject$u20$for$u20$u8$GT$13extract_bound28_$u7b$$u7b$closure$u7d$$u7d$17hb36d8fa8d1e2efaeE', symObjAddr: 0x24B0, symBinAddr: 0x2D5A4, symSize: 0x38 }
  - { offset: 0xCDAFC, size: 0x8, addend: 0x0, symName: '__ZN4pyo311conversions3std3num63_$LT$impl$u20$pyo3..conversion..IntoPyObject$u20$for$u20$u8$GT$13into_pyobject17ha6ca4897f2ebbe1aE', symObjAddr: 0x2520, symBinAddr: 0x2D5DC, symSize: 0x38 }
  - { offset: 0xCDB47, size: 0x8, addend: 0x0, symName: '__ZN4pyo311conversions3std3num64_$LT$impl$u20$pyo3..conversion..FromPyObject$u20$for$u20$i32$GT$13extract_bound17h189a810d5c774df8E', symObjAddr: 0x2660, symBinAddr: 0x2D614, symSize: 0xD0 }
  - { offset: 0xCDBB5, size: 0x8, addend: 0x0, symName: '__ZN4pyo311conversions3std3num64_$LT$impl$u20$pyo3..conversion..FromPyObject$u20$for$u20$i32$GT$13extract_bound28_$u7b$$u7b$closure$u7d$$u7d$17h8cdddb5517f4a69bE', symObjAddr: 0x2730, symBinAddr: 0x2D6E4, symSize: 0x38 }
  - { offset: 0xCDC04, size: 0x8, addend: 0x0, symName: '__ZN4pyo311conversions3std3num64_$LT$impl$u20$pyo3..conversion..FromPyObject$u20$for$u20$u64$GT$13extract_bound17ha8165fdba6524d0dE', symObjAddr: 0x2A80, symBinAddr: 0x2D71C, symSize: 0x1E8 }
  - { offset: 0xCDC9F, size: 0x8, addend: 0x0, symName: '__ZN4pyo311conversions3std3num64_$LT$impl$u20$pyo3..conversion..IntoPyObject$u20$for$u20$u64$GT$13into_pyobject17h59d3776ffaa69cedE', symObjAddr: 0x2D78, symBinAddr: 0x2D904, symSize: 0x30 }
  - { offset: 0xCDCEA, size: 0x8, addend: 0x0, symName: '__ZN4pyo311conversions3std3num66_$LT$impl$u20$pyo3..conversion..FromPyObject$u20$for$u20$usize$GT$13extract_bound17h0307b5204be69854E', symObjAddr: 0x2EB0, symBinAddr: 0x2D934, symSize: 0xB4 }
  - { offset: 0xCDD58, size: 0x8, addend: 0x0, symName: '__ZN4pyo311conversions3std3num66_$LT$impl$u20$pyo3..conversion..FromPyObject$u20$for$u20$usize$GT$13extract_bound28_$u7b$$u7b$closure$u7d$$u7d$17h01dd95b2949e83c8E', symObjAddr: 0x2F64, symBinAddr: 0x2D9E8, symSize: 0x38 }
  - { offset: 0xCDDA7, size: 0x8, addend: 0x0, symName: '__ZN4pyo311conversions3std3num66_$LT$impl$u20$pyo3..conversion..IntoPyObject$u20$for$u20$usize$GT$13into_pyobject17h9c7b2235aedc291eE', symObjAddr: 0x2FCC, symBinAddr: 0x2DA20, symSize: 0x20 }
  - { offset: 0xCDDF8, size: 0x8, addend: 0x0, symName: '__ZN4pyo311conversions3std6string82_$LT$impl$u20$pyo3..conversion..FromPyObject$u20$for$u20$alloc..string..String$GT$13extract_bound17h16e077837b315c0aE', symObjAddr: 0x34B8, symBinAddr: 0x2DA40, symSize: 0xB8 }
  - { offset: 0xCDE48, size: 0x8, addend: 0x0, symName: '__ZN4pyo311conversions3std6string82_$LT$impl$u20$pyo3..conversion..IntoPyObject$u20$for$u20$alloc..string..String$GT$13into_pyobject17hf66fdb2c0b19a22eE', symObjAddr: 0x3570, symBinAddr: 0x2DAF8, symSize: 0x74 }
  - { offset: 0xCE126, size: 0x8, addend: 0x0, symName: '__ZN4pyo35types5tuple74_$LT$impl$u20$pyo3..conversion..IntoPyObject$u20$for$u20$$LP$T0$C$$RP$$GT$13into_pyobject17h4c1b219b7f15e1d9E', symObjAddr: 0x3BA0, symBinAddr: 0x2DB6C, symSize: 0xD8 }
  - { offset: 0xCE28F, size: 0x8, addend: 0x0, symName: '__ZN47_$LT$T$u20$as$u20$pyo3..err..PyErrArguments$GT$9arguments17h72fdafbee58a2e81E', symObjAddr: 0x730, symBinAddr: 0x2CD08, symSize: 0x4C }
  - { offset: 0xCE2FD, size: 0x8, addend: 0x0, symName: '__ZN47_$LT$T$u20$as$u20$pyo3..err..PyErrArguments$GT$9arguments17hb66876699af68478E', symObjAddr: 0x77C, symBinAddr: 0x2CD54, symSize: 0x128 }
  - { offset: 0xCE4A2, size: 0x8, addend: 0x0, symName: __ZN4pyo310conversion15IntoPyObjectExt17into_bound_py_any17h012ad515818b5a8fE, symObjAddr: 0x2010, symBinAddr: 0x2D2C0, symSize: 0x60 }
  - { offset: 0xCF682, size: 0x8, addend: 0x0, symName: __ZN4core3fmt2rt8Argument11new_display17h1635af79f2cf0e9aE, symObjAddr: 0x1808, symBinAddr: 0x2CFE4, symSize: 0x2C }
  - { offset: 0xCF6BA, size: 0x8, addend: 0x0, symName: __ZN4core3fmt2rt8Argument11new_display17h2e5b9c11646737f2E, symObjAddr: 0x1834, symBinAddr: 0x2D010, symSize: 0x2C }
  - { offset: 0xCF6F2, size: 0x8, addend: 0x0, symName: __ZN4core3fmt2rt8Argument11new_display17h4bbebe724e803072E, symObjAddr: 0x1860, symBinAddr: 0x2D03C, symSize: 0x2C }
  - { offset: 0xCF76F, size: 0x8, addend: 0x0, symName: __ZN4core3fmt2rt8Argument11new_display17h4e478ec5ee9fdcb5E, symObjAddr: 0x188C, symBinAddr: 0x2D068, symSize: 0x2C }
  - { offset: 0xCF7B4, size: 0x8, addend: 0x0, symName: __ZN4core3fmt2rt8Argument11new_display17h699b29beda165028E, symObjAddr: 0x18E4, symBinAddr: 0x2D094, symSize: 0x2C }
  - { offset: 0xCF806, size: 0x8, addend: 0x0, symName: __ZN4core3fmt2rt8Argument11new_display17h9be45fee2f8367cbE, symObjAddr: 0x1968, symBinAddr: 0x2D0C0, symSize: 0x2C }
  - { offset: 0xCF83E, size: 0x8, addend: 0x0, symName: __ZN4core3fmt2rt8Argument11new_display17ha061327bd3619d5eE, symObjAddr: 0x1994, symBinAddr: 0x2D0EC, symSize: 0x2C }
  - { offset: 0xCF876, size: 0x8, addend: 0x0, symName: __ZN4core3fmt2rt8Argument11new_display17hba892447cb709cd5E, symObjAddr: 0x19C0, symBinAddr: 0x2D118, symSize: 0x2C }
  - { offset: 0xCF8A1, size: 0x8, addend: 0x0, symName: __ZN4core3fmt2rt8Argument11new_display17hcb0973ff5aa6a563E, symObjAddr: 0x19EC, symBinAddr: 0x2D144, symSize: 0x2C }
  - { offset: 0xCF904, size: 0x8, addend: 0x0, symName: '__ZN4core4cell13Cell$LT$T$GT$3get17hfd5521282c1e22a3E', symObjAddr: 0x1C4C, symBinAddr: 0x2D1F0, symSize: 0x18 }
  - { offset: 0xCF958, size: 0x8, addend: 0x0, symName: '__ZN4core4cell13Cell$LT$T$GT$3set17hbb01520c1bf0dd45E', symObjAddr: 0x1C64, symBinAddr: 0x2D208, symSize: 0x1C }
  - { offset: 0xCFA15, size: 0x8, addend: 0x0, symName: '__ZN4core4cell13Cell$LT$T$GT$4take17h9277e7813883c257E', symObjAddr: 0x1C80, symBinAddr: 0x2D224, symSize: 0x3C }
  - { offset: 0xCFA7C, size: 0x8, addend: 0x0, symName: '__ZN4core4cell13Cell$LT$T$GT$7replace17h6132dd2f376f0cb0E', symObjAddr: 0x1CBC, symBinAddr: 0x2D260, symSize: 0x24 }
  - { offset: 0xCFD5A, size: 0x8, addend: 0x0, symName: __ZN5alloc6string6String4push17h47d2adb1996dcc13E, symObjAddr: 0x3E60, symBinAddr: 0x2DD28, symSize: 0x114 }
  - { offset: 0xD00FC, size: 0x8, addend: 0x0, symName: __ZN5alloc6string6String8push_str17h4f63cf651c3f8803E, symObjAddr: 0x3F94, symBinAddr: 0x2DE3C, symSize: 0xDC }
  - { offset: 0xD05D5, size: 0x8, addend: 0x0, symName: '__ZN104_$LT$core..ops..index_range..IndexRange$u20$as$u20$core..slice..index..SliceIndex$LT$$u5b$T$u5d$$GT$$GT$17get_unchecked_mut18precondition_check17ha64382e095478b14E', symObjAddr: 0x0, symBinAddr: 0x2E0B0, symSize: 0x60 }
  - { offset: 0xD0693, size: 0x8, addend: 0x0, symName: '__ZN79_$LT$pyo3..types..string..PyString$u20$as$u20$pyo3..type_object..PyTypeInfo$GT$15type_object_raw17hb053e38aac76304bE', symObjAddr: 0x4FA4, symBinAddr: 0x2F87C, symSize: 0x24 }
  - { offset: 0xD06CF, size: 0x8, addend: 0x0, symName: '__ZN79_$LT$pyo3..types..string..PyString$u20$as$u20$pyo3..type_object..PyTypeInfo$GT$15type_object_raw28_$u7b$$u7b$closure$u7d$$u7d$17hbd25968a871286f2E', symObjAddr: 0x4FC8, symBinAddr: 0x2F8A0, symSize: 0x18 }
  - { offset: 0xD0AF1, size: 0x8, addend: 0x0, symName: '__ZN79_$LT$pyo3..exceptions..PyTypeError$u20$as$u20$pyo3..type_object..PyTypeInfo$GT$15type_object_raw17h503354cde1efc57fE', symObjAddr: 0x4EF8, symBinAddr: 0x2F80C, symSize: 0x24 }
  - { offset: 0xD0B2D, size: 0x8, addend: 0x0, symName: '__ZN79_$LT$pyo3..exceptions..PyTypeError$u20$as$u20$pyo3..type_object..PyTypeInfo$GT$15type_object_raw28_$u7b$$u7b$closure$u7d$$u7d$17h4780ab5abd04b813E', symObjAddr: 0x4F1C, symBinAddr: 0x2F830, symSize: 0x4C }
  - { offset: 0xD0B80, size: 0x8, addend: 0x0, symName: '__ZN81_$LT$pyo3..exceptions..PyImportError$u20$as$u20$pyo3..type_object..PyTypeInfo$GT$15type_object_raw17h5da46b3652971b39E', symObjAddr: 0x5080, symBinAddr: 0x2F8B8, symSize: 0x24 }
  - { offset: 0xD0BBC, size: 0x8, addend: 0x0, symName: '__ZN81_$LT$pyo3..exceptions..PyImportError$u20$as$u20$pyo3..type_object..PyTypeInfo$GT$15type_object_raw28_$u7b$$u7b$closure$u7d$$u7d$17h07a5126dc3f6ffcbE', symObjAddr: 0x50A4, symBinAddr: 0x2F8DC, symSize: 0x4C }
  - { offset: 0xD0C0F, size: 0x8, addend: 0x0, symName: '__ZN83_$LT$pyo3..exceptions..PyBaseException$u20$as$u20$pyo3..type_object..PyTypeInfo$GT$15type_object_raw17h06aebfbc01280924E', symObjAddr: 0x520C, symBinAddr: 0x2F928, symSize: 0x24 }
  - { offset: 0xD0C4B, size: 0x8, addend: 0x0, symName: '__ZN83_$LT$pyo3..exceptions..PyBaseException$u20$as$u20$pyo3..type_object..PyTypeInfo$GT$15type_object_raw28_$u7b$$u7b$closure$u7d$$u7d$17h3b898c64fec2feddE', symObjAddr: 0x5230, symBinAddr: 0x2F94C, symSize: 0x4C }
  - { offset: 0xD0C9E, size: 0x8, addend: 0x0, symName: '__ZN83_$LT$pyo3..exceptions..PyOverflowError$u20$as$u20$pyo3..type_object..PyTypeInfo$GT$15type_object_raw17h67166c8902090549E', symObjAddr: 0x527C, symBinAddr: 0x2F998, symSize: 0x24 }
  - { offset: 0xD0CDA, size: 0x8, addend: 0x0, symName: '__ZN83_$LT$pyo3..exceptions..PyOverflowError$u20$as$u20$pyo3..type_object..PyTypeInfo$GT$15type_object_raw28_$u7b$$u7b$closure$u7d$$u7d$17hfe7fc53877fb0d0bE', symObjAddr: 0x52A0, symBinAddr: 0x2F9BC, symSize: 0x4C }
  - { offset: 0xD0D2D, size: 0x8, addend: 0x0, symName: '__ZN84_$LT$pyo3..exceptions..PyAttributeError$u20$as$u20$pyo3..type_object..PyTypeInfo$GT$15type_object_raw17h128821a4fd89899fE', symObjAddr: 0x52EC, symBinAddr: 0x2FA08, symSize: 0x24 }
  - { offset: 0xD0D69, size: 0x8, addend: 0x0, symName: '__ZN84_$LT$pyo3..exceptions..PyAttributeError$u20$as$u20$pyo3..type_object..PyTypeInfo$GT$15type_object_raw28_$u7b$$u7b$closure$u7d$$u7d$17hcf7bc552b10790c5E', symObjAddr: 0x5310, symBinAddr: 0x2FA2C, symSize: 0x4C }
  - { offset: 0xD0E20, size: 0x8, addend: 0x0, symName: '__ZN4pyo33err9err_state10PyErrState14lazy_arguments28_$u7b$$u7b$closure$u7d$$u7d$17he3e0838adaf76983E', symObjAddr: 0x2E44, symBinAddr: 0x2EBD0, symSize: 0x70 }
  - { offset: 0xD0E86, size: 0x8, addend: 0x0, symName: '__ZN4pyo33err9err_state10PyErrState10normalized28_$u7b$$u7b$closure$u7d$$u7d$17h3c64c7794bdb18d4E', symObjAddr: 0x2C94, symBinAddr: 0x2EA20, symSize: 0xC }
  - { offset: 0xD0EB7, size: 0x8, addend: 0x0, symName: '__ZN4pyo33err9err_state10PyErrState15make_normalized28_$u7b$$u7b$closure$u7d$$u7d$17h525fed87e2e8c134E', symObjAddr: 0x3184, symBinAddr: 0x2EC40, symSize: 0x34 }
  - { offset: 0xD0EE6, size: 0x8, addend: 0x0, symName: '__ZN4pyo33err9err_state10PyErrState15make_normalized28_$u7b$$u7b$closure$u7d$$u7d$28_$u7b$$u7b$closure$u7d$$u7d$17hbd9fbe29d685c422E', symObjAddr: 0x31B8, symBinAddr: 0x2EC74, symSize: 0x358 }
  - { offset: 0xD0F98, size: 0x8, addend: 0x0, symName: '__ZN4pyo33err9err_state10PyErrState15make_normalized28_$u7b$$u7b$closure$u7d$$u7d$28_$u7b$$u7b$closure$u7d$$u7d$28_$u7b$$u7b$closure$u7d$$u7d$17h9c06bf8b6628cac3E', symObjAddr: 0x3510, symBinAddr: 0x2EFCC, symSize: 0x38 }
  - { offset: 0xD11D6, size: 0x8, addend: 0x0, symName: __ZN4pyo33err9err_state10raise_lazy17he1476bb296b888bbE, symObjAddr: 0x3630, symBinAddr: 0x2F0EC, symSize: 0x148 }
  - { offset: 0xD126A, size: 0x8, addend: 0x0, symName: '__ZN4pyo33err9err_state20PyErrStateNormalized10ptraceback28_$u7b$$u7b$closure$u7d$$u7d$17h75f548cf58c85f1dE', symObjAddr: 0x38B8, symBinAddr: 0x2F374, symSize: 0x24 }
  - { offset: 0xD12AD, size: 0x8, addend: 0x0, symName: '__ZN4pyo33err9err_state20PyErrStateNormalized4take28_$u7b$$u7b$closure$u7d$$u7d$17h55b2af433b23b666E', symObjAddr: 0x392C, symBinAddr: 0x2F3E8, symSize: 0x28 }
  - { offset: 0xD1362, size: 0x8, addend: 0x0, symName: __ZN4pyo35panic14PanicException15type_object_raw11TYPE_OBJECT17h3fa1d330fe33a60aE, symObjAddr: 0x6A50, symBinAddr: 0xA8490, symSize: 0x0 }
  - { offset: 0xD136F, size: 0x8, addend: 0x0, symName: '__ZN4pyo35panic14PanicException15type_object_raw28_$u7b$$u7b$closure$u7d$$u7d$17he5e12ee57a0217ffE', symObjAddr: 0x39D0, symBinAddr: 0x2F468, symSize: 0xE0 }
  - { offset: 0xD143D, size: 0x8, addend: 0x0, symName: '__ZN77_$LT$pyo3..panic..PanicException$u20$as$u20$pyo3..type_object..PyTypeInfo$GT$15type_object_raw17h5277e4d8152834b9E', symObjAddr: 0x4E7C, symBinAddr: 0x2F7CC, symSize: 0x1C }
  - { offset: 0xD1504, size: 0x8, addend: 0x0, symName: __ZN4pyo311type_object10PyTypeInfo10is_type_of17h6279c1b813843a03E, symObjAddr: 0x2594, symBinAddr: 0x2E6E0, symSize: 0x50 }
  - { offset: 0xD1539, size: 0x8, addend: 0x0, symName: __ZN4pyo311type_object10PyTypeInfo10is_type_of17h90791e9113e72f92E, symObjAddr: 0x2634, symBinAddr: 0x2E730, symSize: 0x50 }
  - { offset: 0xD156E, size: 0x8, addend: 0x0, symName: __ZN4pyo311type_object10PyTypeInfo11type_object17h3cafb040b2a74a53E, symObjAddr: 0x27B4, symBinAddr: 0x2E780, symSize: 0x30 }
  - { offset: 0xD15AE, size: 0x8, addend: 0x0, symName: __ZN4pyo311type_object10PyTypeInfo11type_object17h4070ab0acc4de81aE, symObjAddr: 0x27E4, symBinAddr: 0x2E7B0, symSize: 0x30 }
  - { offset: 0xD15EE, size: 0x8, addend: 0x0, symName: __ZN4pyo311type_object10PyTypeInfo11type_object17h8ca14189af6e4bb7E, symObjAddr: 0x2874, symBinAddr: 0x2E7E0, symSize: 0x30 }
  - { offset: 0xD162E, size: 0x8, addend: 0x0, symName: __ZN4pyo311type_object10PyTypeInfo11type_object17ha812f1a2489286c6E, symObjAddr: 0x2934, symBinAddr: 0x2E810, symSize: 0x30 }
  - { offset: 0xD166E, size: 0x8, addend: 0x0, symName: __ZN4pyo311type_object10PyTypeInfo11type_object17ha8e1302aba1df7d9E, symObjAddr: 0x2964, symBinAddr: 0x2E840, symSize: 0x30 }
  - { offset: 0xD16AE, size: 0x8, addend: 0x0, symName: __ZN4pyo311type_object10PyTypeInfo11type_object17ha918e87b1ff35086E, symObjAddr: 0x2994, symBinAddr: 0x2E870, symSize: 0x30 }
  - { offset: 0xD16F4, size: 0x8, addend: 0x0, symName: '__ZN52_$LT$T$u20$as$u20$pyo3..type_object..PyTypeCheck$GT$10type_check17h1b69285c1a5ca6adE', symObjAddr: 0x4B88, symBinAddr: 0x2F724, symSize: 0x24 }
  - { offset: 0xD1729, size: 0x8, addend: 0x0, symName: '__ZN52_$LT$T$u20$as$u20$pyo3..type_object..PyTypeCheck$GT$10type_check17hf8170e1aab0a48b6E', symObjAddr: 0x4C3C, symBinAddr: 0x2F748, symSize: 0x24 }
  - { offset: 0xD27B8, size: 0x8, addend: 0x0, symName: __ZN4core3ptr10swap_chunk17h169b0a42bf597546E, symObjAddr: 0x974, symBinAddr: 0x2E110, symSize: 0x3C }
  - { offset: 0xD27F1, size: 0x8, addend: 0x0, symName: __ZN4core3ptr10swap_chunk17h828360ffdc5054d3E, symObjAddr: 0x9B0, symBinAddr: 0x2E14C, symSize: 0x3C }
  - { offset: 0xD282A, size: 0x8, addend: 0x0, symName: __ZN4core3ptr10swap_chunk17ha5e6e6ab2ced2eeaE, symObjAddr: 0x9EC, symBinAddr: 0x2E188, symSize: 0x3C }
  - { offset: 0xD2863, size: 0x8, addend: 0x0, symName: __ZN4core3ptr10swap_chunk17hde7ac5afc2276086E, symObjAddr: 0xA28, symBinAddr: 0x2E1C4, symSize: 0x3C }
  - { offset: 0xD295F, size: 0x8, addend: 0x0, symName: __ZN4core3ptr14read_unaligned17h5b118cabde194464E, symObjAddr: 0xB00, symBinAddr: 0x2E200, symSize: 0x9C }
  - { offset: 0xD2AAA, size: 0x8, addend: 0x0, symName: __ZN4core3ptr15write_unaligned17h42c3e338f34a93aeE, symObjAddr: 0xB9C, symBinAddr: 0x2E29C, symSize: 0x78 }
  - { offset: 0xD2B35, size: 0x8, addend: 0x0, symName: __ZN4core3ptr19copy_nonoverlapping18precondition_check17h78d2a46e39212bd2E, symObjAddr: 0xC14, symBinAddr: 0x2E314, symSize: 0x168 }
  - { offset: 0xD2D5C, size: 0x8, addend: 0x0, symName: __ZN4core3ptr25swap_nonoverlapping_bytes26swap_nonoverlapping_chunks17h0fa3996ffa76046fE, symObjAddr: 0x11B4, symBinAddr: 0x2E47C, symSize: 0xC0 }
  - { offset: 0xD2EDA, size: 0x8, addend: 0x0, symName: __ZN4core3ptr5write17hd91e39c1bcf7bf8dE, symObjAddr: 0x13A4, symBinAddr: 0x2E53C, symSize: 0x1C }
  - { offset: 0xD2F21, size: 0x8, addend: 0x0, symName: __ZN4core3ptr7replace18precondition_check17hc4da195dab929434E, symObjAddr: 0x13C0, symBinAddr: 0x2E558, symSize: 0x9C }
  - { offset: 0xD368A, size: 0x8, addend: 0x0, symName: '__ZN104_$LT$core..ops..index_range..IndexRange$u20$as$u20$core..slice..index..SliceIndex$LT$$u5b$T$u5d$$GT$$GT$17get_unchecked_mut18precondition_check17ha64382e095478b14E', symObjAddr: 0x0, symBinAddr: 0x2E0B0, symSize: 0x60 }
  - { offset: 0xD36E9, size: 0x8, addend: 0x0, symName: '__ZN75_$LT$usize$u20$as$u20$core..slice..index..SliceIndex$LT$$u5b$T$u5d$$GT$$GT$13get_unchecked18precondition_check17hee126c6ccffd1d1cE', symObjAddr: 0x4D4C, symBinAddr: 0x2F76C, symSize: 0x60 }
  - { offset: 0xD4F2C, size: 0x8, addend: 0x0, symName: __ZN4pyo310exceptions11PyTypeError7new_err17h5072da0f7c9aa6feE, symObjAddr: 0x16D4, symBinAddr: 0x2E5F4, symSize: 0x34 }
  - { offset: 0xD4F58, size: 0x8, addend: 0x0, symName: __ZN4pyo310exceptions11PyTypeError7new_err17h821ae636f4f8e8f0E, symObjAddr: 0x1708, symBinAddr: 0x2E628, symSize: 0x28 }
  - { offset: 0xD4F83, size: 0x8, addend: 0x0, symName: __ZN4pyo310exceptions11PyTypeError7new_err17hd9e5edca26bfaa86E, symObjAddr: 0x1730, symBinAddr: 0x2E650, symSize: 0x34 }
  - { offset: 0xD4FAF, size: 0x8, addend: 0x0, symName: __ZN4pyo310exceptions13PyImportError7new_err17h5828b176deebb208E, symObjAddr: 0x18A8, symBinAddr: 0x2E684, symSize: 0x28 }
  - { offset: 0xD4FDA, size: 0x8, addend: 0x0, symName: __ZN4pyo310exceptions15PyOverflowError7new_err17h54317ac0c73994fdE, symObjAddr: 0x1950, symBinAddr: 0x2E6AC, symSize: 0x34 }
  - { offset: 0xD507F, size: 0x8, addend: 0x0, symName: __ZN4pyo33err9err_state10PyErrState10from_inner17h2c51ebc1d581a4f9E, symObjAddr: 0x2B14, symBinAddr: 0x2E8A0, symSize: 0xF0 }
  - { offset: 0xD50C0, size: 0x8, addend: 0x0, symName: __ZN4pyo33err9err_state10PyErrState10normalized17h593d0b91602030dcE, symObjAddr: 0x2C04, symBinAddr: 0x2E990, symSize: 0x90 }
  - { offset: 0xD5111, size: 0x8, addend: 0x0, symName: __ZN4pyo33err9err_state10PyErrState13as_normalized17h378cb57c68c31c9cE, symObjAddr: 0x2CA0, symBinAddr: 0x2EA2C, symSize: 0x100 }
  - { offset: 0xD5176, size: 0x8, addend: 0x0, symName: __ZN4pyo33err9err_state10PyErrState14lazy_arguments17h3b07c1a657a47a7eE, symObjAddr: 0x2DA0, symBinAddr: 0x2EB2C, symSize: 0xA4 }
  - { offset: 0xD520F, size: 0x8, addend: 0x0, symName: __ZN4pyo33err9err_state10PyErrState15make_normalized17h91b1ed4ae6dea951E, symObjAddr: 0x2EB4, symBinAddr: 0x6AFC0, symSize: 0x2D0 }
  - { offset: 0xD52D1, size: 0x8, addend: 0x0, symName: __ZN4pyo33err9err_state10PyErrState4lazy17h427bd0f58d049bc7E, symObjAddr: 0x3548, symBinAddr: 0x2F004, symSize: 0x3C }
  - { offset: 0xD530F, size: 0x8, addend: 0x0, symName: __ZN4pyo33err9err_state10PyErrState7restore17hbe2c4e8c0d7e892dE, symObjAddr: 0x3584, symBinAddr: 0x2F040, symSize: 0xAC }
  - { offset: 0xD5368, size: 0x8, addend: 0x0, symName: __ZN4pyo33err9err_state15PyErrStateInner7restore17hea277b208f6096d6E, symObjAddr: 0x3778, symBinAddr: 0x2F234, symSize: 0x84 }
  - { offset: 0xD53E3, size: 0x8, addend: 0x0, symName: __ZN4pyo33err9err_state15PyErrStateInner9normalize17h754f1895288b8be5E, symObjAddr: 0x37FC, symBinAddr: 0x2F2B8, symSize: 0x8C }
  - { offset: 0xD545E, size: 0x8, addend: 0x0, symName: __ZN4pyo33err9err_state20PyErrStateNormalized10ptraceback17hdada65eaef98539dE, symObjAddr: 0x3888, symBinAddr: 0x2F344, symSize: 0x30 }
  - { offset: 0xD5499, size: 0x8, addend: 0x0, symName: __ZN4pyo33err9err_state20PyErrStateNormalized3new17h53d8f4a11440dba8E, symObjAddr: 0x38DC, symBinAddr: 0x2F398, symSize: 0x2C }
  - { offset: 0xD54BB, size: 0x8, addend: 0x0, symName: __ZN4pyo33err9err_state20PyErrStateNormalized4take17hcde54d4bd423f3f5E, symObjAddr: 0x3908, symBinAddr: 0x2F3C4, symSize: 0x24 }
  - { offset: 0xD54E8, size: 0x8, addend: 0x0, symName: __ZN4pyo33err9err_state20PyErrStateNormalized5ptype17hbd50eca723ec7b1dE, symObjAddr: 0x3954, symBinAddr: 0x2F410, symSize: 0x2C }
  - { offset: 0xD5523, size: 0x8, addend: 0x0, symName: __ZN4pyo35panic14PanicException15type_object_raw17h8fcd82cf8af179d6E, symObjAddr: 0x39A4, symBinAddr: 0x2F43C, symSize: 0x2C }
  - { offset: 0xD557E, size: 0x8, addend: 0x0, symName: __ZN4pyo35panic14PanicException18from_panic_payload17h494235ff2914b218E, symObjAddr: 0x3AB0, symBinAddr: 0x6B290, symSize: 0x144 }
  - { offset: 0xD55DD, size: 0x8, addend: 0x0, symName: __ZN4pyo35panic14PanicException7new_err17h666e578f4d15f6a7E, symObjAddr: 0x3BF4, symBinAddr: 0x2F548, symSize: 0x28 }
  - { offset: 0xD561B, size: 0x8, addend: 0x0, symName: __ZN4pyo35panic14PanicException7new_err17ha4aee22a4615b9c2E, symObjAddr: 0x3C1C, symBinAddr: 0x2F570, symSize: 0x34 }
  - { offset: 0xD5647, size: 0x8, addend: 0x0, symName: __ZN4pyo35types10typeobject6PyType22from_borrowed_type_ptr17hf52e594f408d27b3E, symObjAddr: 0x3C50, symBinAddr: 0x2F5A4, symSize: 0x34 }
  - { offset: 0xD5682, size: 0x8, addend: 0x0, symName: __ZN4pyo35types5bytes7PyBytes3new17h70f93a47814ad183E, symObjAddr: 0x3CBC, symBinAddr: 0x2F5D8, symSize: 0x58 }
  - { offset: 0xD5704, size: 0x8, addend: 0x0, symName: __ZN4pyo35types6string8PyString3new17heac60d02632b3b30E, symObjAddr: 0x47CC, symBinAddr: 0x2F630, symSize: 0x68 }
  - { offset: 0xD5779, size: 0x8, addend: 0x0, symName: __ZN4pyo35types6string8PyString6intern17ha2c3edf02d6ad0f6E, symObjAddr: 0x4834, symBinAddr: 0x2F698, symSize: 0x8C }
  - { offset: 0xD581A, size: 0x8, addend: 0x0, symName: '__ZN78_$LT$once_cell..sync..Lazy$LT$T$C$F$GT$$u20$as$u20$core..ops..deref..Deref$GT$5deref17h82d02cf2b2cc5229E', symObjAddr: 0x4ED4, symBinAddr: 0x2F7E8, symSize: 0x24 }
  - { offset: 0xD59A7, size: 0x8, addend: 0x0, symName: '__ZN9once_cell4sync17Lazy$LT$T$C$F$GT$5force28_$u7b$$u7b$closure$u7d$$u7d$17hb71a8ac2ecb2a371E', symObjAddr: 0x5848, symBinAddr: 0x2FAC8, symSize: 0x70 }
  - { offset: 0xD5A26, size: 0x8, addend: 0x0, symName: '__ZN9once_cell4sync17OnceCell$LT$T$GT$11get_or_init28_$u7b$$u7b$closure$u7d$$u7d$17h33d9d0887cd851d6E', symObjAddr: 0x58EC, symBinAddr: 0x2FB6C, symSize: 0x44 }
  - { offset: 0xD5B2B, size: 0x8, addend: 0x0, symName: '__ZN9once_cell4sync17Lazy$LT$T$C$F$GT$3get17h54cd137a1117912dE', symObjAddr: 0x57F8, symBinAddr: 0x2FA78, symSize: 0x24 }
  - { offset: 0xD5B60, size: 0x8, addend: 0x0, symName: '__ZN9once_cell4sync17Lazy$LT$T$C$F$GT$5force17hea09822fc6bde824E', symObjAddr: 0x581C, symBinAddr: 0x2FA9C, symSize: 0x2C }
  - { offset: 0xD5BA2, size: 0x8, addend: 0x0, symName: '__ZN9once_cell4sync17OnceCell$LT$T$GT$11get_or_init17h354ceaad6852f03bE', symObjAddr: 0x58B8, symBinAddr: 0x2FB38, symSize: 0x34 }
  - { offset: 0xD5BE6, size: 0x8, addend: 0x0, symName: '__ZN9once_cell4sync17OnceCell$LT$T$GT$13get_unchecked17h64357e4bfebeb685E', symObjAddr: 0x5930, symBinAddr: 0x2FBB0, symSize: 0x24 }
  - { offset: 0xD5C12, size: 0x8, addend: 0x0, symName: '__ZN9once_cell4sync17OnceCell$LT$T$GT$15get_or_try_init17h775c436755cbe926E', symObjAddr: 0x5954, symBinAddr: 0x2FBD4, symSize: 0x128 }
  - { offset: 0xD5C75, size: 0x8, addend: 0x0, symName: '__ZN9once_cell4sync17OnceCell$LT$T$GT$3get17h903fd402a5c0a55aE', symObjAddr: 0x5A7C, symBinAddr: 0x2FCFC, symSize: 0x4C }
  - { offset: 0xD6571, size: 0x8, addend: 0x0, symName: '__ZN50_$LT$T$u20$as$u20$core..convert..Into$LT$U$GT$$GT$4into17ha571750f103292abE', symObjAddr: 0x7070, symBinAddr: 0x31CCC, symSize: 0x14 }
  - { offset: 0xD65B2, size: 0x8, addend: 0x0, symName: '__ZN50_$LT$T$u20$as$u20$core..convert..Into$LT$U$GT$$GT$4into17hb9612fae15866cbaE', symObjAddr: 0x7084, symBinAddr: 0x31CE0, symSize: 0x30 }
  - { offset: 0xD767C, size: 0x8, addend: 0x0, symName: '__ZN4core3str21_$LT$impl$u20$str$GT$3len17hcd512ce1481a4e3bE', symObjAddr: 0xD9C, symBinAddr: 0x2FF98, symSize: 0x1C }
  - { offset: 0xD876A, size: 0x8, addend: 0x0, symName: '__ZN4pyo33err5PyErr3new28_$u7b$$u7b$closure$u7d$$u7d$17h46465b1d6145eb8fE', symObjAddr: 0x3F94, symBinAddr: 0x30F34, symSize: 0xD4 }
  - { offset: 0xD87C3, size: 0x8, addend: 0x0, symName: '__ZN4pyo33err5PyErr3new28_$u7b$$u7b$closure$u7d$$u7d$17h488d9a0cce0b237eE', symObjAddr: 0x4068, symBinAddr: 0x31008, symSize: 0xD4 }
  - { offset: 0xD881C, size: 0x8, addend: 0x0, symName: '__ZN4pyo33err5PyErr3new28_$u7b$$u7b$closure$u7d$$u7d$17h97ea130589122ac6E', symObjAddr: 0x44E4, symBinAddr: 0x310DC, symSize: 0xD4 }
  - { offset: 0xD8875, size: 0x8, addend: 0x0, symName: '__ZN4pyo33err5PyErr3new28_$u7b$$u7b$closure$u7d$$u7d$17hc6b95bc619d960b5E', symObjAddr: 0x4A64, symBinAddr: 0x311B0, symSize: 0xD4 }
  - { offset: 0xD88CE, size: 0x8, addend: 0x0, symName: '__ZN4pyo33err5PyErr3new28_$u7b$$u7b$closure$u7d$$u7d$17hce54b019d2b473d0E', symObjAddr: 0x4B38, symBinAddr: 0x31284, symSize: 0xC0 }
  - { offset: 0xD8926, size: 0x8, addend: 0x0, symName: '__ZN4pyo33err5PyErr3new28_$u7b$$u7b$closure$u7d$$u7d$17he47d374bb0d41eb7E', symObjAddr: 0x4D78, symBinAddr: 0x31344, symSize: 0xC0 }
  - { offset: 0xD897E, size: 0x8, addend: 0x0, symName: '__ZN4pyo33err5PyErr3new28_$u7b$$u7b$closure$u7d$$u7d$17hf9d7a42f2b13e6ecE', symObjAddr: 0x4FB8, symBinAddr: 0x31404, symSize: 0xC0 }
  - { offset: 0xD89DC, size: 0x8, addend: 0x0, symName: '__ZN4pyo33err5PyErr4take28_$u7b$$u7b$closure$u7d$$u7d$17hb367c3926d919b8fE', symObjAddr: 0x5468, symBinAddr: 0x31720, symSize: 0x7C }
  - { offset: 0xD8A15, size: 0x8, addend: 0x0, symName: '__ZN4pyo33err5PyErr4take28_$u7b$$u7b$closure$u7d$$u7d$17hef2a830604521f98E', symObjAddr: 0x54E4, symBinAddr: 0x3179C, symSize: 0x64 }
  - { offset: 0xD8A5F, size: 0x8, addend: 0x0, symName: '__ZN4pyo33err5PyErr9set_cause28_$u7b$$u7b$closure$u7d$$u7d$17haed6cadb257ab8ceE', symObjAddr: 0x5AD4, symBinAddr: 0x31C6C, symSize: 0x38 }
  - { offset: 0xD8AE4, size: 0x8, addend: 0x0, symName: '__ZN47_$LT$T$u20$as$u20$pyo3..err..PyErrArguments$GT$9arguments17h3a1a1c1b69bb5405E', symObjAddr: 0x968, symBinAddr: 0x2FE3C, symSize: 0x40 }
  - { offset: 0xD8B4F, size: 0x8, addend: 0x0, symName: '__ZN47_$LT$T$u20$as$u20$pyo3..err..PyErrArguments$GT$9arguments17hdcbf3e387e49c91eE', symObjAddr: 0x9A8, symBinAddr: 0x2FE7C, symSize: 0x11C }
  - { offset: 0xD8CC8, size: 0x8, addend: 0x0, symName: __ZN4pyo33err17error_on_minusone17h5c28bdcd695ee7c4E, symObjAddr: 0x13CC, symBinAddr: 0x301DC, symSize: 0xC8 }
  - { offset: 0xD8D1A, size: 0x8, addend: 0x0, symName: __ZN4pyo33err17error_on_minusone17h8a086632d4ce7a72E, symObjAddr: 0x1494, symBinAddr: 0x302A4, symSize: 0xC8 }
  - { offset: 0xD8D6C, size: 0x8, addend: 0x0, symName: __ZN4pyo33err17error_on_minusone17hb35033828db3d6b1E, symObjAddr: 0x155C, symBinAddr: 0x3036C, symSize: 0xC8 }
  - { offset: 0xD8DBE, size: 0x8, addend: 0x0, symName: __ZN4pyo33err17panic_after_error17hdb617b71d18225d6E, symObjAddr: 0x1624, symBinAddr: 0x30434, symSize: 0x30 }
  - { offset: 0xD8DF9, size: 0x8, addend: 0x0, symName: '__ZN53_$LT$pyo3..err..PyErr$u20$as$u20$core..fmt..Debug$GT$3fmt17h298c83f5dca2b30cE', symObjAddr: 0x7110, symBinAddr: 0x31D34, symSize: 0x38 }
  - { offset: 0xD8E3B, size: 0x8, addend: 0x0, symName: '__ZN53_$LT$pyo3..err..PyErr$u20$as$u20$core..fmt..Debug$GT$3fmt28_$u7b$$u7b$closure$u7d$$u7d$17h5233074b7be3d3aeE', symObjAddr: 0x7148, symBinAddr: 0x31D6C, symSize: 0x16C }
  - { offset: 0xD8EA0, size: 0x8, addend: 0x0, symName: '__ZN55_$LT$pyo3..err..PyErr$u20$as$u20$core..fmt..Display$GT$3fmt17h8b3521bcb771ffadE', symObjAddr: 0x72B4, symBinAddr: 0x31ED8, symSize: 0x2C }
  - { offset: 0xD8EE2, size: 0x8, addend: 0x0, symName: '__ZN55_$LT$pyo3..err..PyErr$u20$as$u20$core..fmt..Display$GT$3fmt28_$u7b$$u7b$closure$u7d$$u7d$17he400c0f65a2781b8E', symObjAddr: 0x72E0, symBinAddr: 0x31F04, symSize: 0x3B0 }
  - { offset: 0xD904B, size: 0x8, addend: 0x0, symName: '__ZN55_$LT$pyo3..err..PyErr$u20$as$u20$core..fmt..Display$GT$3fmt28_$u7b$$u7b$closure$u7d$$u7d$28_$u7b$$u7b$closure$u7d$$u7d$17hd926ce6694012303E', symObjAddr: 0x7690, symBinAddr: 0x322B4, symSize: 0x1C }
  - { offset: 0xD908C, size: 0x8, addend: 0x0, symName: '__ZN81_$LT$pyo3..err..PyDowncastErrorArguments$u20$as$u20$pyo3..err..PyErrArguments$GT$9arguments17h5069833bccbf50a9E', symObjAddr: 0x79D0, symBinAddr: 0x3230C, symSize: 0x208 }
  - { offset: 0xD9195, size: 0x8, addend: 0x0, symName: '__ZN88_$LT$pyo3..err..PyErr$u20$as$u20$core..convert..From$LT$pyo3..err..DowncastError$GT$$GT$4from17h4df03223fa2bb0a4E', symObjAddr: 0x7C14, symBinAddr: 0x32514, symSize: 0xE8 }
  - { offset: 0xD91E8, size: 0x8, addend: 0x0, symName: '__ZN92_$LT$pyo3..err..PyErr$u20$as$u20$core..convert..From$LT$pyo3..err..DowncastIntoError$GT$$GT$4from17h0db8a4153ad169b6E', symObjAddr: 0x7D90, symBinAddr: 0x32634, symSize: 0xF4 }
  - { offset: 0xD9660, size: 0x8, addend: 0x0, symName: '__ZN73_$LT$pyo3..types..num..PyInt$u20$as$u20$pyo3..type_object..PyTypeInfo$GT$15type_object_raw17h7981c9d680f7a27eE', symObjAddr: 0x78FC, symBinAddr: 0x322D0, symSize: 0x24 }
  - { offset: 0xD969C, size: 0x8, addend: 0x0, symName: '__ZN73_$LT$pyo3..types..num..PyInt$u20$as$u20$pyo3..type_object..PyTypeInfo$GT$15type_object_raw28_$u7b$$u7b$closure$u7d$$u7d$17h47283b407bd8e404E', symObjAddr: 0x7920, symBinAddr: 0x322F4, symSize: 0x18 }
  - { offset: 0xD97CD, size: 0x8, addend: 0x0, symName: __ZN4pyo311type_object10PyTypeInfo10is_type_of17h8f6bb7efe556aeeeE, symObjAddr: 0x11A4, symBinAddr: 0x2FFB4, symSize: 0x50 }
  - { offset: 0xD9808, size: 0x8, addend: 0x0, symName: '__ZN52_$LT$T$u20$as$u20$pyo3..type_object..PyTypeCheck$GT$10type_check17hb29ef0cab5af202bE', symObjAddr: 0x70EC, symBinAddr: 0x31D10, symSize: 0x24 }
  - { offset: 0xD992C, size: 0x8, addend: 0x0, symName: '__ZN3std3sys4sync5mutex7pthread5Mutex3get28_$u7b$$u7b$closure$u7d$$u7d$17h6004d6706f175759E', symObjAddr: 0x850, symBinAddr: 0x2FD48, symSize: 0xF4 }
  - { offset: 0xDA515, size: 0x8, addend: 0x0, symName: __ZN8pyo3_ffi12methodobject17PyCFunction_NewEx17h0ba455abba30530aE, symObjAddr: 0x7CFC, symBinAddr: 0x325FC, symSize: 0x38 }
  - { offset: 0xDAC83, size: 0x8, addend: 0x0, symName: __ZN4pyo33err13DowncastError17new_from_borrowed17h70173d9d6af2cd78E, symObjAddr: 0x11F4, symBinAddr: 0x30004, symSize: 0x68 }
  - { offset: 0xDACC9, size: 0x8, addend: 0x0, symName: __ZN4pyo33err13DowncastError3new17h4baaf72c21779c4aE, symObjAddr: 0x125C, symBinAddr: 0x3006C, symSize: 0xB0 }
  - { offset: 0xDAD02, size: 0x8, addend: 0x0, symName: __ZN4pyo33err17DowncastIntoError10into_inner17hec59837554f770f6E, symObjAddr: 0x130C, symBinAddr: 0x3011C, symSize: 0x28 }
  - { offset: 0xDAD25, size: 0x8, addend: 0x0, symName: __ZN4pyo33err17DowncastIntoError3new17h14e8f2d8913f2d52E, symObjAddr: 0x1334, symBinAddr: 0x30144, symSize: 0x98 }
  - { offset: 0xDAD5E, size: 0x8, addend: 0x0, symName: __ZN4pyo33err5PyErr10from_state17hd5162c764decea8fE, symObjAddr: 0x1820, symBinAddr: 0x30464, symSize: 0x30 }
  - { offset: 0xDAD82, size: 0x8, addend: 0x0, symName: __ZN4pyo33err5PyErr10from_value17h7e3f68c972b46045E, symObjAddr: 0x1850, symBinAddr: 0x30494, symSize: 0x1D8 }
  - { offset: 0xDAE22, size: 0x8, addend: 0x0, symName: __ZN4pyo33err5PyErr10into_value17h93a8543dbd11517cE, symObjAddr: 0x1A28, symBinAddr: 0x3066C, symSize: 0x128 }
  - { offset: 0xDAEB0, size: 0x8, addend: 0x0, symName: __ZN4pyo33err5PyErr10normalized17hb4973ea0af08eb1fE, symObjAddr: 0x1B50, symBinAddr: 0x30794, symSize: 0x24 }
  - { offset: 0xDAEEE, size: 0x8, addend: 0x0, symName: __ZN4pyo33err5PyErr11is_instance17h46320f6eb7832e2cE, symObjAddr: 0x1B74, symBinAddr: 0x307B8, symSize: 0xA0 }
  - { offset: 0xDAF51, size: 0x8, addend: 0x0, symName: __ZN4pyo33err5PyErr14is_instance_of17h3e08fb8ea975958dE, symObjAddr: 0x1EB8, symBinAddr: 0x30858, symSize: 0x84 }
  - { offset: 0xDAF98, size: 0x8, addend: 0x0, symName: __ZN4pyo33err5PyErr16write_unraisable17hf7f1153f7449644aE, symObjAddr: 0x22D8, symBinAddr: 0x308DC, symSize: 0x58 }
  - { offset: 0xDAFF3, size: 0x8, addend: 0x0, symName: __ZN4pyo33err5PyErr22print_panic_and_unwind17hf9b1d40f04b4151eE, symObjAddr: 0x2330, symBinAddr: 0x30934, symSize: 0x1AC }
  - { offset: 0xDB06D, size: 0x8, addend: 0x0, symName: __ZN4pyo33err5PyErr3new17h239dffc2859c84f3E, symObjAddr: 0x2684, symBinAddr: 0x30AE0, symSize: 0x9C }
  - { offset: 0xDB0CB, size: 0x8, addend: 0x0, symName: __ZN4pyo33err5PyErr3new17h5214da32c98d1009E, symObjAddr: 0x2D88, symBinAddr: 0x30B7C, symSize: 0x9C }
  - { offset: 0xDB129, size: 0x8, addend: 0x0, symName: __ZN4pyo33err5PyErr3new17ha06e3e1fa8ba8f4bE, symObjAddr: 0x3128, symBinAddr: 0x30C18, symSize: 0xA0 }
  - { offset: 0xDB188, size: 0x8, addend: 0x0, symName: __ZN4pyo33err5PyErr3new17ha55b5e9c8345a6d0E, symObjAddr: 0x31C8, symBinAddr: 0x30CB8, symSize: 0xA0 }
  - { offset: 0xDB1E7, size: 0x8, addend: 0x0, symName: __ZN4pyo33err5PyErr3new17ha58c46f788bad5a9E, symObjAddr: 0x3268, symBinAddr: 0x30D58, symSize: 0x9C }
  - { offset: 0xDB245, size: 0x8, addend: 0x0, symName: __ZN4pyo33err5PyErr3new17hbde63915376657c5E, symObjAddr: 0x34D4, symBinAddr: 0x30DF4, symSize: 0xA0 }
  - { offset: 0xDB2A4, size: 0x8, addend: 0x0, symName: __ZN4pyo33err5PyErr3new17hc5ed0dac1cf3b301E, symObjAddr: 0x3574, symBinAddr: 0x30E94, symSize: 0xA0 }
  - { offset: 0xDB2F6, size: 0x8, addend: 0x0, symName: __ZN4pyo33err5PyErr4take17h6cafed575e69b6e0E, symObjAddr: 0x520C, symBinAddr: 0x314C4, symSize: 0x25C }
  - { offset: 0xDB3C2, size: 0x8, addend: 0x0, symName: __ZN4pyo33err5PyErr5cause17h0c67c44cc52575e0E, symObjAddr: 0x55BC, symBinAddr: 0x31800, symSize: 0x44 }
  - { offset: 0xDB449, size: 0x8, addend: 0x0, symName: __ZN4pyo33err5PyErr5fetch17ha5dd41884ae225a4E, symObjAddr: 0x5600, symBinAddr: 0x31844, symSize: 0x5C }
  - { offset: 0xDB485, size: 0x8, addend: 0x0, symName: __ZN4pyo33err5PyErr5value17h3a1080309eb10442E, symObjAddr: 0x5698, symBinAddr: 0x318A0, symSize: 0x28 }
  - { offset: 0xDB4C3, size: 0x8, addend: 0x0, symName: __ZN4pyo33err5PyErr7restore17h2bf0f444f4aca17fE, symObjAddr: 0x56EC, symBinAddr: 0x318C8, symSize: 0x38 }
  - { offset: 0xDB502, size: 0x8, addend: 0x0, symName: __ZN4pyo33err5PyErr8get_type17heb7876b7bf981bacE, symObjAddr: 0x5724, symBinAddr: 0x31900, symSize: 0x28 }
  - { offset: 0xDB54D, size: 0x8, addend: 0x0, symName: __ZN4pyo33err5PyErr8new_type17h6d24585a81d373f0E, symObjAddr: 0x574C, symBinAddr: 0x31928, symSize: 0x1E0 }
  - { offset: 0xDB6A1, size: 0x8, addend: 0x0, symName: __ZN4pyo33err5PyErr9set_cause17h03543a16adfd3fd1E, symObjAddr: 0x5970, symBinAddr: 0x31B08, symSize: 0x164 }
  - { offset: 0xDB731, size: 0x8, addend: 0x0, symName: __ZN4pyo33err5PyErr9traceback17hf869d9f870a2f363E, symObjAddr: 0x5B0C, symBinAddr: 0x31CA4, symSize: 0x28 }
  - { offset: 0xDB8FB, size: 0x8, addend: 0x0, symName: '__ZN3std4sync4once4Once15call_once_force28_$u7b$$u7b$closure$u7d$$u7d$17h1f7b4f058ce8a3c3E', symObjAddr: 0x918, symBinAddr: 0x32CBC, symSize: 0x68 }
  - { offset: 0xDB98D, size: 0x8, addend: 0x0, symName: '__ZN3std4sync4once4Once15call_once_force28_$u7b$$u7b$closure$u7d$$u7d$17h4dce0ff1c958e2bdE', symObjAddr: 0xB0C, symBinAddr: 0x32D24, symSize: 0x84 }
  - { offset: 0xDBA1F, size: 0x8, addend: 0x0, symName: '__ZN3std4sync4once4Once15call_once_force28_$u7b$$u7b$closure$u7d$$u7d$17h896fac9436247febE', symObjAddr: 0xB90, symBinAddr: 0x32DA8, symSize: 0x68 }
  - { offset: 0xDBAB1, size: 0x8, addend: 0x0, symName: '__ZN3std4sync4once4Once15call_once_force28_$u7b$$u7b$closure$u7d$$u7d$17h8b491a2bfbb03350E', symObjAddr: 0xBF8, symBinAddr: 0x32E10, symSize: 0x84 }
  - { offset: 0xDBB43, size: 0x8, addend: 0x0, symName: '__ZN3std4sync4once4Once15call_once_force28_$u7b$$u7b$closure$u7d$$u7d$17hbf6225f2f7844079E', symObjAddr: 0xC7C, symBinAddr: 0x32E94, symSize: 0x84 }
  - { offset: 0xDBBDB, size: 0x8, addend: 0x0, symName: '__ZN3std4sync4once4Once9call_once28_$u7b$$u7b$closure$u7d$$u7d$17h26dc82785580e565E', symObjAddr: 0xED8, symBinAddr: 0x330F0, symSize: 0x60 }
  - { offset: 0xDBC69, size: 0x8, addend: 0x0, symName: '__ZN3std4sync4once4Once9call_once28_$u7b$$u7b$closure$u7d$$u7d$17h775cd7312647f685E', symObjAddr: 0xF38, symBinAddr: 0x33150, symSize: 0x68 }
  - { offset: 0xDC017, size: 0x8, addend: 0x0, symName: '__ZN3std4sync6poison5mutex19MutexGuard$LT$T$GT$3new28_$u7b$$u7b$closure$u7d$$u7d$17h9e9c7b5bcd3cd0f9E', symObjAddr: 0x1134, symBinAddr: 0x332EC, symSize: 0x18 }
  - { offset: 0xDC05F, size: 0x8, addend: 0x0, symName: '__ZN3std4sync6poison5mutex19MutexGuard$LT$T$GT$3new28_$u7b$$u7b$closure$u7d$$u7d$17he4abc5c8fe4d21b8E', symObjAddr: 0x114C, symBinAddr: 0x33304, symSize: 0x18 }
  - { offset: 0xDC0AE, size: 0x8, addend: 0x0, symName: '__ZN87_$LT$std..sync..poison..mutex..MutexGuard$LT$T$GT$$u20$as$u20$core..ops..drop..Drop$GT$4drop17h26129b62a7f40a5cE', symObjAddr: 0x51E8, symBinAddr: 0x346FC, symSize: 0x58 }
  - { offset: 0xDC12C, size: 0x8, addend: 0x0, symName: '__ZN87_$LT$std..sync..poison..mutex..MutexGuard$LT$T$GT$$u20$as$u20$core..ops..drop..Drop$GT$4drop17h63fe53b387a9eedcE', symObjAddr: 0x5240, symBinAddr: 0x34754, symSize: 0x58 }
  - { offset: 0xDC1B0, size: 0x8, addend: 0x0, symName: '__ZN89_$LT$std..sync..poison..mutex..MutexGuard$LT$T$GT$$u20$as$u20$core..ops..deref..Deref$GT$5deref17hb570da3be887df96E', symObjAddr: 0x52B4, symBinAddr: 0x347AC, symSize: 0x1C }
  - { offset: 0xDC1FC, size: 0x8, addend: 0x0, symName: '__ZN89_$LT$std..sync..poison..mutex..MutexGuard$LT$T$GT$$u20$as$u20$core..ops..deref..Deref$GT$5deref17hdfe460f62e8d39c6E', symObjAddr: 0x52D0, symBinAddr: 0x347C8, symSize: 0x1C }
  - { offset: 0xDC24E, size: 0x8, addend: 0x0, symName: '__ZN92_$LT$std..sync..poison..mutex..MutexGuard$LT$T$GT$$u20$as$u20$core..ops..deref..DerefMut$GT$9deref_mut17h15f7b51ffede1b31E', symObjAddr: 0x5308, symBinAddr: 0x347E4, symSize: 0x1C }
  - { offset: 0xDC29A, size: 0x8, addend: 0x0, symName: '__ZN92_$LT$std..sync..poison..mutex..MutexGuard$LT$T$GT$$u20$as$u20$core..ops..deref..DerefMut$GT$9deref_mut17h28d908d7e0046601E', symObjAddr: 0x5324, symBinAddr: 0x34800, symSize: 0x1C }
  - { offset: 0xDE1F9, size: 0x8, addend: 0x0, symName: __ZN4core4sync6atomic11atomic_load17h53b031b71aaf04a1E, symObjAddr: 0x1748, symBinAddr: 0x33448, symSize: 0xF8 }
  - { offset: 0xDE23F, size: 0x8, addend: 0x0, symName: __ZN4core4sync6atomic11atomic_load17h80fa0c72575d8800E, symObjAddr: 0x1840, symBinAddr: 0x33540, symSize: 0xF8 }
  - { offset: 0xDE285, size: 0x8, addend: 0x0, symName: __ZN4core4sync6atomic23atomic_compare_exchange17h3af02ea2be91d461E, symObjAddr: 0x1A34, symBinAddr: 0x33638, symSize: 0x4B4 }
  - { offset: 0xDE320, size: 0x8, addend: 0x0, symName: __ZN4core4sync6atomic23atomic_compare_exchange17h53edf3b4c7e0d71cE, symObjAddr: 0x1EE8, symBinAddr: 0x33AEC, symSize: 0x4B4 }
  - { offset: 0xDF177, size: 0x8, addend: 0x0, symName: '__ZN115_$LT$core..iter..adapters..filter_map..FilterMap$LT$I$C$F$GT$$u20$as$u20$core..iter..traits..iterator..Iterator$GT$4next17h5e96df9d3e97128aE', symObjAddr: 0x98, symBinAddr: 0x32728, symSize: 0x2C }
  - { offset: 0xDF1BE, size: 0x8, addend: 0x0, symName: '__ZN115_$LT$core..iter..adapters..filter_map..FilterMap$LT$I$C$F$GT$$u20$as$u20$core..iter..traits..iterator..Iterator$GT$4next17h85406d8b7c70b33bE', symObjAddr: 0xC4, symBinAddr: 0x32754, symSize: 0x2C }
  - { offset: 0xDF205, size: 0x8, addend: 0x0, symName: '__ZN115_$LT$core..iter..adapters..filter_map..FilterMap$LT$I$C$F$GT$$u20$as$u20$core..iter..traits..iterator..Iterator$GT$9size_hint17h32c721600229e751E', symObjAddr: 0xF0, symBinAddr: 0x32780, symSize: 0x4C }
  - { offset: 0xDF269, size: 0x8, addend: 0x0, symName: '__ZN115_$LT$core..iter..adapters..filter_map..FilterMap$LT$I$C$F$GT$$u20$as$u20$core..iter..traits..iterator..Iterator$GT$9size_hint17hb678cfc0e1fd22bfE', symObjAddr: 0x13C, symBinAddr: 0x327CC, symSize: 0x4C }
  - { offset: 0xDF411, size: 0x8, addend: 0x0, symName: __ZN4core4iter6traits8iterator8Iterator7collect17h14204da2a0c85b6bE, symObjAddr: 0x13D4, symBinAddr: 0x33328, symSize: 0x14 }
  - { offset: 0xDF452, size: 0x8, addend: 0x0, symName: __ZN4core4iter6traits8iterator8Iterator7collect17h6aecf95d8cf434f5E, symObjAddr: 0x13E8, symBinAddr: 0x3333C, symSize: 0x14 }
  - { offset: 0xDF49D, size: 0x8, addend: 0x0, symName: '__ZN4core4iter6traits8iterator8Iterator8find_map5check28_$u7b$$u7b$closure$u7d$$u7d$17h1c3ba78421268ba0E', symObjAddr: 0x13FC, symBinAddr: 0x33350, symSize: 0x7C }
  - { offset: 0xDF520, size: 0x8, addend: 0x0, symName: '__ZN4core4iter6traits8iterator8Iterator8find_map5check28_$u7b$$u7b$closure$u7d$$u7d$17h5d74e70025be1ba7E', symObjAddr: 0x1478, symBinAddr: 0x333CC, symSize: 0x7C }
  - { offset: 0xDF5B1, size: 0x8, addend: 0x0, symName: '__ZN63_$LT$I$u20$as$u20$core..iter..traits..collect..IntoIterator$GT$9into_iter17h5dd1c09b650789e4E', symObjAddr: 0x5094, symBinAddr: 0x3467C, symSize: 0x30 }
  - { offset: 0xDF5E9, size: 0x8, addend: 0x0, symName: '__ZN63_$LT$I$u20$as$u20$core..iter..traits..collect..IntoIterator$GT$9into_iter17hf76bed3542039773E', symObjAddr: 0x50C4, symBinAddr: 0x346AC, symSize: 0x30 }
  - { offset: 0xDF6F4, size: 0x8, addend: 0x0, symName: '__ZN47_$LT$$LP$$RP$$u20$as$u20$core..unit..IsUnit$GT$7is_unit17h766d3b40421ecb50E', symObjAddr: 0x1194, symBinAddr: 0x3331C, symSize: 0xC }
  - { offset: 0xDF7B7, size: 0x8, addend: 0x0, symName: '__ZN4core7convert3num66_$LT$impl$u20$core..convert..TryFrom$LT$i64$GT$$u20$for$u20$u8$GT$8try_from17hfafb0e885f2c14f5E', symObjAddr: 0x2F38, symBinAddr: 0x3408C, symSize: 0x78 }
  - { offset: 0xDF827, size: 0x8, addend: 0x0, symName: '__ZN4core7convert3num67_$LT$impl$u20$core..convert..TryFrom$LT$i64$GT$$u20$for$u20$i32$GT$8try_from17h2ed53ebb26011496E', symObjAddr: 0x30D8, symBinAddr: 0x34104, symSize: 0x7C }
  - { offset: 0xDF897, size: 0x8, addend: 0x0, symName: '__ZN4core7convert3num71_$LT$impl$u20$core..convert..TryFrom$LT$usize$GT$$u20$for$u20$isize$GT$8try_from17h1b00e6aa46911be7E', symObjAddr: 0x334C, symBinAddr: 0x34180, symSize: 0x5C }
  - { offset: 0xDF94B, size: 0x8, addend: 0x0, symName: __ZN4core5alloc6layout6Layout25from_size_align_unchecked18precondition_check17hbcc4dec98b5a5576E, symObjAddr: 0x2948, symBinAddr: 0x33FD0, symSize: 0xBC }
  - { offset: 0xE0693, size: 0x8, addend: 0x0, symName: '__ZN4pyo311conversions3std6string68_$LT$impl$u20$pyo3..conversion..IntoPyObject$u20$for$u20$$RF$str$GT$13into_pyobject17h4c3dd0fec0916457E', symObjAddr: 0x3EE0, symBinAddr: 0x341DC, symSize: 0x28 }
  - { offset: 0xE06DE, size: 0x8, addend: 0x0, symName: '__ZN4pyo311conversions3std6string73_$LT$impl$u20$pyo3..conversion..FromPyObjectBound$u20$for$u20$$RF$str$GT$20from_py_object_bound17ha1446a971cee5869E', symObjAddr: 0x3F08, symBinAddr: 0x34204, symSize: 0xA0 }
  - { offset: 0xE1446, size: 0x8, addend: 0x0, symName: '__ZN83_$LT$alloc..vec..set_len_on_drop..SetLenOnDrop$u20$as$u20$core..ops..drop..Drop$GT$4drop17h8f252a59b0c536dcE', symObjAddr: 0x5170, symBinAddr: 0x346DC, symSize: 0x20 }
  - { offset: 0xE1950, size: 0x8, addend: 0x0, symName: __ZN3std4sync4once4Once12is_completed17h9fd338d141cc614aE, symObjAddr: 0x1B0, symBinAddr: 0x32818, symSize: 0x38 }
  - { offset: 0xE19F3, size: 0x8, addend: 0x0, symName: __ZN3std4sync4once4Once15call_once_force17h0e240b9cc218f1f4E, symObjAddr: 0x1E8, symBinAddr: 0x32850, symSize: 0xEC }
  - { offset: 0xE1AB8, size: 0x8, addend: 0x0, symName: __ZN3std4sync4once4Once15call_once_force17h86f650aece2ad056E, symObjAddr: 0x4AC, symBinAddr: 0x3293C, symSize: 0xEC }
  - { offset: 0xE1B7D, size: 0x8, addend: 0x0, symName: __ZN3std4sync4once4Once15call_once_force17h8ea3e71d950a541aE, symObjAddr: 0x598, symBinAddr: 0x32A28, symSize: 0xEC }
  - { offset: 0xE1C42, size: 0x8, addend: 0x0, symName: __ZN3std4sync4once4Once15call_once_force17h90be2b43c0be35b8E, symObjAddr: 0x684, symBinAddr: 0x32B14, symSize: 0xD4 }
  - { offset: 0xE1D07, size: 0x8, addend: 0x0, symName: __ZN3std4sync4once4Once15call_once_force17h9b0399d81896bc95E, symObjAddr: 0x758, symBinAddr: 0x32BE8, symSize: 0xD4 }
  - { offset: 0xE1F35, size: 0x8, addend: 0x0, symName: __ZN3std4sync4once4Once3new17h68becc42d139a1fcE, symObjAddr: 0xD00, symBinAddr: 0x32F18, symSize: 0x28 }
  - { offset: 0xE1FAD, size: 0x8, addend: 0x0, symName: __ZN3std4sync4once4Once9call_once17h2505580f25418290E, symObjAddr: 0xD28, symBinAddr: 0x32F40, symSize: 0xDC }
  - { offset: 0xE2072, size: 0x8, addend: 0x0, symName: __ZN3std4sync4once4Once9call_once17h3065928121c6f3e1E, symObjAddr: 0xE04, symBinAddr: 0x3301C, symSize: 0xD4 }
  - { offset: 0xE21CC, size: 0x8, addend: 0x0, symName: '__ZN3std4sync6poison5mutex14Mutex$LT$T$GT$3new17h4daff8fcbbc7c461E', symObjAddr: 0xFA0, symBinAddr: 0x331B8, symSize: 0x60 }
  - { offset: 0xE22A8, size: 0x8, addend: 0x0, symName: '__ZN3std4sync6poison5mutex14Mutex$LT$T$GT$3new17h9b958acaa520a13fE', symObjAddr: 0x1000, symBinAddr: 0x33218, symSize: 0x44 }
  - { offset: 0xE23A4, size: 0x8, addend: 0x0, symName: '__ZN3std4sync6poison5mutex14Mutex$LT$T$GT$4lock17h924a16ccf6a75c46E', symObjAddr: 0x108C, symBinAddr: 0x3325C, symSize: 0x48 }
  - { offset: 0xE2476, size: 0x8, addend: 0x0, symName: '__ZN3std4sync6poison5mutex14Mutex$LT$T$GT$4lock17hb7629236d949b72bE', symObjAddr: 0x10D4, symBinAddr: 0x332A4, symSize: 0x48 }
  - { offset: 0xE2515, size: 0x8, addend: 0x0, symName: __ZN4core4sync6atomic9AtomicI6416compare_exchange17h0e53237433269a1dE, symObjAddr: 0x2900, symBinAddr: 0x33FA0, symSize: 0x30 }
  - { offset: 0xE25EB, size: 0x8, addend: 0x0, symName: __ZN4pyo36marker6Python13allow_threads17h9eed581bd961af2bE, symObjAddr: 0x415C, symBinAddr: 0x342A4, symSize: 0xB0 }
  - { offset: 0xE2659, size: 0x8, addend: 0x0, symName: __ZN4pyo36marker6Python19assume_gil_acquired17h9c4c92f2cf9a1841E, symObjAddr: 0x4234, symBinAddr: 0x34354, symSize: 0x4 }
  - { offset: 0xE26A0, size: 0x8, addend: 0x0, symName: __ZN4pyo36marker6Python4None17h032ac8a4c1b97001E, symObjAddr: 0x4340, symBinAddr: 0x34358, symSize: 0x28 }
  - { offset: 0xE26DC, size: 0x8, addend: 0x0, symName: __ZN4pyo36marker6Python8get_type17h44a1db31e3f25c07E, symObjAddr: 0x4448, symBinAddr: 0x34380, symSize: 0x1C }
  - { offset: 0xE2714, size: 0x8, addend: 0x0, symName: __ZN4pyo36marker6Python8get_type17hc280c4581f72633fE, symObjAddr: 0x4464, symBinAddr: 0x3439C, symSize: 0x1C }
  - { offset: 0xE27C8, size: 0x8, addend: 0x0, symName: __ZN4pyo36marker6Python8with_gil17h793da94d8b705845E, symObjAddr: 0x4CD4, symBinAddr: 0x343B8, symSize: 0xE8 }
  - { offset: 0xE2813, size: 0x8, addend: 0x0, symName: __ZN4pyo36marker6Python8with_gil17h851d4f67408d7d1fE, symObjAddr: 0x4DBC, symBinAddr: 0x344A0, symSize: 0xE8 }
  - { offset: 0xE285E, size: 0x8, addend: 0x0, symName: __ZN4pyo36marker6Python8with_gil17haae0946adfa08c29E, symObjAddr: 0x4EA4, symBinAddr: 0x34588, symSize: 0xF4 }
  - { offset: 0xE43C5, size: 0x8, addend: 0x0, symName: '__ZN31_$LT$dyn$u20$core..any..Any$GT$12downcast_ref17had9d76bd20c343ecE', symObjAddr: 0x9EC, symBinAddr: 0x34CB4, symSize: 0xA4 }
  - { offset: 0xE44B6, size: 0x8, addend: 0x0, symName: '__ZN31_$LT$dyn$u20$core..any..Any$GT$12downcast_ref17hf46b165a13fd07bfE', symObjAddr: 0xA90, symBinAddr: 0x34D58, symSize: 0xA4 }
  - { offset: 0xE4621, size: 0x8, addend: 0x0, symName: '__ZN54_$LT$dyn$u20$core..any..Any$u2b$core..marker..Send$GT$12downcast_ref17h05d7e124f0ec430dE', symObjAddr: 0x1070, symBinAddr: 0x34EDC, symSize: 0x2C }
  - { offset: 0xE4658, size: 0x8, addend: 0x0, symName: '__ZN54_$LT$dyn$u20$core..any..Any$u2b$core..marker..Send$GT$12downcast_ref17h1e6133cebd31795dE', symObjAddr: 0x109C, symBinAddr: 0x34F08, symSize: 0x2C }
  - { offset: 0xE5502, size: 0x8, addend: 0x0, symName: '__ZN71_$LT$pyo3..impl_..panic..PanicTrap$u20$as$u20$core..ops..drop..Drop$GT$4drop17h509a70a0cfe98ba1E', symObjAddr: 0x31CC, symBinAddr: 0x35570, symSize: 0x20 }
  - { offset: 0xE5E32, size: 0x8, addend: 0x0, symName: '__ZN5alloc3vec16Vec$LT$T$C$A$GT$7set_len18precondition_check17h0d02f5d4cfc537f6E', symObjAddr: 0x275C, symBinAddr: 0x353A4, symSize: 0x60 }
  - { offset: 0xE5E91, size: 0x8, addend: 0x0, symName: '__ZN111_$LT$alloc..vec..Vec$LT$T$GT$$u20$as$u20$alloc..vec..spec_from_iter_nested..SpecFromIterNested$LT$T$C$I$GT$$GT$9from_iter17h4f6e62892995197dE', symObjAddr: 0x554, symBinAddr: 0x3481C, symSize: 0x24C }
  - { offset: 0xE60F0, size: 0x8, addend: 0x0, symName: '__ZN111_$LT$alloc..vec..Vec$LT$T$GT$$u20$as$u20$alloc..vec..spec_from_iter_nested..SpecFromIterNested$LT$T$C$I$GT$$GT$9from_iter17h716d5238b94496e9E', symObjAddr: 0x7A0, symBinAddr: 0x34A68, symSize: 0x24C }
  - { offset: 0xE6733, size: 0x8, addend: 0x0, symName: '__ZN72_$LT$alloc..vec..Vec$LT$T$C$A$GT$$u20$as$u20$core..ops..deref..Deref$GT$5deref17hda167b52ba9999bcE', symObjAddr: 0x320C, symBinAddr: 0x35590, symSize: 0x20 }
  - { offset: 0xE67F6, size: 0x8, addend: 0x0, symName: '__ZN67_$LT$alloc..vec..Vec$LT$T$GT$$u20$as$u20$core..default..Default$GT$7default17h87da35b4c089da4cE', symObjAddr: 0x2FB4, symBinAddr: 0x35514, symSize: 0x14 }
  - { offset: 0xE6818, size: 0x8, addend: 0x0, symName: '__ZN67_$LT$alloc..vec..Vec$LT$T$GT$$u20$as$u20$core..default..Default$GT$7default17h87da35b4c089da4cE', symObjAddr: 0x2FB4, symBinAddr: 0x35514, symSize: 0x14 }
  - { offset: 0xE6839, size: 0x8, addend: 0x0, symName: '__ZN70_$LT$alloc..vec..Vec$LT$T$C$A$GT$$u20$as$u20$core..ops..drop..Drop$GT$4drop17h4b3f06f2d5f13fb7E', symObjAddr: 0x3060, symBinAddr: 0x35528, symSize: 0x24 }
  - { offset: 0xE68E9, size: 0x8, addend: 0x0, symName: '__ZN70_$LT$alloc..vec..Vec$LT$T$C$A$GT$$u20$as$u20$core..ops..drop..Drop$GT$4drop17hcffa35bf440aedd8E', symObjAddr: 0x3104, symBinAddr: 0x3554C, symSize: 0x24 }
  - { offset: 0xE699F, size: 0x8, addend: 0x0, symName: '__ZN90_$LT$alloc..vec..Vec$LT$T$C$A$GT$$u20$as$u20$core..iter..traits..collect..IntoIterator$GT$9into_iter17hfe6fab44cb3aa494E', symObjAddr: 0x33A4, symBinAddr: 0x355B0, symSize: 0xA8 }
  - { offset: 0xE6B9C, size: 0x8, addend: 0x0, symName: '__ZN95_$LT$alloc..vec..Vec$LT$T$GT$$u20$as$u20$core..iter..traits..collect..FromIterator$LT$T$GT$$GT$9from_iter17h106743982d4641feE', symObjAddr: 0x3464, symBinAddr: 0x35658, symSize: 0x34 }
  - { offset: 0xE6BDD, size: 0x8, addend: 0x0, symName: '__ZN95_$LT$alloc..vec..Vec$LT$T$GT$$u20$as$u20$core..iter..traits..collect..FromIterator$LT$T$GT$$GT$9from_iter17hdc4a0b6cd741bc71E', symObjAddr: 0x34FC, symBinAddr: 0x3568C, symSize: 0x34 }
  - { offset: 0xE6C29, size: 0x8, addend: 0x0, symName: '__ZN97_$LT$alloc..vec..Vec$LT$T$C$A$GT$$u20$as$u20$alloc..vec..spec_extend..SpecExtend$LT$T$C$I$GT$$GT$11spec_extend17hf4af9b2aa1a9d0fcE', symObjAddr: 0x3580, symBinAddr: 0x356C0, symSize: 0x24 }
  - { offset: 0xE6C7B, size: 0x8, addend: 0x0, symName: '__ZN97_$LT$alloc..vec..Vec$LT$T$C$A$GT$$u20$as$u20$alloc..vec..spec_extend..SpecExtend$LT$T$C$I$GT$$GT$11spec_extend17hfda48b089fa6a0ddE', symObjAddr: 0x35A4, symBinAddr: 0x356E4, symSize: 0x24 }
  - { offset: 0xE6CD9, size: 0x8, addend: 0x0, symName: '__ZN98_$LT$alloc..vec..Vec$LT$T$GT$$u20$as$u20$alloc..vec..spec_from_iter..SpecFromIter$LT$T$C$I$GT$$GT$9from_iter17h32dc368eb1b89cc6E', symObjAddr: 0x35C8, symBinAddr: 0x35708, symSize: 0x14 }
  - { offset: 0xE6D18, size: 0x8, addend: 0x0, symName: '__ZN98_$LT$alloc..vec..Vec$LT$T$GT$$u20$as$u20$alloc..vec..spec_from_iter..SpecFromIter$LT$T$C$I$GT$$GT$9from_iter17h5521e45ed0f718b1E', symObjAddr: 0x3600, symBinAddr: 0x3571C, symSize: 0x14 }
  - { offset: 0xE782A, size: 0x8, addend: 0x0, symName: '__ZN4core4iter8adapters7step_by15StepBy$LT$I$GT$3new17hcaa246bd8c94fc81E', symObjAddr: 0xB34, symBinAddr: 0x34DFC, symSize: 0xE0 }
  - { offset: 0xE79B8, size: 0x8, addend: 0x0, symName: '__ZN5alloc3vec12Vec$LT$T$GT$3new17h288b56fd6cb07d40E', symObjAddr: 0x1134, symBinAddr: 0x34F34, symSize: 0x14 }
  - { offset: 0xE7C0B, size: 0x8, addend: 0x0, symName: '__ZN5alloc3vec16Vec$LT$T$C$A$GT$16extend_desugared17h747e6779544dead3E', symObjAddr: 0x161C, symBinAddr: 0x34F48, symSize: 0x1C4 }
  - { offset: 0xE7FF5, size: 0x8, addend: 0x0, symName: '__ZN5alloc3vec16Vec$LT$T$C$A$GT$16extend_desugared17h8adfcc8658adbfedE', symObjAddr: 0x19A8, symBinAddr: 0x3510C, symSize: 0x1C4 }
  - { offset: 0xE829E, size: 0x8, addend: 0x0, symName: '__ZN5alloc3vec16Vec$LT$T$C$A$GT$4push17hd67047755b1ccfd6E', symObjAddr: 0x2470, symBinAddr: 0x352D0, symSize: 0x2C }
  - { offset: 0xE8405, size: 0x8, addend: 0x0, symName: '__ZN5alloc3vec16Vec$LT$T$C$A$GT$7reserve17h619b505658ab526aE', symObjAddr: 0x260C, symBinAddr: 0x352FC, symSize: 0xA8 }
  - { offset: 0xE8578, size: 0x8, addend: 0x0, symName: '__ZN5alloc3vec16Vec$LT$T$C$A$GT$8is_empty17h1a9d5e4736bcc6e7E', symObjAddr: 0x27BC, symBinAddr: 0x35404, symSize: 0x20 }
  - { offset: 0xE85FD, size: 0x8, addend: 0x0, symName: '__ZN5alloc3vec16Vec$LT$T$C$A$GT$8is_empty17hfebf9ba623ac244cE', symObjAddr: 0x283C, symBinAddr: 0x35424, symSize: 0x20 }
  - { offset: 0xE8764, size: 0x8, addend: 0x0, symName: '__ZN5alloc3vec16Vec$LT$T$C$A$GT$8push_mut17h381af17abed1f41bE', symObjAddr: 0x285C, symBinAddr: 0x35444, symSize: 0xD0 }
  - { offset: 0xEA907, size: 0x8, addend: 0x0, symName: '__ZN4core3ptr101drop_in_place$LT$std..sys..sync..once_box..OnceBox$LT$std..sys..pal..unix..sync..mutex..Mutex$GT$$GT$17hbd79d0660f18573dE', symObjAddr: 0x2B44, symBinAddr: 0x36844, symSize: 0x24 }
  - { offset: 0xEA936, size: 0x8, addend: 0x0, symName: '__ZN4core3ptr104drop_in_place$LT$core..option..Option$LT$pyo3..instance..Py$LT$pyo3..types..module..PyModule$GT$$GT$$GT$17h4a4d6654a159fb4bE', symObjAddr: 0x2BB0, symBinAddr: 0x36868, symSize: 0x44 }
  - { offset: 0xEA965, size: 0x8, addend: 0x0, symName: '__ZN4core3ptr104drop_in_place$LT$core..option..Option$LT$pyo3..instance..Py$LT$pyo3..types..string..PyString$GT$$GT$$GT$17h5dd0404ec77d88a9E', symObjAddr: 0x2BF4, symBinAddr: 0x368AC, symSize: 0x44 }
  - { offset: 0xEA994, size: 0x8, addend: 0x0, symName: '__ZN4core3ptr106drop_in_place$LT$alloc..vec..Vec$LT$core..ptr..non_null..NonNull$LT$pyo3_ffi..object..PyObject$GT$$GT$$GT$17h1a347e61abda62d6E', symObjAddr: 0x2C5C, symBinAddr: 0x368F0, symSize: 0x5C }
  - { offset: 0xEA9C3, size: 0x8, addend: 0x0, symName: '__ZN4core3ptr106drop_in_place$LT$core..option..Option$LT$pyo3..instance..Py$LT$pyo3..types..typeobject..PyType$GT$$GT$$GT$17h49238ee18b910e9fE', symObjAddr: 0x2CB8, symBinAddr: 0x3694C, symSize: 0x44 }
  - { offset: 0xEA9F2, size: 0x8, addend: 0x0, symName: '__ZN4core3ptr107drop_in_place$LT$core..pin..Pin$LT$alloc..boxed..Box$LT$std..sys..pal..unix..sync..mutex..Mutex$GT$$GT$$GT$17h2b630cbf83431209E', symObjAddr: 0x2D20, symBinAddr: 0x36990, symSize: 0x24 }
  - { offset: 0xEAA21, size: 0x8, addend: 0x0, symName: '__ZN4core3ptr108drop_in_place$LT$core..option..Option$LT$pyo3..instance..Py$LT$pyo3..exceptions..PyBaseException$GT$$GT$$GT$17he29fe9ce126479c1E', symObjAddr: 0x2DCC, symBinAddr: 0x369B4, symSize: 0x44 }
  - { offset: 0xEAA50, size: 0x8, addend: 0x0, symName: '__ZN4core3ptr113drop_in_place$LT$alloc..raw_vec..RawVec$LT$core..ptr..non_null..NonNull$LT$pyo3_ffi..object..PyObject$GT$$GT$$GT$17hdc2875f5bbff3d13E', symObjAddr: 0x2EC0, symBinAddr: 0x369F8, symSize: 0x24 }
  - { offset: 0xEAA7F, size: 0x8, addend: 0x0, symName: '__ZN4core3ptr113drop_in_place$LT$core..option..Option$LT$pyo3..instance..Bound$LT$pyo3..types..traceback..PyTraceback$GT$$GT$$GT$17h9398af632287c0fdE', symObjAddr: 0x2EE4, symBinAddr: 0x36A1C, symSize: 0x44 }
  - { offset: 0xEAAAE, size: 0x8, addend: 0x0, symName: '__ZN4core3ptr113drop_in_place$LT$std..sync..poison..mutex..Mutex$LT$core..option..Option$LT$std..thread..id..ThreadId$GT$$GT$$GT$17hce5c6eaccdf0e617E', symObjAddr: 0x2F28, symBinAddr: 0x36A60, symSize: 0x24 }
  - { offset: 0xEAADD, size: 0x8, addend: 0x0, symName: '__ZN4core3ptr115drop_in_place$LT$core..result..Result$LT$$LP$$RP$$C$pyo3..instance..Py$LT$pyo3..types..module..PyModule$GT$$GT$$GT$17hd8634def8c51f85cE', symObjAddr: 0x2F94, symBinAddr: 0x36A84, symSize: 0x44 }
  - { offset: 0xEAB0C, size: 0x8, addend: 0x0, symName: '__ZN4core3ptr115drop_in_place$LT$core..result..Result$LT$$LP$$RP$$C$pyo3..instance..Py$LT$pyo3..types..string..PyString$GT$$GT$$GT$17h2e81b6dc75760810E', symObjAddr: 0x2FD8, symBinAddr: 0x36AC8, symSize: 0x44 }
  - { offset: 0xEAB3B, size: 0x8, addend: 0x0, symName: '__ZN4core3ptr116drop_in_place$LT$core..cell..UnsafeCell$LT$core..option..Option$LT$pyo3..err..err_state..PyErrStateInner$GT$$GT$$GT$17ha2027a0839a0cd2dE', symObjAddr: 0x301C, symBinAddr: 0x36B0C, symSize: 0x24 }
  - { offset: 0xEAB6A, size: 0x8, addend: 0x0, symName: '__ZN4core3ptr117drop_in_place$LT$core..result..Result$LT$$LP$$RP$$C$pyo3..instance..Py$LT$pyo3..types..typeobject..PyType$GT$$GT$$GT$17h2afeeb334133637bE', symObjAddr: 0x3104, symBinAddr: 0x36B30, symSize: 0x44 }
  - { offset: 0xEAB99, size: 0x8, addend: 0x0, symName: '__ZN4core3ptr118drop_in_place$LT$core..array..iter..IntoIter$LT$pyo3..instance..Bound$LT$pyo3..types..any..PyAny$GT$$C$1_usize$GT$$GT$17h323447ef8293e577E', symObjAddr: 0x31C8, symBinAddr: 0x36B74, symSize: 0x24 }
  - { offset: 0xEABC8, size: 0x8, addend: 0x0, symName: '__ZN4core3ptr118drop_in_place$LT$core..array..iter..IntoIter$LT$pyo3..instance..Bound$LT$pyo3..types..any..PyAny$GT$$C$2_usize$GT$$GT$17h4075d47d5a16c243E', symObjAddr: 0x31EC, symBinAddr: 0x36B98, symSize: 0x24 }
  - { offset: 0xEABF7, size: 0x8, addend: 0x0, symName: '__ZN4core3ptr118drop_in_place$LT$std..sync..poison..mutex..MutexGuard$LT$core..option..Option$LT$std..thread..id..ThreadId$GT$$GT$$GT$17hb990d6965a7900faE', symObjAddr: 0x3210, symBinAddr: 0x36BBC, symSize: 0x24 }
  - { offset: 0xEAC26, size: 0x8, addend: 0x0, symName: '__ZN4core3ptr120drop_in_place$LT$core..result..Result$LT$pyo3..instance..Bound$LT$pyo3..types..any..PyAny$GT$$C$pyo3..err..PyErr$GT$$GT$17hb88a8e9435f46471E', symObjAddr: 0x3234, symBinAddr: 0x36BE0, symSize: 0x50 }
  - { offset: 0xEAC55, size: 0x8, addend: 0x0, symName: '__ZN4core3ptr122drop_in_place$LT$alloc..vec..into_iter..IntoIter$LT$core..ptr..non_null..NonNull$LT$pyo3_ffi..object..PyObject$GT$$GT$$GT$17hd15521c15f9b70aaE', symObjAddr: 0x3284, symBinAddr: 0x36C30, symSize: 0x24 }
  - { offset: 0xEAC84, size: 0x8, addend: 0x0, symName: '__ZN4core3ptr126drop_in_place$LT$core..result..Result$LT$pyo3..instance..Bound$LT$pyo3..types..string..PyString$GT$$C$pyo3..err..PyErr$GT$$GT$17h3825c160031730e2E', symObjAddr: 0x3308, symBinAddr: 0x36C54, symSize: 0x50 }
  - { offset: 0xEACB3, size: 0x8, addend: 0x0, symName: '__ZN4core3ptr132drop_in_place$LT$core..result..Result$LT$$RF$pyo3..instance..Bound$LT$pyo3..types..num..PyInt$GT$$C$pyo3..err..DowncastError$GT$$GT$17h983323f39173d36eE', symObjAddr: 0x33FC, symBinAddr: 0x36CA4, symSize: 0x48 }
  - { offset: 0xEACE2, size: 0x8, addend: 0x0, symName: '__ZN4core3ptr132drop_in_place$LT$pyo3..err..PyErr..new$LT$pyo3..exceptions..PyTypeError$C$alloc..string..String$GT$..$u7b$$u7b$closure$u7d$$u7d$$GT$17h683709aa3e216bceE', symObjAddr: 0x3444, symBinAddr: 0x36CEC, symSize: 0x24 }
  - { offset: 0xEAD11, size: 0x8, addend: 0x0, symName: '__ZN4core3ptr135drop_in_place$LT$core..option..Option$LT$core..pin..Pin$LT$alloc..boxed..Box$LT$std..sys..pal..unix..sync..mutex..Mutex$GT$$GT$$GT$$GT$17hb1ccace2480f5b23E', symObjAddr: 0x348C, symBinAddr: 0x36D10, symSize: 0x44 }
  - { offset: 0xEAD40, size: 0x8, addend: 0x0, symName: '__ZN4core3ptr136drop_in_place$LT$core..cell..UnsafeCell$LT$alloc..vec..Vec$LT$core..ptr..non_null..NonNull$LT$pyo3_ffi..object..PyObject$GT$$GT$$GT$$GT$17h178d1aad35072868E', symObjAddr: 0x3560, symBinAddr: 0x36D54, symSize: 0x24 }
  - { offset: 0xEAD6F, size: 0x8, addend: 0x0, symName: '__ZN4core3ptr136drop_in_place$LT$pyo3..err..PyErr..new$LT$pyo3..exceptions..PyOverflowError$C$alloc..string..String$GT$..$u7b$$u7b$closure$u7d$$u7d$$GT$17hc95de4dd0305fd18E', symObjAddr: 0x3614, symBinAddr: 0x36D78, symSize: 0x24 }
  - { offset: 0xEAD9E, size: 0x8, addend: 0x0, symName: '__ZN4core3ptr141drop_in_place$LT$pyo3..err..PyErr..new$LT$pyo3..panic..PanicException$C$$LP$alloc..string..String$C$$RP$$GT$..$u7b$$u7b$closure$u7d$$u7d$$GT$17h6a82d6c0413896c2E', symObjAddr: 0x377C, symBinAddr: 0x36D9C, symSize: 0x24 }
  - { offset: 0xEADCD, size: 0x8, addend: 0x0, symName: '__ZN4core3ptr145drop_in_place$LT$std..sync..poison..mutex..Mutex$LT$alloc..vec..Vec$LT$core..ptr..non_null..NonNull$LT$pyo3_ffi..object..PyObject$GT$$GT$$GT$$GT$17hde82362d62f404d1E', symObjAddr: 0x3878, symBinAddr: 0x36DC0, symSize: 0x60 }
  - { offset: 0xEADFC, size: 0x8, addend: 0x0, symName: '__ZN4core3ptr146drop_in_place$LT$pyo3..err..PyErr..new$LT$pyo3..exceptions..PyTypeError$C$pyo3..err..PyDowncastErrorArguments$GT$..$u7b$$u7b$closure$u7d$$u7d$$GT$17h982e7f36f5f8f065E', symObjAddr: 0x38FC, symBinAddr: 0x36E20, symSize: 0x24 }
  - { offset: 0xEAE2B, size: 0x8, addend: 0x0, symName: '__ZN4core3ptr148drop_in_place$LT$core..option..Option$LT$core..result..Result$LT$pyo3..instance..Bound$LT$pyo3..types..any..PyAny$GT$$C$pyo3..err..PyErr$GT$$GT$$GT$17hf82c22735aa4c144E', symObjAddr: 0x3920, symBinAddr: 0x36E44, symSize: 0x44 }
  - { offset: 0xEAE5A, size: 0x8, addend: 0x0, symName: '__ZN4core3ptr150drop_in_place$LT$std..sync..poison..mutex..MutexGuard$LT$alloc..vec..Vec$LT$core..ptr..non_null..NonNull$LT$pyo3_ffi..object..PyObject$GT$$GT$$GT$$GT$17hfdd84cd2dfe36838E', symObjAddr: 0x3988, symBinAddr: 0x36E88, symSize: 0x24 }
  - { offset: 0xEAE89, size: 0x8, addend: 0x0, symName: '__ZN4core3ptr155drop_in_place$LT$pyo3..err..err_state..PyErrState..lazy_arguments$LT$pyo3..instance..Py$LT$pyo3..types..any..PyAny$GT$$GT$..$u7b$$u7b$closure$u7d$$u7d$$GT$17h43d08b320219fdbaE', symObjAddr: 0x39F4, symBinAddr: 0x36EAC, symSize: 0x60 }
  - { offset: 0xEAEB8, size: 0x8, addend: 0x0, symName: '__ZN4core3ptr156drop_in_place$LT$std..sync..poison..PoisonError$LT$std..sync..poison..mutex..MutexGuard$LT$core..option..Option$LT$std..thread..id..ThreadId$GT$$GT$$GT$$GT$17hb43db9922704fc90E', symObjAddr: 0x3A54, symBinAddr: 0x36F0C, symSize: 0x24 }
  - { offset: 0xEAEE7, size: 0x8, addend: 0x0, symName: '__ZN4core3ptr157drop_in_place$LT$pyo3..err..err_state..PyErrState..make_normalized..$u7b$$u7b$closure$u7d$$u7d$..$u7b$$u7b$closure$u7d$$u7d$..$u7b$$u7b$closure$u7d$$u7d$$GT$17hd71a994a7ba9f5aaE', symObjAddr: 0x3A78, symBinAddr: 0x36F30, symSize: 0x24 }
  - { offset: 0xEAF16, size: 0x8, addend: 0x0, symName: '__ZN4core3ptr168drop_in_place$LT$core..iter..adapters..enumerate..Enumerate$LT$core..array..iter..IntoIter$LT$pyo3..instance..Bound$LT$pyo3..types..any..PyAny$GT$$C$1_usize$GT$$GT$$GT$17hdc315350c9d4361aE', symObjAddr: 0x3AC0, symBinAddr: 0x36F54, symSize: 0x24 }
  - { offset: 0xEAF45, size: 0x8, addend: 0x0, symName: '__ZN4core3ptr168drop_in_place$LT$core..iter..adapters..enumerate..Enumerate$LT$core..array..iter..IntoIter$LT$pyo3..instance..Bound$LT$pyo3..types..any..PyAny$GT$$C$2_usize$GT$$GT$$GT$17h178c634b386374bfE', symObjAddr: 0x3AE4, symBinAddr: 0x36F78, symSize: 0x24 }
  - { offset: 0xEAF74, size: 0x8, addend: 0x0, symName: '__ZN4core3ptr181drop_in_place$LT$hashbrown..scopeguard..ScopeGuard$LT$$RF$mut$u20$hashbrown..raw..RawTableInner$C$hashbrown..raw..RawTableInner..rehash_in_place..$u7b$$u7b$closure$u7d$$u7d$$GT$$GT$17h47f1ca1886347f73E', symObjAddr: 0x3B08, symBinAddr: 0x36F9C, symSize: 0x24 }
  - { offset: 0xEAFA3, size: 0x8, addend: 0x0, symName: '__ZN4core3ptr188drop_in_place$LT$std..sync..poison..PoisonError$LT$std..sync..poison..mutex..MutexGuard$LT$alloc..vec..Vec$LT$core..ptr..non_null..NonNull$LT$pyo3_ffi..object..PyObject$GT$$GT$$GT$$GT$$GT$17hb1758fb5929cabc1E', symObjAddr: 0x3B2C, symBinAddr: 0x36FC0, symSize: 0x24 }
  - { offset: 0xEAFD2, size: 0x8, addend: 0x0, symName: '__ZN4core3ptr192drop_in_place$LT$core..array..iter..iter_inner..PolymorphicIter$LT$$u5b$core..mem..maybe_uninit..MaybeUninit$LT$pyo3..instance..Bound$LT$pyo3..types..any..PyAny$GT$$GT$$u3b$$u20$1$u5d$$GT$$GT$17hb315a52fae2883d8E', symObjAddr: 0x3B50, symBinAddr: 0x36FE4, symSize: 0x24 }
  - { offset: 0xEB001, size: 0x8, addend: 0x0, symName: '__ZN4core3ptr192drop_in_place$LT$core..array..iter..iter_inner..PolymorphicIter$LT$$u5b$core..mem..maybe_uninit..MaybeUninit$LT$pyo3..instance..Bound$LT$pyo3..types..any..PyAny$GT$$GT$$u3b$$u20$2$u5d$$GT$$GT$17h991efc48268f5fabE', symObjAddr: 0x3B74, symBinAddr: 0x37008, symSize: 0x24 }
  - { offset: 0xEB030, size: 0x8, addend: 0x0, symName: '__ZN4core3ptr196drop_in_place$LT$hashbrown..scopeguard..ScopeGuard$LT$hashbrown..raw..RawTableInner$C$hashbrown..raw..RawTableInner..prepare_resize$LT$alloc..alloc..Global$GT$..$u7b$$u7b$closure$u7d$$u7d$$GT$$GT$17he5c77fb9edd6fd44E', symObjAddr: 0x3B98, symBinAddr: 0x3702C, symSize: 0x24 }
  - { offset: 0xEB05F, size: 0x8, addend: 0x0, symName: '__ZN4core3ptr216drop_in_place$LT$$LT$alloc..vec..into_iter..IntoIter$LT$T$C$A$GT$$u20$as$u20$core..ops..drop..Drop$GT$..drop..DropGuard$LT$core..ptr..non_null..NonNull$LT$pyo3_ffi..object..PyObject$GT$$C$alloc..alloc..Global$GT$$GT$17hd1ad408da3239562E', symObjAddr: 0x3C4C, symBinAddr: 0x37050, symSize: 0x24 }
  - { offset: 0xEB08E, size: 0x8, addend: 0x0, symName: '__ZN4core3ptr236drop_in_place$LT$alloc..boxed..Box$LT$dyn$u20$core..ops..function..FnOnce$LT$$LP$pyo3..marker..Python$C$$RP$$GT$$u2b$Output$u20$$u3d$$u20$pyo3..err..err_state..PyErrStateLazyFnOutput$u2b$core..marker..Sync$u2b$core..marker..Send$GT$$GT$17h7afb547128a57802E', symObjAddr: 0x3CF0, symBinAddr: 0x37074, symSize: 0x80 }
  - { offset: 0xEB0BD, size: 0x8, addend: 0x0, symName: '__ZN4core3ptr37drop_in_place$LT$pyo3..err..PyErr$GT$17hb8d87becd8fcb99dE', symObjAddr: 0x3F7C, symBinAddr: 0x370F4, symSize: 0x24 }
  - { offset: 0xEB0EC, size: 0x8, addend: 0x0, symName: '__ZN4core3ptr40drop_in_place$LT$pyo3..gil..GILGuard$GT$17ha5a6755092a8941eE', symObjAddr: 0x3FA0, symBinAddr: 0x37118, symSize: 0x60 }
  - { offset: 0xEB11B, size: 0x8, addend: 0x0, symName: '__ZN4core3ptr42drop_in_place$LT$alloc..string..String$GT$17h7467b22fd713e315E', symObjAddr: 0x4048, symBinAddr: 0x37178, symSize: 0x24 }
  - { offset: 0xEB14A, size: 0x8, addend: 0x0, symName: '__ZN4core3ptr42drop_in_place$LT$pyo3..gil..SuspendGIL$GT$17he33828f52a5d9188E', symObjAddr: 0x406C, symBinAddr: 0x3719C, symSize: 0x24 }
  - { offset: 0xEB179, size: 0x8, addend: 0x0, symName: '__ZN4core3ptr45drop_in_place$LT$pyo3..err..DowncastError$GT$17h2e87ba65e35408dfE', symObjAddr: 0x40D8, symBinAddr: 0x371C0, symSize: 0x24 }
  - { offset: 0xEB1A8, size: 0x8, addend: 0x0, symName: '__ZN4core3ptr45drop_in_place$LT$pyo3..gil..ReferencePool$GT$17h07d126fec4fd6d32E', symObjAddr: 0x40FC, symBinAddr: 0x371E4, symSize: 0x24 }
  - { offset: 0xEB1D7, size: 0x8, addend: 0x0, symName: '__ZN4core3ptr50drop_in_place$LT$alloc..borrow..Cow$LT$str$GT$$GT$17h7e24aff9e7b2f088E', symObjAddr: 0x420C, symBinAddr: 0x37208, symSize: 0x48 }
  - { offset: 0xEB206, size: 0x8, addend: 0x0, symName: '__ZN4core3ptr50drop_in_place$LT$pyo3..impl_..panic..PanicTrap$GT$17h49118524f7b3a83bE', symObjAddr: 0x4254, symBinAddr: 0x37250, symSize: 0x24 }
  - { offset: 0xEB235, size: 0x8, addend: 0x0, symName: '__ZN4core3ptr51drop_in_place$LT$alloc..vec..Vec$LT$$RF$str$GT$$GT$17h4a7aa0ff7ca30d31E', symObjAddr: 0x4278, symBinAddr: 0x37274, symSize: 0x5C }
  - { offset: 0xEB264, size: 0x8, addend: 0x0, symName: '__ZN4core3ptr53drop_in_place$LT$$LP$alloc..string..String$C$$RP$$GT$17hb6dc890c7477e781E', symObjAddr: 0x42D4, symBinAddr: 0x372D0, symSize: 0x24 }
  - { offset: 0xEB293, size: 0x8, addend: 0x0, symName: '__ZN4core3ptr53drop_in_place$LT$pyo3..err..err_state..PyErrState$GT$17h23a589f31da5b155E', symObjAddr: 0x42F8, symBinAddr: 0x372F4, symSize: 0x64 }
  - { offset: 0xEB2C2, size: 0x8, addend: 0x0, symName: '__ZN4core3ptr56drop_in_place$LT$pyo3..err..PyDowncastErrorArguments$GT$17hc633375c27944b93E', symObjAddr: 0x4380, symBinAddr: 0x37358, symSize: 0x5C }
  - { offset: 0xEB2F1, size: 0x8, addend: 0x0, symName: '__ZN4core3ptr58drop_in_place$LT$alloc..raw_vec..RawVec$LT$$RF$str$GT$$GT$17h19a0d6049eb080a8E', symObjAddr: 0x4450, symBinAddr: 0x373B4, symSize: 0x24 }
  - { offset: 0xEB320, size: 0x8, addend: 0x0, symName: '__ZN4core3ptr58drop_in_place$LT$pyo3..err..err_state..PyErrStateInner$GT$17h70aca805a7543735E', symObjAddr: 0x4474, symBinAddr: 0x373D8, symSize: 0x58 }
  - { offset: 0xEB34F, size: 0x8, addend: 0x0, symName: '__ZN4core3ptr58drop_in_place$LT$std..sys..sync..mutex..pthread..Mutex$GT$17h22fd12747bd81e71E', symObjAddr: 0x44CC, symBinAddr: 0x37430, symSize: 0x5C }
  - { offset: 0xEB37E, size: 0x8, addend: 0x0, symName: '__ZN4core3ptr60drop_in_place$LT$std..sys..pal..unix..sync..mutex..Mutex$GT$17hfb16663f404e14ddE', symObjAddr: 0x4570, symBinAddr: 0x3748C, symSize: 0x24 }
  - { offset: 0xEB3AD, size: 0x8, addend: 0x0, symName: '__ZN4core3ptr62drop_in_place$LT$alloc..vec..set_len_on_drop..SetLenOnDrop$GT$17h0721ade85f9bb671E', symObjAddr: 0x4594, symBinAddr: 0x374B0, symSize: 0x24 }
  - { offset: 0xEB3DC, size: 0x8, addend: 0x0, symName: '__ZN4core3ptr63drop_in_place$LT$pyo3..err..err_state..PyErrStateNormalized$GT$17h53572008e72fbe76E', symObjAddr: 0x45DC, symBinAddr: 0x374D4, symSize: 0x24 }
  - { offset: 0xEB40B, size: 0x8, addend: 0x0, symName: '__ZN4core3ptr65drop_in_place$LT$core..option..Option$LT$pyo3..err..PyErr$GT$$GT$17hdbe956fb0659386cE', symObjAddr: 0x4600, symBinAddr: 0x374F8, symSize: 0x40 }
  - { offset: 0xEB43A, size: 0x8, addend: 0x0, symName: '__ZN4core3ptr70drop_in_place$LT$pyo3..instance..Py$LT$pyo3..types..any..PyAny$GT$$GT$17hccadac1d4987da5eE', symObjAddr: 0x4848, symBinAddr: 0x37538, symSize: 0x2C }
  - { offset: 0xEB469, size: 0x8, addend: 0x0, symName: '__ZN4core3ptr73drop_in_place$LT$core..option..Option$LT$pyo3..gil..ReferencePool$GT$$GT$17h0b5688985a7b0649E', symObjAddr: 0x49AC, symBinAddr: 0x37564, symSize: 0x40 }
  - { offset: 0xEB498, size: 0x8, addend: 0x0, symName: '__ZN4core3ptr73drop_in_place$LT$pyo3..instance..Bound$LT$pyo3..types..any..PyAny$GT$$GT$17h93209a70d5dab3dcE', symObjAddr: 0x4A10, symBinAddr: 0x375A4, symSize: 0x24 }
  - { offset: 0xEB4C7, size: 0x8, addend: 0x0, symName: '__ZN4core3ptr75drop_in_place$LT$core..result..Result$LT$$RF$str$C$pyo3..err..PyErr$GT$$GT$17h10e0dfbdbf4f200cE', symObjAddr: 0x4B04, symBinAddr: 0x375C8, symSize: 0x40 }
  - { offset: 0xEB4F6, size: 0x8, addend: 0x0, symName: '__ZN4core3ptr75drop_in_place$LT$pyo3..instance..Bound$LT$pyo3..types..dict..PyDict$GT$$GT$17h972b2cd6f3876388E', symObjAddr: 0x4B44, symBinAddr: 0x37608, symSize: 0x24 }
  - { offset: 0xEB525, size: 0x8, addend: 0x0, symName: '__ZN4core3ptr75drop_in_place$LT$pyo3..instance..Bound$LT$pyo3..types..list..PyList$GT$$GT$17hde8f795b4c7909dbE', symObjAddr: 0x4B68, symBinAddr: 0x3762C, symSize: 0x24 }
  - { offset: 0xEB554, size: 0x8, addend: 0x0, symName: '__ZN4core3ptr76drop_in_place$LT$core..result..Result$LT$$LP$$RP$$C$pyo3..err..PyErr$GT$$GT$17h054cf88c7de3751cE', symObjAddr: 0x4BB0, symBinAddr: 0x37650, symSize: 0x40 }
  - { offset: 0xEB583, size: 0x8, addend: 0x0, symName: '__ZN4core3ptr76drop_in_place$LT$pyo3..instance..Py$LT$pyo3..types..module..PyModule$GT$$GT$17h8ba4f676e9a9afebE', symObjAddr: 0x4BF0, symBinAddr: 0x37690, symSize: 0x2C }
  - { offset: 0xEB5B2, size: 0x8, addend: 0x0, symName: '__ZN4core3ptr76drop_in_place$LT$pyo3..instance..Py$LT$pyo3..types..string..PyString$GT$$GT$17h3e6bc38efc37ec13E', symObjAddr: 0x4C1C, symBinAddr: 0x376BC, symSize: 0x2C }
  - { offset: 0xEB5E1, size: 0x8, addend: 0x0, symName: '__ZN4core3ptr77drop_in_place$LT$pyo3..instance..Bound$LT$pyo3..types..bytes..PyBytes$GT$$GT$17hac1eafd80e9488f4E', symObjAddr: 0x4C6C, symBinAddr: 0x376E8, symSize: 0x24 }
  - { offset: 0xEB610, size: 0x8, addend: 0x0, symName: '__ZN4core3ptr77drop_in_place$LT$pyo3..instance..Bound$LT$pyo3..types..tuple..PyTuple$GT$$GT$17h5414c81995cf7194E', symObjAddr: 0x4C90, symBinAddr: 0x3770C, symSize: 0x24 }
  - { offset: 0xEB63F, size: 0x8, addend: 0x0, symName: '__ZN4core3ptr78drop_in_place$LT$pyo3..instance..Py$LT$pyo3..types..typeobject..PyType$GT$$GT$17h52465ed86ae02324E', symObjAddr: 0x4D90, symBinAddr: 0x37730, symSize: 0x2C }
  - { offset: 0xEB66E, size: 0x8, addend: 0x0, symName: '__ZN4core3ptr79drop_in_place$LT$pyo3..instance..Bound$LT$pyo3..types..string..PyString$GT$$GT$17hfdacb3b1bbe81d54E', symObjAddr: 0x4E98, symBinAddr: 0x3775C, symSize: 0x24 }
  - { offset: 0xEB69D, size: 0x8, addend: 0x0, symName: '__ZN4core3ptr80drop_in_place$LT$pyo3..instance..Py$LT$pyo3..exceptions..PyBaseException$GT$$GT$17h90245071e0e80b95E', symObjAddr: 0x4F28, symBinAddr: 0x37780, symSize: 0x2C }
  - { offset: 0xEB6CC, size: 0x8, addend: 0x0, symName: '__ZN4core3ptr81drop_in_place$LT$pyo3..instance..Bound$LT$pyo3..types..typeobject..PyType$GT$$GT$17he363a7286dc31763E', symObjAddr: 0x4F9C, symBinAddr: 0x377AC, symSize: 0x24 }
  - { offset: 0xEB6FB, size: 0x8, addend: 0x0, symName: '__ZN4core3ptr83drop_in_place$LT$$u5b$pyo3..instance..Bound$LT$pyo3..types..any..PyAny$GT$$u5d$$GT$17h1b8a33234f03f3a1E', symObjAddr: 0x4FC0, symBinAddr: 0x377D0, symSize: 0xB4 }
  - { offset: 0xEB72A, size: 0x8, addend: 0x0, symName: '__ZN4core3ptr83drop_in_place$LT$pyo3..instance..Bound$LT$pyo3..exceptions..PyBaseException$GT$$GT$17h20ff68e2054e9f37E', symObjAddr: 0x5074, symBinAddr: 0x37884, symSize: 0x24 }
  - { offset: 0xEB759, size: 0x8, addend: 0x0, symName: '__ZN4core3ptr83drop_in_place$LT$pyo3..instance..Bound$LT$pyo3..types..iterator..PyIterator$GT$$GT$17h98a62408b9665073E', symObjAddr: 0x5098, symBinAddr: 0x378A8, symSize: 0x24 }
  - { offset: 0xEB788, size: 0x8, addend: 0x0, symName: '__ZN4core3ptr84drop_in_place$LT$pyo3..instance..Bound$LT$pyo3..types..function..PyCFunction$GT$$GT$17hc6bb0d7e09fc8b77E', symObjAddr: 0x50BC, symBinAddr: 0x378CC, symSize: 0x24 }
  - { offset: 0xEB7B7, size: 0x8, addend: 0x0, symName: '__ZN4core3ptr85drop_in_place$LT$alloc..boxed..Box$LT$std..sys..pal..unix..sync..mutex..Mutex$GT$$GT$17h51ffafe7496b7b5cE', symObjAddr: 0x5194, symBinAddr: 0x378F0, symSize: 0x60 }
  - { offset: 0xEB7E6, size: 0x8, addend: 0x0, symName: '__ZN4core3ptr85drop_in_place$LT$pyo3..instance..Bound$LT$pyo3..types..traceback..PyTraceback$GT$$GT$17h84e14eef01758b24E', symObjAddr: 0x52A8, symBinAddr: 0x37950, symSize: 0x24 }
  - { offset: 0xEB815, size: 0x8, addend: 0x0, symName: '__ZN4core3ptr86drop_in_place$LT$core..option..Option$LT$pyo3..err..err_state..PyErrStateInner$GT$$GT$17hab95e88343caa65bE', symObjAddr: 0x5314, symBinAddr: 0x37974, symSize: 0x40 }
  - { offset: 0xEB844, size: 0x8, addend: 0x0, symName: '__ZN4core3ptr91drop_in_place$LT$alloc..boxed..Box$LT$dyn$u20$core..any..Any$u2b$core..marker..Send$GT$$GT$17h287d32c6ae74c201E', symObjAddr: 0x5378, symBinAddr: 0x379B4, symSize: 0x80 }
  - { offset: 0xEB873, size: 0x8, addend: 0x0, symName: '__ZN4core3ptr94drop_in_place$LT$$u5b$pyo3..instance..Bound$LT$pyo3..types..any..PyAny$GT$$u3b$$u20$1$u5d$$GT$17h562cb5c76a13af82E', symObjAddr: 0x54C0, symBinAddr: 0x37A34, symSize: 0xA4 }
  - { offset: 0xEB8A2, size: 0x8, addend: 0x0, symName: '__ZN4core3ptr94drop_in_place$LT$$u5b$pyo3..instance..Bound$LT$pyo3..types..any..PyAny$GT$$u3b$$u20$2$u5d$$GT$17ha4c06e2d9d4b3ae9E', symObjAddr: 0x5564, symBinAddr: 0x37AD8, symSize: 0xA4 }
  - { offset: 0xEB8D1, size: 0x8, addend: 0x0, symName: '__ZN4core3ptr97drop_in_place$LT$core..result..Result$LT$alloc..borrow..Cow$LT$str$GT$$C$pyo3..err..PyErr$GT$$GT$17h34ebaa8d2b2385a0E', symObjAddr: 0x5634, symBinAddr: 0x37B7C, symSize: 0x50 }
  - { offset: 0xEBB92, size: 0x8, addend: 0x0, symName: '__ZN4core3cmp5impls54_$LT$impl$u20$core..cmp..PartialEq$u20$for$u20$i32$GT$2ne17h3f60e15381882e36E', symObjAddr: 0x134C, symBinAddr: 0x35BF4, symSize: 0x2C }
  - { offset: 0xEBBD5, size: 0x8, addend: 0x0, symName: '__ZN4core3cmp5impls54_$LT$impl$u20$core..cmp..PartialEq$u20$for$u20$i64$GT$2eq17h8f6ccb83630f771dE', symObjAddr: 0x1378, symBinAddr: 0x35C20, symSize: 0x2C }
  - { offset: 0xEBC12, size: 0x8, addend: 0x0, symName: '__ZN4core3cmp5impls54_$LT$impl$u20$core..cmp..PartialEq$u20$for$u20$i64$GT$2ne17h0ff2cca50d4ba670E', symObjAddr: 0x13A4, symBinAddr: 0x35C4C, symSize: 0x2C }
  - { offset: 0xEBC55, size: 0x8, addend: 0x0, symName: '__ZN4core3cmp5impls54_$LT$impl$u20$core..cmp..PartialEq$u20$for$u20$u64$GT$2eq17h3e2184ade678f6d5E', symObjAddr: 0x13D0, symBinAddr: 0x35C78, symSize: 0x2C }
  - { offset: 0xEBC98, size: 0x8, addend: 0x0, symName: '__ZN4core3cmp5impls56_$LT$impl$u20$core..cmp..PartialEq$u20$for$u20$isize$GT$2ne17hcda28c62771f8778E', symObjAddr: 0x1438, symBinAddr: 0x35CA4, symSize: 0x2C }
  - { offset: 0xEBCDB, size: 0x8, addend: 0x0, symName: '__ZN4core3cmp5impls69_$LT$impl$u20$core..cmp..PartialEq$LT$$RF$B$GT$$u20$for$u20$$RF$A$GT$2eq17hefe3428922c0ca32E', symObjAddr: 0x153C, symBinAddr: 0x35CD0, symSize: 0x44 }
  - { offset: 0xEBD50, size: 0x8, addend: 0x0, symName: __ZN4core9panicking13assert_failed17hb36885ef582334d8E, symObjAddr: 0x5D98, symBinAddr: 0x6B3D4, symSize: 0x54 }
  - { offset: 0xEBDB9, size: 0x8, addend: 0x0, symName: __ZN4core9panicking13assert_failed17hebc99faad48fdeeeE, symObjAddr: 0x5DEC, symBinAddr: 0x6B428, symSize: 0x54 }
  - { offset: 0xEBE22, size: 0x8, addend: 0x0, symName: __ZN4core9panicking13panic_display17hc767f655d895be69E, symObjAddr: 0x5E94, symBinAddr: 0x3807C, symSize: 0x5C }
  - { offset: 0xEBEE3, size: 0x8, addend: 0x0, symName: '__ZN102_$LT$core..iter..adapters..zip..Zip$LT$A$C$B$GT$$u20$as$u20$core..iter..traits..iterator..Iterator$GT$4next17h75678bfb8a639acbE', symObjAddr: 0xAC, symBinAddr: 0x35730, symSize: 0x24 }
  - { offset: 0xEBF21, size: 0x8, addend: 0x0, symName: '__ZN102_$LT$core..iter..adapters..zip..Zip$LT$A$C$B$GT$$u20$as$u20$core..iter..traits..iterator..Iterator$GT$4next17ha3f94dbaa05efc96E', symObjAddr: 0xD0, symBinAddr: 0x35754, symSize: 0x24 }
  - { offset: 0xEBF5F, size: 0x8, addend: 0x0, symName: '__ZN102_$LT$core..iter..adapters..zip..Zip$LT$A$C$B$GT$$u20$as$u20$core..iter..traits..iterator..Iterator$GT$9size_hint17hc7a9f669cacf729aE', symObjAddr: 0x13C, symBinAddr: 0x35778, symSize: 0x24 }
  - { offset: 0xEBF9D, size: 0x8, addend: 0x0, symName: '__ZN102_$LT$core..iter..adapters..zip..Zip$LT$A$C$B$GT$$u20$as$u20$core..iter..traits..iterator..Iterator$GT$9size_hint17hed6658624265607bE', symObjAddr: 0x160, symBinAddr: 0x3579C, symSize: 0x24 }
  - { offset: 0xEBFE1, size: 0x8, addend: 0x0, symName: '__ZN111_$LT$core..iter..adapters..zip..Zip$LT$A$C$B$GT$$u20$as$u20$core..iter..adapters..zip..ZipImpl$LT$A$C$B$GT$$GT$3new17h29713b7932070ff6E', symObjAddr: 0x418, symBinAddr: 0x357C0, symSize: 0x3C }
  - { offset: 0xEC02D, size: 0x8, addend: 0x0, symName: '__ZN111_$LT$core..iter..adapters..zip..Zip$LT$A$C$B$GT$$u20$as$u20$core..iter..adapters..zip..ZipImpl$LT$A$C$B$GT$$GT$4next17h4616c17232a0af12E', symObjAddr: 0x6AC, symBinAddr: 0x358B8, symSize: 0xE0 }
  - { offset: 0xEC18E, size: 0x8, addend: 0x0, symName: '__ZN111_$LT$core..iter..adapters..zip..Zip$LT$A$C$B$GT$$u20$as$u20$core..iter..adapters..zip..ZipImpl$LT$A$C$B$GT$$GT$9size_hint17hb26315770b0e76d3E', symObjAddr: 0x944, symBinAddr: 0x35A48, symSize: 0x12C }
  - { offset: 0xEC2E1, size: 0x8, addend: 0x0, symName: '__ZN111_$LT$core..iter..adapters..zip..Zip$LT$A$C$B$GT$$u20$as$u20$core..iter..adapters..zip..ZipImpl$LT$A$C$B$GT$$GT$3new17ha6a51ec45b0365ebE', symObjAddr: 0x5F0, symBinAddr: 0x357FC, symSize: 0xBC }
  - { offset: 0xEC374, size: 0x8, addend: 0x0, symName: '__ZN111_$LT$core..iter..adapters..zip..Zip$LT$A$C$B$GT$$u20$as$u20$core..iter..adapters..zip..ZipImpl$LT$A$C$B$GT$$GT$4next17hfa753b09f0fd113fE', symObjAddr: 0x860, symBinAddr: 0x35998, symSize: 0xB0 }
  - { offset: 0xEC3CA, size: 0x8, addend: 0x0, symName: '__ZN111_$LT$core..iter..adapters..zip..Zip$LT$A$C$B$GT$$u20$as$u20$core..iter..adapters..zip..ZipImpl$LT$A$C$B$GT$$GT$9size_hint17hdd32944b15920ca8E', symObjAddr: 0xA70, symBinAddr: 0x35B74, symSize: 0x34 }
  - { offset: 0xEC600, size: 0x8, addend: 0x0, symName: __ZN4core4iter6traits8iterator8Iterator10filter_map17h67c28dacea0c0f9fE, symObjAddr: 0x5724, symBinAddr: 0x37BCC, symSize: 0x30 }
  - { offset: 0xEC66E, size: 0x8, addend: 0x0, symName: __ZN4core4iter6traits8iterator8Iterator10filter_map17ha6e3c72b749e0ad3E, symObjAddr: 0x5754, symBinAddr: 0x37BFC, symSize: 0x30 }
  - { offset: 0xEC6DC, size: 0x8, addend: 0x0, symName: __ZN4core4iter6traits8iterator8Iterator8find_map17h3849b1fb7a87efd2E, symObjAddr: 0x5840, symBinAddr: 0x37C2C, symSize: 0x8C }
  - { offset: 0xEC764, size: 0x8, addend: 0x0, symName: __ZN4core4iter6traits8iterator8Iterator8find_map17h720d46fc17f94c6aE, symObjAddr: 0x58CC, symBinAddr: 0x37CB8, symSize: 0x8C }
  - { offset: 0xEC7EC, size: 0x8, addend: 0x0, symName: __ZN4core4iter6traits8iterator8Iterator8try_fold17h36a959bdbde040d2E, symObjAddr: 0x5958, symBinAddr: 0x37D44, symSize: 0x190 }
  - { offset: 0xEC8A2, size: 0x8, addend: 0x0, symName: __ZN4core4iter6traits8iterator8Iterator8try_fold17h80032b5c08d440ffE, symObjAddr: 0x5AE8, symBinAddr: 0x37ED4, symSize: 0x190 }
  - { offset: 0xECC3A, size: 0x8, addend: 0x0, symName: '__ZN4core3ops8function6FnOnce40call_once$u7b$$u7b$vtable.shim$u7d$$u7d$17h07f6223f4ae203acE', symObjAddr: 0x1A0C, symBinAddr: 0x36114, symSize: 0x24 }
  - { offset: 0xECC7E, size: 0x8, addend: 0x0, symName: '__ZN4core3ops8function6FnOnce40call_once$u7b$$u7b$vtable.shim$u7d$$u7d$17h310c6effcab85886E', symObjAddr: 0x1AE0, symBinAddr: 0x36138, symSize: 0x30 }
  - { offset: 0xECCC2, size: 0x8, addend: 0x0, symName: '__ZN4core3ops8function6FnOnce40call_once$u7b$$u7b$vtable.shim$u7d$$u7d$17h3b66cc20f474f579E', symObjAddr: 0x1B54, symBinAddr: 0x36168, symSize: 0x30 }
  - { offset: 0xECD06, size: 0x8, addend: 0x0, symName: '__ZN4core3ops8function6FnOnce40call_once$u7b$$u7b$vtable.shim$u7d$$u7d$17h41e953651096e3b1E', symObjAddr: 0x1BCC, symBinAddr: 0x36198, symSize: 0x30 }
  - { offset: 0xECD46, size: 0x8, addend: 0x0, symName: '__ZN4core3ops8function6FnOnce40call_once$u7b$$u7b$vtable.shim$u7d$$u7d$17h44a06a0326551c25E', symObjAddr: 0x1BFC, symBinAddr: 0x361C8, symSize: 0x24 }
  - { offset: 0xECD8A, size: 0x8, addend: 0x0, symName: '__ZN4core3ops8function6FnOnce40call_once$u7b$$u7b$vtable.shim$u7d$$u7d$17h5d7d0342721aded6E', symObjAddr: 0x1CBC, symBinAddr: 0x361EC, symSize: 0x30 }
  - { offset: 0xECDCA, size: 0x8, addend: 0x0, symName: '__ZN4core3ops8function6FnOnce40call_once$u7b$$u7b$vtable.shim$u7d$$u7d$17h624149ff5d8c3795E', symObjAddr: 0x1D1C, symBinAddr: 0x3621C, symSize: 0x30 }
  - { offset: 0xECE0A, size: 0x8, addend: 0x0, symName: '__ZN4core3ops8function6FnOnce40call_once$u7b$$u7b$vtable.shim$u7d$$u7d$17h779d9a88c942170cE', symObjAddr: 0x1D98, symBinAddr: 0x3624C, symSize: 0x24 }
  - { offset: 0xECE4E, size: 0x8, addend: 0x0, symName: '__ZN4core3ops8function6FnOnce40call_once$u7b$$u7b$vtable.shim$u7d$$u7d$17h78f73265cae3e07dE', symObjAddr: 0x1DBC, symBinAddr: 0x36270, symSize: 0x24 }
  - { offset: 0xECE92, size: 0x8, addend: 0x0, symName: '__ZN4core3ops8function6FnOnce40call_once$u7b$$u7b$vtable.shim$u7d$$u7d$17h8f2696bbaddb153aE', symObjAddr: 0x1E90, symBinAddr: 0x36294, symSize: 0x30 }
  - { offset: 0xECED2, size: 0x8, addend: 0x0, symName: '__ZN4core3ops8function6FnOnce40call_once$u7b$$u7b$vtable.shim$u7d$$u7d$17h9e509ecd07145696E', symObjAddr: 0x1EF0, symBinAddr: 0x362C4, symSize: 0x30 }
  - { offset: 0xECF12, size: 0x8, addend: 0x0, symName: '__ZN4core3ops8function6FnOnce40call_once$u7b$$u7b$vtable.shim$u7d$$u7d$17ha0a635e6d1a4d9f7E', symObjAddr: 0x1F20, symBinAddr: 0x362F4, symSize: 0x30 }
  - { offset: 0xECF56, size: 0x8, addend: 0x0, symName: '__ZN4core3ops8function6FnOnce40call_once$u7b$$u7b$vtable.shim$u7d$$u7d$17hdcf5fec5790c4bc3E', symObjAddr: 0x2080, symBinAddr: 0x36324, symSize: 0x30 }
  - { offset: 0xECF9A, size: 0x8, addend: 0x0, symName: '__ZN4core3ops8function6FnOnce40call_once$u7b$$u7b$vtable.shim$u7d$$u7d$17hdf8af1c370ec8bbaE', symObjAddr: 0x20B0, symBinAddr: 0x36354, symSize: 0x30 }
  - { offset: 0xECFDA, size: 0x8, addend: 0x0, symName: '__ZN4core3ops8function6FnOnce40call_once$u7b$$u7b$vtable.shim$u7d$$u7d$17hed72d3f7f90f8b64E', symObjAddr: 0x2148, symBinAddr: 0x36384, symSize: 0x24 }
  - { offset: 0xED01E, size: 0x8, addend: 0x0, symName: '__ZN4core3ops8function6FnOnce40call_once$u7b$$u7b$vtable.shim$u7d$$u7d$17hf022c17328e26100E', symObjAddr: 0x216C, symBinAddr: 0x363A8, symSize: 0x30 }
  - { offset: 0xED05E, size: 0x8, addend: 0x0, symName: __ZN4core3ops8function6FnOnce9call_once17h0154ead62e63e2a3E, symObjAddr: 0x21BC, symBinAddr: 0x363D8, symSize: 0x40 }
  - { offset: 0xED0A2, size: 0x8, addend: 0x0, symName: __ZN4core3ops8function6FnOnce9call_once17h0f571451499aa434E, symObjAddr: 0x21FC, symBinAddr: 0x36418, symSize: 0x4C }
  - { offset: 0xED0E2, size: 0x8, addend: 0x0, symName: __ZN4core3ops8function6FnOnce9call_once17h2feccab66da7e476E, symObjAddr: 0x22A4, symBinAddr: 0x36464, symSize: 0x4C }
  - { offset: 0xED122, size: 0x8, addend: 0x0, symName: __ZN4core3ops8function6FnOnce9call_once17h33340221d4752d5dE, symObjAddr: 0x22F0, symBinAddr: 0x364B0, symSize: 0x24 }
  - { offset: 0xED166, size: 0x8, addend: 0x0, symName: __ZN4core3ops8function6FnOnce9call_once17h40b10206c700ee4aE, symObjAddr: 0x2314, symBinAddr: 0x364D4, symSize: 0x2C }
  - { offset: 0xED1AA, size: 0x8, addend: 0x0, symName: __ZN4core3ops8function6FnOnce9call_once17h559fb65fe0887f3fE, symObjAddr: 0x23A0, symBinAddr: 0x36500, symSize: 0x4C }
  - { offset: 0xED1EA, size: 0x8, addend: 0x0, symName: __ZN4core3ops8function6FnOnce9call_once17h55ec3437cc1e006dE, symObjAddr: 0x23EC, symBinAddr: 0x3654C, symSize: 0x4C }
  - { offset: 0xED22A, size: 0x8, addend: 0x0, symName: __ZN4core3ops8function6FnOnce9call_once17h5a1c255f39b465e0E, symObjAddr: 0x24E8, symBinAddr: 0x36598, symSize: 0x1C }
  - { offset: 0xED26E, size: 0x8, addend: 0x0, symName: __ZN4core3ops8function6FnOnce9call_once17h8703ddfe85948166E, symObjAddr: 0x257C, symBinAddr: 0x365B4, symSize: 0x4C }
  - { offset: 0xED2AE, size: 0x8, addend: 0x0, symName: __ZN4core3ops8function6FnOnce9call_once17h8c91405ff65d05abE, symObjAddr: 0x2614, symBinAddr: 0x36600, symSize: 0x34 }
  - { offset: 0xED2F2, size: 0x8, addend: 0x0, symName: __ZN4core3ops8function6FnOnce9call_once17h97b9923c4ad5dbdfE, symObjAddr: 0x2648, symBinAddr: 0x36634, symSize: 0x4C }
  - { offset: 0xED332, size: 0x8, addend: 0x0, symName: __ZN4core3ops8function6FnOnce9call_once17h9c3be7bef44a38c8E, symObjAddr: 0x2694, symBinAddr: 0x36680, symSize: 0x4C }
  - { offset: 0xED372, size: 0x8, addend: 0x0, symName: __ZN4core3ops8function6FnOnce9call_once17h9fef3743882b53d5E, symObjAddr: 0x272C, symBinAddr: 0x366CC, symSize: 0x24 }
  - { offset: 0xED3B6, size: 0x8, addend: 0x0, symName: __ZN4core3ops8function6FnOnce9call_once17ha10b4f71b4527734E, symObjAddr: 0x2750, symBinAddr: 0x366F0, symSize: 0x4C }
  - { offset: 0xED3FA, size: 0x8, addend: 0x0, symName: __ZN4core3ops8function6FnOnce9call_once17ha53035cc1de0ff7fE, symObjAddr: 0x279C, symBinAddr: 0x3673C, symSize: 0x34 }
  - { offset: 0xED43E, size: 0x8, addend: 0x0, symName: __ZN4core3ops8function6FnOnce9call_once17hb0f2007e33f06be5E, symObjAddr: 0x28BC, symBinAddr: 0x36770, symSize: 0x24 }
  - { offset: 0xED482, size: 0x8, addend: 0x0, symName: __ZN4core3ops8function6FnOnce9call_once17hc64a982341eefff0E, symObjAddr: 0x2904, symBinAddr: 0x36794, symSize: 0x20 }
  - { offset: 0xED4C6, size: 0x8, addend: 0x0, symName: __ZN4core3ops8function6FnOnce9call_once17hcf58a9deb330540eE, symObjAddr: 0x2924, symBinAddr: 0x367B4, symSize: 0x2C }
  - { offset: 0xED50A, size: 0x8, addend: 0x0, symName: __ZN4core3ops8function6FnOnce9call_once17hd122ee8e39046f49E, symObjAddr: 0x2950, symBinAddr: 0x367E0, symSize: 0x24 }
  - { offset: 0xED54E, size: 0x8, addend: 0x0, symName: __ZN4core3ops8function6FnOnce9call_once17hf5067d1788e3f767E, symObjAddr: 0x2A2C, symBinAddr: 0x36804, symSize: 0x40 }
  - { offset: 0xED5DB, size: 0x8, addend: 0x0, symName: '__ZN4core7convert3num18ptr_try_from_impls69_$LT$impl$u20$core..convert..TryFrom$LT$u64$GT$$u20$for$u20$usize$GT$8try_from17h7a8d5636ce37a3e3E', symObjAddr: 0x5D80, symBinAddr: 0x38064, symSize: 0x18 }
  - { offset: 0xED611, size: 0x8, addend: 0x0, symName: '__ZN50_$LT$T$u20$as$u20$core..convert..Into$LT$U$GT$$GT$4into17h2c0920487e13841cE', symObjAddr: 0x73D8, symBinAddr: 0x380D8, symSize: 0x14 }
  - { offset: 0xEE461, size: 0x8, addend: 0x0, symName: '__ZN44_$LT$$RF$T$u20$as$u20$core..fmt..Display$GT$3fmt17he18c64241ba73872E', symObjAddr: 0x1114, symBinAddr: 0x35BC4, symSize: 0x30 }
  - { offset: 0xEE51B, size: 0x8, addend: 0x0, symName: '__ZN4core3fmt8builders11DebugStruct10field_with28_$u7b$$u7b$closure$u7d$$u7d$17hd597f9fa84009fb8E', symObjAddr: 0x1660, symBinAddr: 0x35DC0, symSize: 0x354 }
  - { offset: 0xEEB74, size: 0x8, addend: 0x0, symName: '__ZN73_$LT$$u5b$A$u5d$$u20$as$u20$core..slice..cmp..SlicePartialEq$LT$B$GT$$GT$5equal17hf678a291accf53c4E', symObjAddr: 0x77A4, symBinAddr: 0x382B4, symSize: 0x88 }
  - { offset: 0xF0AA7, size: 0x8, addend: 0x0, symName: '__ZN5alloc6string94_$LT$impl$u20$core..convert..From$LT$$RF$str$GT$$u20$for$u20$alloc..borrow..Cow$LT$str$GT$$GT$4from17hd21ebbd5e099af2bE', symObjAddr: 0x7520, symBinAddr: 0x3818C, symSize: 0x2C }
  - { offset: 0xF0E86, size: 0x8, addend: 0x0, symName: __ZN5alloc6borrow3Cow8Borrowed17had0139415e732562E, symObjAddr: 0x74F4, symBinAddr: 0x38160, symSize: 0x2C }
  - { offset: 0xF0EBE, size: 0x8, addend: 0x0, symName: '__ZN71_$LT$alloc..borrow..Cow$LT$B$GT$$u20$as$u20$core..ops..deref..Deref$GT$5deref17h83beb51edc4a4e59E', symObjAddr: 0x76A4, symBinAddr: 0x3823C, symSize: 0x78 }
  - { offset: 0xF0F19, size: 0x8, addend: 0x0, symName: '__ZN66_$LT$alloc..borrow..Cow$LT$B$GT$$u20$as$u20$core..fmt..Display$GT$3fmt17h29633c3b131cf5abE', symObjAddr: 0x7620, symBinAddr: 0x381B8, symSize: 0x84 }
  - { offset: 0xF1080, size: 0x8, addend: 0x0, symName: __ZN3std6thread6thread6Thread2id17hac6bd80ad8f65c27E, symObjAddr: 0x10F8, symBinAddr: 0x35BA8, symSize: 0x1C }
  - { offset: 0xF1224, size: 0x8, addend: 0x0, symName: __ZN4core3fmt8builders11DebugStruct10field_with17hd3b21a6a879f69e1E, symObjAddr: 0x15B4, symBinAddr: 0x35D14, symSize: 0xAC }
  - { offset: 0xF1491, size: 0x8, addend: 0x0, symName: '__ZN5alloc6borrow12Cow$LT$B$GT$10into_owned17h8a92fe4801af1e93E', symObjAddr: 0x7480, symBinAddr: 0x380EC, symSize: 0x74 }
  - { offset: 0xF218B, size: 0x8, addend: 0x0, symName: '__ZN110_$LT$core..iter..adapters..enumerate..Enumerate$LT$I$GT$$u20$as$u20$core..iter..traits..iterator..Iterator$GT$4next17h9e85ca924e6aafd5E', symObjAddr: 0x0, symBinAddr: 0x3833C, symSize: 0xEC }
  - { offset: 0xF21C7, size: 0x8, addend: 0x0, symName: '__ZN9once_cell3imp17OnceCell$LT$T$GT$10initialize28_$u7b$$u7b$closure$u7d$$u7d$17h9474403e1fa08330E', symObjAddr: 0x4898, symBinAddr: 0x38FF4, symSize: 0x1AC }
  - { offset: 0xF3FF4, size: 0x8, addend: 0x0, symName: __ZN4core3mem4drop17h44c7898572b046daE, symObjAddr: 0x19E0, symBinAddr: 0x38C40, symSize: 0x2C }
  - { offset: 0xF405A, size: 0x8, addend: 0x0, symName: __ZN4core3mem4take17h2c86356ce67b4165E, symObjAddr: 0x1A8C, symBinAddr: 0x38C6C, symSize: 0x54 }
  - { offset: 0xF40B7, size: 0x8, addend: 0x0, symName: __ZN4core3mem6forget17h8424d6f3533fc29dE, symObjAddr: 0x1B9C, symBinAddr: 0x38CC0, symSize: 0x14 }
  - { offset: 0xF4292, size: 0x8, addend: 0x0, symName: '__ZN110_$LT$core..iter..adapters..enumerate..Enumerate$LT$I$GT$$u20$as$u20$core..iter..traits..iterator..Iterator$GT$4next17h9e85ca924e6aafd5E', symObjAddr: 0x0, symBinAddr: 0x3833C, symSize: 0xEC }
  - { offset: 0xF4378, size: 0x8, addend: 0x0, symName: '__ZN110_$LT$core..iter..adapters..enumerate..Enumerate$LT$I$GT$$u20$as$u20$core..iter..traits..iterator..Iterator$GT$4next17hba7230be9f490340E', symObjAddr: 0xEC, symBinAddr: 0x38428, symSize: 0xEC }
  - { offset: 0xF445E, size: 0x8, addend: 0x0, symName: '__ZN110_$LT$core..iter..adapters..enumerate..Enumerate$LT$I$GT$$u20$as$u20$core..iter..traits..iterator..Iterator$GT$4next17hd88f1dc689c316ecE', symObjAddr: 0x1D8, symBinAddr: 0x38514, symSize: 0xE0 }
  - { offset: 0xF45D4, size: 0x8, addend: 0x0, symName: '__ZN63_$LT$I$u20$as$u20$core..iter..traits..collect..IntoIterator$GT$9into_iter17h1b78c382821518f9E', symObjAddr: 0x3804, symBinAddr: 0x38EF8, symSize: 0x14 }
  - { offset: 0xF460B, size: 0x8, addend: 0x0, symName: '__ZN63_$LT$I$u20$as$u20$core..iter..traits..collect..IntoIterator$GT$9into_iter17h1dd606a6c7dc545fE', symObjAddr: 0x3818, symBinAddr: 0x38F0C, symSize: 0x18 }
  - { offset: 0xF4642, size: 0x8, addend: 0x0, symName: '__ZN63_$LT$I$u20$as$u20$core..iter..traits..collect..IntoIterator$GT$9into_iter17h6cfec70351bee7e0E', symObjAddr: 0x3830, symBinAddr: 0x38F24, symSize: 0x30 }
  - { offset: 0xF4688, size: 0x8, addend: 0x0, symName: '__ZN42_$LT$$RF$T$u20$as$u20$core..fmt..Debug$GT$3fmt17h53e945e50c9e7dacE', symObjAddr: 0xAFC, symBinAddr: 0x388D4, symSize: 0x30 }
  - { offset: 0xF46D4, size: 0x8, addend: 0x0, symName: '__ZN45_$LT$$LP$$RP$$u20$as$u20$core..fmt..Debug$GT$3fmt17h9ac2609d75785bbcE', symObjAddr: 0xCEC, symBinAddr: 0x38904, symSize: 0x40 }
  - { offset: 0xF4B68, size: 0x8, addend: 0x0, symName: '__ZN53_$LT$core..fmt..Error$u20$as$u20$core..fmt..Debug$GT$3fmt17h8887251ae7582addE', symObjAddr: 0x25A0, symBinAddr: 0x38E34, symSize: 0x40 }
  - { offset: 0xF4BAD, size: 0x8, addend: 0x0, symName: '__ZN54_$LT$$BP$const$u20$T$u20$as$u20$core..fmt..Pointer$GT$3fmt28_$u7b$$u7b$closure$u7d$$u7d$17h8f99c15792df4851E', symObjAddr: 0x25E0, symBinAddr: 0x38E74, symSize: 0x34 }
  - { offset: 0xF5226, size: 0x8, addend: 0x0, symName: __ZN4pyo315internal_tricks12ptr_from_ref17h162e47debf80b0b5E, symObjAddr: 0x1CAC, symBinAddr: 0x38CD4, symSize: 0x14 }
  - { offset: 0xF525B, size: 0x8, addend: 0x0, symName: __ZN4pyo315internal_tricks12ptr_from_ref17h218712ea920d43afE, symObjAddr: 0x1CD4, symBinAddr: 0x38CE8, symSize: 0x14 }
  - { offset: 0xF5290, size: 0x8, addend: 0x0, symName: __ZN4pyo315internal_tricks12ptr_from_ref17h57a8e802a13bbb95E, symObjAddr: 0x1D10, symBinAddr: 0x38CFC, symSize: 0x14 }
  - { offset: 0xF52C5, size: 0x8, addend: 0x0, symName: __ZN4pyo315internal_tricks12ptr_from_ref17h66d68882670a5dbaE, symObjAddr: 0x1D38, symBinAddr: 0x38D10, symSize: 0x14 }
  - { offset: 0xF52FA, size: 0x8, addend: 0x0, symName: __ZN4pyo315internal_tricks12ptr_from_ref17h75f889cf2c42d163E, symObjAddr: 0x1D88, symBinAddr: 0x38D24, symSize: 0x14 }
  - { offset: 0xF532F, size: 0x8, addend: 0x0, symName: __ZN4pyo315internal_tricks12ptr_from_ref17h82ad72f0f02dc71dE, symObjAddr: 0x1D9C, symBinAddr: 0x38D38, symSize: 0x14 }
  - { offset: 0xF5364, size: 0x8, addend: 0x0, symName: __ZN4pyo315internal_tricks12ptr_from_ref17h8dc06f927637fd7aE, symObjAddr: 0x1DB0, symBinAddr: 0x38D4C, symSize: 0x14 }
  - { offset: 0xF5399, size: 0x8, addend: 0x0, symName: __ZN4pyo315internal_tricks12ptr_from_ref17h98f028c47ee92e62E, symObjAddr: 0x1DC4, symBinAddr: 0x38D60, symSize: 0x14 }
  - { offset: 0xF53CE, size: 0x8, addend: 0x0, symName: __ZN4pyo315internal_tricks12ptr_from_ref17ha80345123cc27df5E, symObjAddr: 0x1DEC, symBinAddr: 0x38D74, symSize: 0x14 }
  - { offset: 0xF5403, size: 0x8, addend: 0x0, symName: __ZN4pyo315internal_tricks12ptr_from_ref17haebaa1a714e217c6E, symObjAddr: 0x1E00, symBinAddr: 0x38D88, symSize: 0x14 }
  - { offset: 0xF5438, size: 0x8, addend: 0x0, symName: __ZN4pyo315internal_tricks12ptr_from_ref17hc4c91e3617385ee0E, symObjAddr: 0x1E50, symBinAddr: 0x38D9C, symSize: 0x14 }
  - { offset: 0xF546D, size: 0x8, addend: 0x0, symName: __ZN4pyo315internal_tricks12ptr_from_ref17hcb27cf5e4b3dbf82E, symObjAddr: 0x1E64, symBinAddr: 0x38DB0, symSize: 0x14 }
  - { offset: 0xF54A2, size: 0x8, addend: 0x0, symName: __ZN4pyo315internal_tricks12ptr_from_ref17hcd335b0c03c76ee6E, symObjAddr: 0x1E78, symBinAddr: 0x38DC4, symSize: 0x14 }
  - { offset: 0xF570E, size: 0x8, addend: 0x0, symName: __ZN3std4sync6poison10map_result17h31d9e241f7f71848E, symObjAddr: 0x728, symBinAddr: 0x385F4, symSize: 0xC4 }
  - { offset: 0xF57A2, size: 0x8, addend: 0x0, symName: __ZN3std4sync6poison10map_result17h468b25dd624ef99aE, symObjAddr: 0x7EC, symBinAddr: 0x386B8, symSize: 0xC4 }
  - { offset: 0xF586E, size: 0x8, addend: 0x0, symName: '__ZN76_$LT$std..sync..poison..PoisonError$LT$T$GT$$u20$as$u20$core..fmt..Debug$GT$3fmt17hbc7a1e981ab273bfE', symObjAddr: 0x3C40, symBinAddr: 0x38F54, symSize: 0x50 }
  - { offset: 0xF58B1, size: 0x8, addend: 0x0, symName: '__ZN76_$LT$std..sync..poison..PoisonError$LT$T$GT$$u20$as$u20$core..fmt..Debug$GT$3fmt17hcdc90979a1211699E', symObjAddr: 0x3C90, symBinAddr: 0x38FA4, symSize: 0x50 }
  - { offset: 0xF5F3F, size: 0x8, addend: 0x0, symName: '__ZN5alloc3str56_$LT$impl$u20$alloc..borrow..ToOwned$u20$for$u20$str$GT$8to_owned17hb1e145412c511376E', symObjAddr: 0x3710, symBinAddr: 0x38EA8, symSize: 0x50 }
  - { offset: 0xF6EEE, size: 0x8, addend: 0x0, symName: __ZN3std4sync6poison4Flag4done17ha5569b42b8764a63E, symObjAddr: 0x974, symBinAddr: 0x3877C, symSize: 0x8C }
  - { offset: 0xF6FDC, size: 0x8, addend: 0x0, symName: __ZN3std4sync6poison4Flag5guard17hb344b0a13765f79fE, symObjAddr: 0xA00, symBinAddr: 0x38808, symSize: 0xCC }
  - { offset: 0xF718A, size: 0x8, addend: 0x0, symName: __ZN4core3fmt9Arguments23as_statically_known_str17h015eeffb6f1111ddE, symObjAddr: 0x1524, symBinAddr: 0x38944, symSize: 0x104 }
  - { offset: 0xF7298, size: 0x8, addend: 0x0, symName: __ZN4core3fmt9Arguments3new17h00babfbfe1a01549E, symObjAddr: 0x1628, symBinAddr: 0x38A48, symSize: 0x1C }
  - { offset: 0xF734C, size: 0x8, addend: 0x0, symName: __ZN4core3fmt9Arguments3new17h0dea75b4461be7a7E, symObjAddr: 0x1698, symBinAddr: 0x38A64, symSize: 0x1C }
  - { offset: 0xF73E6, size: 0x8, addend: 0x0, symName: __ZN4core3fmt9Arguments3new17h3c483e32e6f4917aE, symObjAddr: 0x16EC, symBinAddr: 0x38A80, symSize: 0x1C }
  - { offset: 0xF7480, size: 0x8, addend: 0x0, symName: __ZN4core3fmt9Arguments3new17h7767a7245e4b308fE, symObjAddr: 0x175C, symBinAddr: 0x38A9C, symSize: 0x1C }
  - { offset: 0xF74E6, size: 0x8, addend: 0x0, symName: __ZN4core3fmt9Arguments3new17h776e305f0aca149fE, symObjAddr: 0x1778, symBinAddr: 0x38AB8, symSize: 0x1C }
  - { offset: 0xF7559, size: 0x8, addend: 0x0, symName: __ZN4core3fmt9Arguments3new17h7f6132d33d5f33e4E, symObjAddr: 0x17B0, symBinAddr: 0x38AD4, symSize: 0x1C }
  - { offset: 0xF75A5, size: 0x8, addend: 0x0, symName: __ZN4core3fmt9Arguments3new17h824a5fc840f07977E, symObjAddr: 0x17CC, symBinAddr: 0x38AF0, symSize: 0x1C }
  - { offset: 0xF760B, size: 0x8, addend: 0x0, symName: __ZN4core3fmt9Arguments3new17h934fa5632003ae03E, symObjAddr: 0x1804, symBinAddr: 0x38B0C, symSize: 0x1C }
  - { offset: 0xF7671, size: 0x8, addend: 0x0, symName: __ZN4core3fmt9Arguments3new17h9c9f6f11de5ae04bE, symObjAddr: 0x1858, symBinAddr: 0x38B28, symSize: 0x1C }
  - { offset: 0xF76D7, size: 0x8, addend: 0x0, symName: __ZN4core3fmt9Arguments3new17ha4b70ded7fe5b55dE, symObjAddr: 0x1890, symBinAddr: 0x38B44, symSize: 0x1C }
  - { offset: 0xF7709, size: 0x8, addend: 0x0, symName: __ZN4core3fmt9Arguments3new17ha524a482ddb522ebE, symObjAddr: 0x18AC, symBinAddr: 0x38B60, symSize: 0x1C }
  - { offset: 0xF776F, size: 0x8, addend: 0x0, symName: __ZN4core3fmt9Arguments8from_str17h884c57ddf6ab8dd5E, symObjAddr: 0x191C, symBinAddr: 0x38B7C, symSize: 0x20 }
  - { offset: 0xF7792, size: 0x8, addend: 0x0, symName: __ZN4core3fmt9Formatter9write_fmt17h19b3b605fc187100E, symObjAddr: 0x193C, symBinAddr: 0x38B9C, symSize: 0xA4 }
  - { offset: 0xF7851, size: 0x8, addend: 0x0, symName: __ZN4pyo35types8iterator10PyIterator11from_object17hc0fa3503e4e6f1cbE, symObjAddr: 0x1F38, symBinAddr: 0x38DD8, symSize: 0x5C }
  - { offset: 0xF7990, size: 0x8, addend: 0x0, symName: '__ZN9once_cell3imp17OnceCell$LT$T$GT$10initialize17heeac102d09431e40E', symObjAddr: 0x4814, symBinAddr: 0x6B47C, symSize: 0x84 }
  - { offset: 0xF7A4C, size: 0x8, addend: 0x0, symName: '__ZN9once_cell3imp17OnceCell$LT$T$GT$13get_unchecked17hbab987574f622e49E', symObjAddr: 0x4A44, symBinAddr: 0x391A0, symSize: 0xAC }
  - { offset: 0xF7A94, size: 0x8, addend: 0x0, symName: '__ZN9once_cell3imp17OnceCell$LT$T$GT$14is_initialized17h3a49979dd11b18b1E', symObjAddr: 0x4AF0, symBinAddr: 0x3924C, symSize: 0x30 }
  - { offset: 0xF7CDF, size: 0x8, addend: 0x0, symName: __ZN3std6thread6thread6Thread6unpark17hdd210ee94208c532E, symObjAddr: 0x0, symBinAddr: 0x3927C, symSize: 0x38 }
  - { offset: 0xF7DEF, size: 0x8, addend: 0x0, symName: __ZN4core4sync6atomic11atomic_load17he940b52164e37bceE, symObjAddr: 0x324, symBinAddr: 0x394FC, symSize: 0xF8 }
  - { offset: 0xF7E35, size: 0x8, addend: 0x0, symName: __ZN4core4sync6atomic11atomic_load17hf8b23cf0d853d294E, symObjAddr: 0x41C, symBinAddr: 0x395F4, symSize: 0xF8 }
  - { offset: 0xF7E7B, size: 0x8, addend: 0x0, symName: __ZN4core4sync6atomic12atomic_store17h167dc957784d598bE, symObjAddr: 0x514, symBinAddr: 0x396EC, symSize: 0xFC }
  - { offset: 0xF7FA9, size: 0x8, addend: 0x0, symName: __ZN4core4sync6atomic23atomic_compare_exchange17h43a9a3d31e456b23E, symObjAddr: 0x744, symBinAddr: 0x3991C, symSize: 0x4B4 }
  - { offset: 0xF8044, size: 0x8, addend: 0x0, symName: __ZN4core4sync6atomic5fence17h1f11f335dbe34c60E, symObjAddr: 0xBF8, symBinAddr: 0x39DD0, symSize: 0xB0 }
  - { offset: 0xF8144, size: 0x8, addend: 0x0, symName: '__ZN4core3ptr100drop_in_place$LT$core..cell..Cell$LT$core..option..Option$LT$std..thread..thread..Thread$GT$$GT$$GT$17h904a9663a15c4eaaE', symObjAddr: 0xF8, symBinAddr: 0x392E8, symSize: 0x24 }
  - { offset: 0xF8173, size: 0x8, addend: 0x0, symName: '__ZN4core3ptr106drop_in_place$LT$core..cell..UnsafeCell$LT$core..option..Option$LT$std..thread..thread..Thread$GT$$GT$$GT$17h1e3cc8516d083b81E', symObjAddr: 0x11C, symBinAddr: 0x3930C, symSize: 0x24 }
  - { offset: 0xF81A2, size: 0x8, addend: 0x0, symName: '__ZN4core3ptr114drop_in_place$LT$core..pin..Pin$LT$alloc..sync..Arc$LT$std..thread..thread..Inner$C$std..alloc..System$GT$$GT$$GT$17heef4fca71aae6c5cE', symObjAddr: 0x140, symBinAddr: 0x39330, symSize: 0x24 }
  - { offset: 0xF81D1, size: 0x8, addend: 0x0, symName: '__ZN4core3ptr42drop_in_place$LT$once_cell..imp..Guard$GT$17h4cf26df1dafe8a7dE', symObjAddr: 0x164, symBinAddr: 0x39354, symSize: 0x24 }
  - { offset: 0xF8200, size: 0x8, addend: 0x0, symName: '__ZN4core3ptr43drop_in_place$LT$once_cell..imp..Waiter$GT$17hb17d5a1749b3456dE', symObjAddr: 0x188, symBinAddr: 0x39378, symSize: 0x24 }
  - { offset: 0xF822F, size: 0x8, addend: 0x0, symName: '__ZN4core3ptr48drop_in_place$LT$std..thread..thread..Thread$GT$17h164bb85b9757758eE', symObjAddr: 0x1AC, symBinAddr: 0x3939C, symSize: 0x24 }
  - { offset: 0xF825E, size: 0x8, addend: 0x0, symName: '__ZN4core3ptr76drop_in_place$LT$core..option..Option$LT$std..thread..thread..Thread$GT$$GT$17h33667aec771e130aE', symObjAddr: 0x1D0, symBinAddr: 0x393C0, symSize: 0x44 }
  - { offset: 0xF82D4, size: 0x8, addend: 0x0, symName: '__ZN4core3ptr7mut_ptr31_$LT$impl$u20$$BP$mut$u20$T$GT$7is_null17h657ba11c180c14c3E', symObjAddr: 0x214, symBinAddr: 0x39404, symSize: 0x18 }
  - { offset: 0xF8368, size: 0x8, addend: 0x0, symName: '__ZN4core3ptr92drop_in_place$LT$alloc..sync..Arc$LT$std..thread..thread..Inner$C$std..alloc..System$GT$$GT$17h94e9b7c62e45e915E', symObjAddr: 0x22C, symBinAddr: 0x3941C, symSize: 0x24 }
  - { offset: 0xF8488, size: 0x8, addend: 0x0, symName: '__ZN72_$LT$core..option..Option$LT$T$GT$$u20$as$u20$core..default..Default$GT$7default17h7e4c5f0a569a4777E', symObjAddr: 0xF88, symBinAddr: 0x3A160, symSize: 0x8 }
  - { offset: 0xF881A, size: 0x8, addend: 0x0, symName: '__ZN4core3ops8function5impls79_$LT$impl$u20$core..ops..function..FnMut$LT$A$GT$$u20$for$u20$$RF$mut$u20$F$GT$8call_mut17h3a5722c23fbdd625E', symObjAddr: 0xC4, symBinAddr: 0x392B4, symSize: 0x34 }
  - { offset: 0xF89FE, size: 0x8, addend: 0x0, symName: '__ZN71_$LT$alloc..sync..Arc$LT$T$C$A$GT$$u20$as$u20$core..ops..drop..Drop$GT$4drop17h59f3e5d7ab00c538E', symObjAddr: 0xF0C, symBinAddr: 0x3A0E4, symSize: 0x7C }
  - { offset: 0xF8D4C, size: 0x8, addend: 0x0, symName: __ZN3std6thread6thread6Thread6unpark17hdd210ee94208c532E, symObjAddr: 0x0, symBinAddr: 0x3927C, symSize: 0x38 }
  - { offset: 0xF8EB3, size: 0x8, addend: 0x0, symName: '__ZN63_$LT$once_cell..imp..Guard$u20$as$u20$core..ops..drop..Drop$GT$4drop17h501225f4b3e004b5E', symObjAddr: 0xCA8, symBinAddr: 0x39E80, symSize: 0x250 }
  - { offset: 0xF8FB3, size: 0x8, addend: 0x0, symName: '__ZN63_$LT$once_cell..imp..Guard$u20$as$u20$core..ops..drop..Drop$GT$4drop28_$u7b$$u7b$closure$u7d$$u7d$17h424464a58ee2db9fE', symObjAddr: 0xEF8, symBinAddr: 0x3A0D0, symSize: 0x14 }
  - { offset: 0xF8FF2, size: 0x8, addend: 0x0, symName: __ZN9once_cell3imp18initialize_or_wait17h7765c4d5afa2937bE, symObjAddr: 0xF90, symBinAddr: 0x3A168, symSize: 0x18C }
  - { offset: 0xF90B4, size: 0x8, addend: 0x0, symName: '__ZN9once_cell3imp18initialize_or_wait28_$u7b$$u7b$closure$u7d$$u7d$17hef4b343a05164588E', symObjAddr: 0x111C, symBinAddr: 0x3A2F4, symSize: 0x18 }
  - { offset: 0xF90F2, size: 0x8, addend: 0x0, symName: __ZN9once_cell3imp4wait17hb3910db349d7d20aE, symObjAddr: 0x1134, symBinAddr: 0x3A30C, symSize: 0x1EC }
  - { offset: 0xF9199, size: 0x8, addend: 0x0, symName: '__ZN9once_cell3imp4wait28_$u7b$$u7b$closure$u7d$$u7d$17hccf5f4ae19d2f02fE', symObjAddr: 0x1320, symBinAddr: 0x3A4F8, symSize: 0x14 }
  - { offset: 0xF91CF, size: 0x8, addend: 0x0, symName: '__ZN9once_cell3imp4wait28_$u7b$$u7b$closure$u7d$$u7d$17hf7271dce85d0c569E', symObjAddr: 0x1334, symBinAddr: 0x3A50C, symSize: 0x20 }
  - { offset: 0xF922B, size: 0x8, addend: 0x0, symName: __ZN9once_cell3imp6strict4addr17hebb17f31963aee0cE, symObjAddr: 0x1354, symBinAddr: 0x3A52C, symSize: 0x10 }
  - { offset: 0xF9260, size: 0x8, addend: 0x0, symName: __ZN9once_cell3imp6strict8map_addr17h42b0aaee85103427E, symObjAddr: 0x1364, symBinAddr: 0x3A53C, symSize: 0x88 }
  - { offset: 0xF92AF, size: 0x8, addend: 0x0, symName: __ZN9once_cell3imp6strict8map_addr17h913d0335a8c55c42E, symObjAddr: 0x13EC, symBinAddr: 0x3A5C4, symSize: 0x88 }
  - { offset: 0xF92FE, size: 0x8, addend: 0x0, symName: __ZN9once_cell3imp6strict8map_addr17hf72645a03787e255E, symObjAddr: 0x1474, symBinAddr: 0x3A64C, symSize: 0x88 }
  - { offset: 0xF934D, size: 0x8, addend: 0x0, symName: __ZN9once_cell3imp6strict8map_addr17hfa6f727b896754d6E, symObjAddr: 0x14FC, symBinAddr: 0x3A6D4, symSize: 0x94 }
  - { offset: 0xF939C, size: 0x8, addend: 0x0, symName: __ZN9once_cell3imp6strict9with_addr17h4f8add7c9c00465fE, symObjAddr: 0x1590, symBinAddr: 0x3A768, symSize: 0x64 }
  - { offset: 0xF94B9, size: 0x8, addend: 0x0, symName: '__ZN4core4cell13Cell$LT$T$GT$3new17h99256892db480a46E', symObjAddr: 0x268, symBinAddr: 0x39440, symSize: 0x14 }
  - { offset: 0xF951A, size: 0x8, addend: 0x0, symName: '__ZN4core4cell13Cell$LT$T$GT$4take17h55dbcf8defc02ef3E', symObjAddr: 0x27C, symBinAddr: 0x39454, symSize: 0x3C }
  - { offset: 0xF9581, size: 0x8, addend: 0x0, symName: __ZN4core4sync6atomic10AtomicBool3new17h6b13f76fe5019a35E, symObjAddr: 0x2B8, symBinAddr: 0x39490, symSize: 0x18 }
  - { offset: 0xF95B1, size: 0x8, addend: 0x0, symName: __ZN4core4sync6atomic10AtomicBool4load17h32d3f1aaa79a5099E, symObjAddr: 0x2D0, symBinAddr: 0x394A8, symSize: 0x2C }
  - { offset: 0xF95E3, size: 0x8, addend: 0x0, symName: __ZN4core4sync6atomic10AtomicBool5store17hef615f9b55b2199eE, symObjAddr: 0x2FC, symBinAddr: 0x394D4, symSize: 0x28 }
  - { offset: 0xF9631, size: 0x8, addend: 0x0, symName: '__ZN4core4sync6atomic18AtomicPtr$LT$T$GT$16compare_exchange17h5734bc87f6cd7b2bE', symObjAddr: 0x610, symBinAddr: 0x397E8, symSize: 0x38 }
  - { offset: 0xF9699, size: 0x8, addend: 0x0, symName: '__ZN4core4sync6atomic18AtomicPtr$LT$T$GT$4load17h13e88ac88f58a913E', symObjAddr: 0x648, symBinAddr: 0x39820, symSize: 0x24 }
  - { offset: 0xF970A, size: 0x8, addend: 0x0, symName: '__ZN4core4sync6atomic18AtomicPtr$LT$T$GT$4swap17ha1e683c85252a176E', symObjAddr: 0x66C, symBinAddr: 0x39844, symSize: 0xD8 }
  - { offset: 0xF9ACF, size: 0x8, addend: 0x0, symName: __ZN4core4sync6atomic11atomic_load17h51edea8f603bd195E, symObjAddr: 0x968, symBinAddr: 0x3A820, symSize: 0xF8 }
  - { offset: 0xF9EDF, size: 0x8, addend: 0x0, symName: '__ZN4core5slice29_$LT$impl$u20$$u5b$T$u5d$$GT$8is_empty17he0ce0681cdb8690fE', symObjAddr: 0xA60, symBinAddr: 0x3A918, symSize: 0x1C }
  - { offset: 0xF9F23, size: 0x8, addend: 0x0, symName: __ZN8pyo3_ffi32_cstr_from_utf8_with_nul_checked17hef9df5a3cc8de6e5E, symObjAddr: 0xF94, symBinAddr: 0x3A934, symSize: 0x1B8 }
  - { offset: 0xFA062, size: 0x8, addend: 0x0, symName: __ZN4core3ffi5c_str4CStr29from_bytes_with_nul_unchecked17h20d326fef8c57c15E, symObjAddr: 0x1E0, symBinAddr: 0x3A7CC, symSize: 0x18 }
  - { offset: 0xFA1B4, size: 0x8, addend: 0x0, symName: __ZN4core3fmt9Arguments3new17h4bcd06efe29dbbd2E, symObjAddr: 0x740, symBinAddr: 0x3A7E4, symSize: 0x1C }
  - { offset: 0xFA1E6, size: 0x8, addend: 0x0, symName: __ZN4core3fmt9Arguments8from_str17haa1653860e473ed2E, symObjAddr: 0x75C, symBinAddr: 0x3A800, symSize: 0x20 }
  - { offset: 0xFA25A, size: 0x8, addend: 0x0, symName: __ZN4core4iter8adapters3zip27TrustedRandomAccessNoCoerce4size17h8738baaa1ec9de67E, symObjAddr: 0xD98, symBinAddr: 0x3ABC0, symSize: 0x2C }
  - { offset: 0xFA2A3, size: 0x8, addend: 0x0, symName: '__ZN63_$LT$I$u20$as$u20$core..iter..traits..collect..IntoIterator$GT$9into_iter17hd520cbab2f922a2dE', symObjAddr: 0x1134, symBinAddr: 0x3AC64, symSize: 0x1C }
  - { offset: 0xFA31E, size: 0x8, addend: 0x0, symName: __ZN4core3cmp3Ord3min17h98f65bbc6c3b4517E, symObjAddr: 0x338, symBinAddr: 0x3AAEC, symSize: 0x74 }
  - { offset: 0xFA48F, size: 0x8, addend: 0x0, symName: '__ZN4core3ptr9const_ptr33_$LT$impl$u20$$BP$const$u20$T$GT$20offset_from_unsigned18precondition_check17h8dfa5366621dc5c1E', symObjAddr: 0x7F8, symBinAddr: 0x3AB60, symSize: 0x60 }
  - { offset: 0xFA630, size: 0x8, addend: 0x0, symName: '__ZN91_$LT$core..slice..iter..Iter$LT$T$GT$$u20$as$u20$core..iter..traits..iterator..Iterator$GT$24__iterator_get_unchecked17hcf31f8742bee0ac3E', symObjAddr: 0x1D38, symBinAddr: 0x3AC80, symSize: 0x20 }
  - { offset: 0xFA68B, size: 0x8, addend: 0x0, symName: '__ZN91_$LT$core..slice..iter..Iter$LT$T$GT$$u20$as$u20$core..iter..traits..iterator..Iterator$GT$9size_hint17hbd5641571cf7ae00E', symObjAddr: 0x1E0C, symBinAddr: 0x3ACA0, symSize: 0xB4 }
  - { offset: 0xFA7BF, size: 0x8, addend: 0x0, symName: '__ZN4core5slice29_$LT$impl$u20$$u5b$T$u5d$$GT$4iter17hfd25bcd6d159e47dE', symObjAddr: 0xE70, symBinAddr: 0x3ABEC, symSize: 0x28 }
  - { offset: 0xFA9AA, size: 0x8, addend: 0x0, symName: '__ZN4core5slice4iter13Iter$LT$T$GT$3new17he6b65c6a048d5bcdE', symObjAddr: 0xEE8, symBinAddr: 0x3AC14, symSize: 0x50 }
  - { offset: 0xFB389, size: 0x8, addend: 0x0, symName: '__ZN4core3ptr9const_ptr33_$LT$impl$u20$$BP$const$u20$T$GT$13is_aligned_to17h894b1a9336af9891E', symObjAddr: 0xB88, symBinAddr: 0x3AF3C, symSize: 0x88 }
  - { offset: 0xFB48F, size: 0x8, addend: 0x0, symName: __ZN4core3ptr19copy_nonoverlapping18precondition_check17h12d64ab1bf83e136E, symObjAddr: 0x97C, symBinAddr: 0x3AD54, symSize: 0x168 }
  - { offset: 0xFB644, size: 0x8, addend: 0x0, symName: '__ZN4core3ptr46drop_in_place$LT$alloc..vec..Vec$LT$u8$GT$$GT$17h429d31e5ca0e2d18E', symObjAddr: 0xAE4, symBinAddr: 0x3AEBC, symSize: 0x5C }
  - { offset: 0xFB673, size: 0x8, addend: 0x0, symName: '__ZN4core3ptr53drop_in_place$LT$alloc..raw_vec..RawVec$LT$u8$GT$$GT$17h66e4c60fbbe36596E', symObjAddr: 0xB64, symBinAddr: 0x3AF18, symSize: 0x24 }
  - { offset: 0xFB9E0, size: 0x8, addend: 0x0, symName: __ZN4core9ub_checks23maybe_is_nonoverlapping7runtime17hedcbec394aec1b54E, symObjAddr: 0x1708, symBinAddr: 0x3B01C, symSize: 0xD8 }
  - { offset: 0xFBB97, size: 0x8, addend: 0x0, symName: __ZN4core4hint16assert_unchecked18precondition_check17hd0eaab551b60e51aE, symObjAddr: 0xC70, symBinAddr: 0x3AFC4, symSize: 0x58 }
  - { offset: 0xFBD42, size: 0x8, addend: 0x0, symName: '__ZN5alloc3vec12Vec$LT$T$GT$13with_capacity17h642c86d8294077b7E', symObjAddr: 0x1808, symBinAddr: 0x3B0F4, symSize: 0x40 }
  - { offset: 0xFBE93, size: 0x8, addend: 0x0, symName: '__ZN5alloc3vec16Vec$LT$T$C$A$GT$15append_elements17hfe19cb985fa6d944E', symObjAddr: 0x1848, symBinAddr: 0x3B134, symSize: 0xD4 }
  - { offset: 0xFC025, size: 0x8, addend: 0x0, symName: '__ZN5alloc3vec16Vec$LT$T$C$A$GT$4push17h040af0a2a13c0076E', symObjAddr: 0x1988, symBinAddr: 0x3B208, symSize: 0x28 }
  - { offset: 0xFC156, size: 0x8, addend: 0x0, symName: '__ZN5alloc3vec16Vec$LT$T$C$A$GT$8push_mut17h56bf16eb5b15d0dbE', symObjAddr: 0x19B0, symBinAddr: 0x3B230, symSize: 0xC8 }
  - { offset: 0xFC372, size: 0x8, addend: 0x0, symName: '__ZN5alloc7raw_vec20RawVecInner$LT$A$GT$16with_capacity_in17hf6e02196da5ced4cE', symObjAddr: 0x1B84, symBinAddr: 0x3B2F8, symSize: 0xF0 }
  - { offset: 0xFC50D, size: 0x8, addend: 0x0, symName: __RNvCs5QKde7ScR4H_7___rustc10rust_panic, symObjAddr: 0x0, symBinAddr: 0x6B500, symSize: 0x48 }
  - { offset: 0xFC524, size: 0x8, addend: 0x0, symName: __RNvCs5QKde7ScR4H_7___rustc10rust_panic, symObjAddr: 0x0, symBinAddr: 0x6B500, symSize: 0x48 }
  - { offset: 0xFC53E, size: 0x8, addend: 0x0, symName: __RNvCs5QKde7ScR4H_7___rustc17___rust_drop_panic, symObjAddr: 0x174, symBinAddr: 0x3B508, symSize: 0x118 }
  - { offset: 0xFC8B7, size: 0x8, addend: 0x0, symName: __RNvCs5QKde7ScR4H_7___rustc17rust_begin_unwind, symObjAddr: 0x28C, symBinAddr: 0x3B620, symSize: 0x20 }
  - { offset: 0xFC8E7, size: 0x8, addend: 0x0, symName: __RNvCs5QKde7ScR4H_7___rustc24___rust_foreign_exception, symObjAddr: 0x33C, symBinAddr: 0x3B6D0, symSize: 0x118 }
  - { offset: 0xFCCCC, size: 0x8, addend: 0x0, symName: __ZN3std9panicking11panic_count17is_zero_slow_path17hc53babc33550cbb1E, symObjAddr: 0x223C8, symBinAddr: 0x6BDC8, symSize: 0x2C }
  - { offset: 0xFCD79, size: 0x8, addend: 0x0, symName: __ZN3std9panicking11panic_count8increase17hd191ffbd1b06e653E, symObjAddr: 0x22458, symBinAddr: 0x452A4, symSize: 0x64 }
  - { offset: 0xFCD90, size: 0x8, addend: 0x0, symName: __ZN3std9panicking11panic_count8increase17hd191ffbd1b06e653E, symObjAddr: 0x22458, symBinAddr: 0x452A4, symSize: 0x64 }
  - { offset: 0xFCDA5, size: 0x8, addend: 0x0, symName: __ZN3std9panicking11panic_count8increase17hd191ffbd1b06e653E, symObjAddr: 0x22458, symBinAddr: 0x452A4, symSize: 0x64 }
  - { offset: 0xFCEBC, size: 0x8, addend: 0x0, symName: __ZN3std9panicking12catch_unwind7cleanup17h752c0163e5ec05a0E, symObjAddr: 0x224E0, symBinAddr: 0x6BDF4, symSize: 0x40 }
  - { offset: 0xFCFE3, size: 0x8, addend: 0x0, symName: '__ZN3std9panicking12default_hook28_$u7b$$u7b$closure$u7d$$u7d$17h1af7615be47c43abE', symObjAddr: 0x2265C, symBinAddr: 0x45444, symSize: 0x134 }
  - { offset: 0xFD113, size: 0x8, addend: 0x0, symName: __ZN3std9panicking12default_hook17hdcc779fdbf67ae29E, symObjAddr: 0x22520, symBinAddr: 0x45308, symSize: 0x13C }
  - { offset: 0xFD29C, size: 0x8, addend: 0x0, symName: '__ZN3std9panicking13panic_handler28_$u7b$$u7b$closure$u7d$$u7d$17h2068a0d88ec25e56E', symObjAddr: 0x22790, symBinAddr: 0x45578, symSize: 0x9C }
  - { offset: 0xFD414, size: 0x8, addend: 0x0, symName: '__ZN86_$LT$std..panicking..panic_handler..StaticStrPayload$u20$as$u20$core..fmt..Display$GT$3fmt17h29168cb33d563a1aE', symObjAddr: 0x4ABFC, symBinAddr: 0x58A24, symSize: 0x10 }
  - { offset: 0xFD435, size: 0x8, addend: 0x0, symName: '__ZN89_$LT$std..panicking..panic_handler..FormatStringPayload$u20$as$u20$core..fmt..Display$GT$3fmt17h77f7538bf2d17d35E', symObjAddr: 0x4AF98, symBinAddr: 0x58A5C, symSize: 0x34 }
  - { offset: 0xFD530, size: 0x8, addend: 0x0, symName: '__ZN93_$LT$std..panicking..panic_handler..StaticStrPayload$u20$as$u20$core..panic..PanicPayload$GT$3get17h568ef765b4ec1226E', symObjAddr: 0x4B5B4, symBinAddr: 0x58AF8, symSize: 0xC }
  - { offset: 0xFD54B, size: 0x8, addend: 0x0, symName: '__ZN93_$LT$std..panicking..panic_handler..StaticStrPayload$u20$as$u20$core..panic..PanicPayload$GT$6as_str17hf5728612964ce613E', symObjAddr: 0x4B5C0, symBinAddr: 0x58B04, symSize: 0xC }
  - { offset: 0xFD566, size: 0x8, addend: 0x0, symName: '__ZN93_$LT$std..panicking..panic_handler..StaticStrPayload$u20$as$u20$core..panic..PanicPayload$GT$8take_box17hbd5a9e5a88e9c9c2E', symObjAddr: 0x4B5CC, symBinAddr: 0x58B10, symSize: 0x48 }
  - { offset: 0xFD626, size: 0x8, addend: 0x0, symName: '__ZN96_$LT$std..panicking..panic_handler..FormatStringPayload$u20$as$u20$core..panic..PanicPayload$GT$3get17h8800fd25a29ed037E', symObjAddr: 0x4BD08, symBinAddr: 0x58F74, symSize: 0xA0 }
  - { offset: 0xFD782, size: 0x8, addend: 0x0, symName: '__ZN96_$LT$std..panicking..panic_handler..FormatStringPayload$u20$as$u20$core..panic..PanicPayload$GT$8take_box17h8acddd4651f80559E', symObjAddr: 0x4BDA8, symBinAddr: 0x59014, symSize: 0x108 }
  - { offset: 0xFDA6B, size: 0x8, addend: 0x0, symName: __ZN3std9panicking13resume_unwind17he56a77b38696f38cE, symObjAddr: 0x2282C, symBinAddr: 0x6BE34, symSize: 0xB8 }
  - { offset: 0xFDCDA, size: 0x8, addend: 0x0, symName: __ZN3std9panicking14payload_as_str17hb5a4fbc1324916adE, symObjAddr: 0x228E4, symBinAddr: 0x45614, symSize: 0xC8 }
  - { offset: 0xFDE1E, size: 0x8, addend: 0x0, symName: __ZN3std9panicking15panic_with_hook17h455d3ea9bab4bcbdE, symObjAddr: 0x229AC, symBinAddr: 0x456DC, symSize: 0x388 }
  - { offset: 0xFE55A, size: 0x8, addend: 0x0, symName: '__ZN79_$LT$std..panicking..resume_unwind..RewrapBox$u20$as$u20$core..fmt..Display$GT$3fmt17hfba99a384db1ee07E', symObjAddr: 0x49440, symBinAddr: 0x581B8, symSize: 0x14 }
  - { offset: 0xFE57B, size: 0x8, addend: 0x0, symName: '__ZN86_$LT$std..panicking..resume_unwind..RewrapBox$u20$as$u20$core..panic..PanicPayload$GT$3get17h57f3cb7a44c6d899E', symObjAddr: 0x4AC0C, symBinAddr: 0x58A34, symSize: 0xC }
  - { offset: 0xFE596, size: 0x8, addend: 0x0, symName: '__ZN86_$LT$std..panicking..resume_unwind..RewrapBox$u20$as$u20$core..panic..PanicPayload$GT$8take_box17h532bd54a1518e236E', symObjAddr: 0x4AC18, symBinAddr: 0x58A40, symSize: 0x1C }
  - { offset: 0xFE5B4, size: 0x8, addend: 0x0, symName: '__ZN86_$LT$std..panicking..resume_unwind..RewrapBox$u20$as$u20$core..panic..PanicPayload$GT$8take_box17h532bd54a1518e236E', symObjAddr: 0x4AC18, symBinAddr: 0x58A40, symSize: 0x1C }
  - { offset: 0xFE68C, size: 0x8, addend: 0x0, symName: __ZN3std3sys2io5error4unix17decode_error_kind17h1242adb8c229e6d2E, symObjAddr: 0x13FC0, symBinAddr: 0x433E0, symSize: 0x150 }
  - { offset: 0xFE742, size: 0x8, addend: 0x0, symName: __ZN3std3sys3pal4unix4sync5mutex5Mutex4init17h6076660a84b149e1E, symObjAddr: 0x16C88, symBinAddr: 0x43890, symSize: 0x168 }
  - { offset: 0xFE7DA, size: 0x8, addend: 0x0, symName: __ZN3std3sys3pal4unix4sync5mutex5Mutex4lock17hf11d9bf9473ab519E, symObjAddr: 0x16DF0, symBinAddr: 0x439F8, symSize: 0x1C }
  - { offset: 0xFE7EE, size: 0x8, addend: 0x0, symName: __ZN3std3sys3pal4unix4sync5mutex5Mutex6unlock17h687ac4a6e6394e2dE, symObjAddr: 0x16EE0, symBinAddr: 0x43A14, symSize: 0x4 }
  - { offset: 0xFE83A, size: 0x8, addend: 0x0, symName: __ZN3std3sys3pal4unix4sync5mutex5Mutex4lock4fail17h8e77330dbd0cf067E, symObjAddr: 0x16E0C, symBinAddr: 0x6B56C, symSize: 0xD4 }
  - { offset: 0xFEB2B, size: 0x8, addend: 0x0, symName: '__ZN81_$LT$std..sys..pal..unix..sync..mutex..Mutex$u20$as$u20$core..ops..drop..Drop$GT$4drop17h0d408a522165698cE', symObjAddr: 0x4A0EC, symBinAddr: 0x58770, symSize: 0x4 }
  - { offset: 0xFEB62, size: 0x8, addend: 0x0, symName: __ZN3std3sys3pal4unix14abort_internal17h7e526aa44f596455E, symObjAddr: 0x155F0, symBinAddr: 0x6B560, symSize: 0xC }
  - { offset: 0xFEBE1, size: 0x8, addend: 0x0, symName: '__ZN64_$LT$std..sys..stdio..unix..Stderr$u20$as$u20$std..io..Write$GT$14write_vectored17heb48fdb29153c9f0E', symObjAddr: 0x450B4, symBinAddr: 0x577EC, symSize: 0x54 }
  - { offset: 0xFECB5, size: 0x8, addend: 0x0, symName: '__ZN64_$LT$std..sys..stdio..unix..Stderr$u20$as$u20$std..io..Write$GT$17is_write_vectored17ha30bdc86dcf4c460E', symObjAddr: 0x45108, symBinAddr: 0x57840, symSize: 0x8 }
  - { offset: 0xFECCF, size: 0x8, addend: 0x0, symName: '__ZN64_$LT$std..sys..stdio..unix..Stderr$u20$as$u20$std..io..Write$GT$5flush17hfa5e76720ade45a1E', symObjAddr: 0x45110, symBinAddr: 0x57848, symSize: 0x8 }
  - { offset: 0xFECE9, size: 0x8, addend: 0x0, symName: '__ZN64_$LT$std..sys..stdio..unix..Stderr$u20$as$u20$std..io..Write$GT$5write17h6ebf1446bf9e1975E', symObjAddr: 0x45118, symBinAddr: 0x57850, symSize: 0x54 }
  - { offset: 0xFEE02, size: 0x8, addend: 0x0, symName: __ZN3std3sys12thread_local6native5eager7destroy17h36c3752fe1f4e0b6E, symObjAddr: 0xF50C, symBinAddr: 0x4308C, symSize: 0x2C }
  - { offset: 0xFEFA5, size: 0x8, addend: 0x0, symName: __ZN3std3sys12thread_local5guard5apple6enable9run_dtors17haca72ead1c130e17E, symObjAddr: 0xF41C, symBinAddr: 0x42F9C, symSize: 0xF0 }
  - { offset: 0xFF437, size: 0x8, addend: 0x0, symName: __ZN3std3sys12thread_local11destructors4list8register17hfa31c57150524692E, symObjAddr: 0xF320, symBinAddr: 0x42EA0, symSize: 0xFC }
  - { offset: 0xFF73C, size: 0x8, addend: 0x0, symName: __ZN3std3sys3env4unix13env_read_lock17hd4ae47032b5c30f8E, symObjAddr: 0x14110, symBinAddr: 0x43530, symSize: 0x230 }
  - { offset: 0xFFE06, size: 0x8, addend: 0x0, symName: '__ZN3std3sys3env4unix6getenv28_$u7b$$u7b$closure$u7d$$u7d$17hf1079b0eaf7c71beE', symObjAddr: 0x14340, symBinAddr: 0x43760, symSize: 0x130 }
  - { offset: 0x10004E, size: 0x8, addend: 0x0, symName: __ZN3std3sys2fs4unix4File6open_c17h75f37d49044d3016E, symObjAddr: 0x12834, symBinAddr: 0x430C4, symSize: 0x1A0 }
  - { offset: 0x10013C, size: 0x8, addend: 0x0, symName: '__ZN3std3sys2fs4unix4File4open28_$u7b$$u7b$closure$u7d$$u7d$17hdcff4e2a34019a05E', symObjAddr: 0x127D4, symBinAddr: 0x430B8, symSize: 0xC }
  - { offset: 0x1001D7, size: 0x8, addend: 0x0, symName: '__ZN71_$LT$std..sys..fs..unix..DirStream$u20$as$u20$core..ops..drop..Drop$GT$4drop17h6a875ba702f2c730E', symObjAddr: 0x466F8, symBinAddr: 0x57E74, symSize: 0xB4 }
  - { offset: 0x10029F, size: 0x8, addend: 0x0, symName: __ZN3std3sys2fs8read_dir17h43e51a1609ca9236E, symObjAddr: 0x13864, symBinAddr: 0x43264, symSize: 0x17C }
  - { offset: 0x1005D2, size: 0x8, addend: 0x0, symName: __ZN3std3sys7helpers14small_c_string24run_with_cstr_allocating17h509c48cf23c25261E, symObjAddr: 0x18B54, symBinAddr: 0x6B9A4, symSize: 0xD0 }
  - { offset: 0x1007F1, size: 0x8, addend: 0x0, symName: __ZN3std3sys7helpers14small_c_string24run_with_cstr_allocating17h8945d17fc8f7c02fE, symObjAddr: 0x18CE0, symBinAddr: 0x6BA74, symSize: 0xB4 }
  - { offset: 0x100A10, size: 0x8, addend: 0x0, symName: __ZN3std3sys7helpers14small_c_string24run_with_cstr_allocating17hac5bd5af9d4402a9E, symObjAddr: 0x18F0C, symBinAddr: 0x6BB28, symSize: 0xA4 }
  - { offset: 0x100C95, size: 0x8, addend: 0x0, symName: '__ZN3std3sys4sync8once_box16OnceBox$LT$T$GT$10initialize17h9f3ca06c0415f9ffE', symObjAddr: 0x18194, symBinAddr: 0x6B8C0, symSize: 0xE4 }
  - { offset: 0x100F53, size: 0x8, addend: 0x0, symName: '__ZN79_$LT$std..sys..sync..mutex..pthread..Mutex$u20$as$u20$core..ops..drop..Drop$GT$4drop17hb184857b72f27b3dE', symObjAddr: 0x494A8, symBinAddr: 0x581CC, symSize: 0x58 }
  - { offset: 0x1010A3, size: 0x8, addend: 0x0, symName: __ZN3std3sys4sync4once5queue4Once4call17h90cdeb873fe878e4E, symObjAddr: 0x175A8, symBinAddr: 0x6B640, symSize: 0x200 }
  - { offset: 0x101351, size: 0x8, addend: 0x0, symName: '__ZN82_$LT$std..sys..sync..once..queue..WaiterQueue$u20$as$u20$core..ops..drop..Drop$GT$4drop17hdb6e532e07f86a70E', symObjAddr: 0x4A554, symBinAddr: 0x58774, symSize: 0xDC }
  - { offset: 0x101545, size: 0x8, addend: 0x0, symName: __ZN3std3sys4sync4once5queue4wait17h2d025cd11154a2e8E, symObjAddr: 0x17974, symBinAddr: 0x43A38, symSize: 0x184 }
  - { offset: 0x101AB9, size: 0x8, addend: 0x0, symName: __ZN3std3sys4sync6rwlock5queue6RwLock12unlock_queue17hd1cbfe6db4460afaE, symObjAddr: 0x17B0C, symBinAddr: 0x43BBC, symSize: 0x1BC }
  - { offset: 0x102114, size: 0x8, addend: 0x0, symName: __ZN3std3sys4sync6rwlock5queue6RwLock16unlock_contended17h7d2c7f9cf3e62932E, symObjAddr: 0x17FC4, symBinAddr: 0x6B840, symSize: 0x40 }
  - { offset: 0x1021DB, size: 0x8, addend: 0x0, symName: __ZN3std3sys4sync6rwlock5queue6RwLock21read_unlock_contended17h1131540f0bb5eecaE, symObjAddr: 0x18004, symBinAddr: 0x6B880, symSize: 0x40 }
  - { offset: 0x1021F9, size: 0x8, addend: 0x0, symName: __ZN3std3sys4sync6rwlock5queue6RwLock21read_unlock_contended17h1131540f0bb5eecaE, symObjAddr: 0x18004, symBinAddr: 0x6B880, symSize: 0x40 }
  - { offset: 0x10220E, size: 0x8, addend: 0x0, symName: __ZN3std3sys4sync6rwlock5queue6RwLock21read_unlock_contended17h1131540f0bb5eecaE, symObjAddr: 0x18004, symBinAddr: 0x6B880, symSize: 0x40 }
  - { offset: 0x102431, size: 0x8, addend: 0x0, symName: '__ZN83_$LT$std..sys..sync..rwlock..queue..PanicGuard$u20$as$u20$core..ops..drop..Drop$GT$4drop17h2509f8616019adb9E', symObjAddr: 0x4A7D0, symBinAddr: 0x6F260, symSize: 0x30 }
  - { offset: 0x10246B, size: 0x8, addend: 0x0, symName: __ZN3std3sys4sync14thread_parking6darwin6Parker6unpark17h07dd20202619ec82E, symObjAddr: 0x17588, symBinAddr: 0x43A18, symSize: 0x20 }
  - { offset: 0x102482, size: 0x8, addend: 0x0, symName: __ZN3std3sys4sync14thread_parking6darwin6Parker6unpark17h07dd20202619ec82E, symObjAddr: 0x17588, symBinAddr: 0x43A18, symSize: 0x20 }
  - { offset: 0x102496, size: 0x8, addend: 0x0, symName: __ZN3std3sys4sync14thread_parking6darwin6Parker6unpark17h07dd20202619ec82E, symObjAddr: 0x17588, symBinAddr: 0x43A18, symSize: 0x20 }
  - { offset: 0x102518, size: 0x8, addend: 0x0, symName: '__ZN3std3sys11personality3gcc14find_eh_action28_$u7b$$u7b$closure$u7d$$u7d$17h26196c326510badeE', symObjAddr: 0xF1C0, symBinAddr: 0x42D40, symSize: 0xC }
  - { offset: 0x10252C, size: 0x8, addend: 0x0, symName: '__ZN3std3sys11personality3gcc14find_eh_action28_$u7b$$u7b$closure$u7d$$u7d$17h3beb1e892a771049E', symObjAddr: 0xF1CC, symBinAddr: 0x42D4C, symSize: 0xC }
  - { offset: 0x102575, size: 0x8, addend: 0x0, symName: _rust_eh_personality, symObjAddr: 0x4EA84, symBinAddr: 0x5BA18, symSize: 0x378 }
  - { offset: 0x102992, size: 0x8, addend: 0x0, symName: __ZN3std3sys11personality5dwarf2eh19read_encoded_offset17hb44de3678dfcb9deE, symObjAddr: 0xF1D8, symBinAddr: 0x42D58, symSize: 0x148 }
  - { offset: 0x102BA2, size: 0x8, addend: 0x0, symName: __ZN3std3sys6random19hashmap_random_keys17h1a938443d3db8f95E, symObjAddr: 0x184EC, symBinAddr: 0x43D78, symSize: 0x5C }
  - { offset: 0x102C15, size: 0x8, addend: 0x0, symName: '__ZN3std3sys9backtrace10_print_fmt28_$u7b$$u7b$closure$u7d$$u7d$17h1f0621b5a53d5f85E', symObjAddr: 0x1B9E8, symBinAddr: 0x43DD4, symSize: 0x24 }
  - { offset: 0x102C3E, size: 0x8, addend: 0x0, symName: '__ZN3std3sys9backtrace10_print_fmt28_$u7b$$u7b$closure$u7d$$u7d$17hc37f85308239e555E', symObjAddr: 0x1BA0C, symBinAddr: 0x43DF8, symSize: 0x134 }
  - { offset: 0x102D2A, size: 0x8, addend: 0x0, symName: '__ZN3std3sys9backtrace10_print_fmt28_$u7b$$u7b$closure$u7d$$u7d$28_$u7b$$u7b$closure$u7d$$u7d$17h67e6c19f21a372ceE', symObjAddr: 0x1BB40, symBinAddr: 0x43F2C, symSize: 0x244 }
  - { offset: 0x102F50, size: 0x8, addend: 0x0, symName: __ZN3std3sys9backtrace15output_filename17h89ac4fad3e23b255E, symObjAddr: 0x1BD84, symBinAddr: 0x44170, symSize: 0xE0 }
  - { offset: 0x103090, size: 0x8, addend: 0x0, symName: __ZN3std3sys9backtrace26__rust_end_short_backtrace17h7bea34f9056001eeE, symObjAddr: 0x1BE70, symBinAddr: 0x44250, symSize: 0xC }
  - { offset: 0x1030AA, size: 0x8, addend: 0x0, symName: __ZN3std3sys9backtrace26__rust_end_short_backtrace17h8a1ed24f129fbc3cE, symObjAddr: 0x1BE7C, symBinAddr: 0x6BBCC, symSize: 0xC }
  - { offset: 0x1030C4, size: 0x8, addend: 0x0, symName: __ZN3std3sys9backtrace4lock17h03d74a540edc4f8fE, symObjAddr: 0x1BE88, symBinAddr: 0x4425C, symSize: 0x70 }
  - { offset: 0x103243, size: 0x8, addend: 0x0, symName: '__ZN98_$LT$std..sys..backtrace..BacktraceLock..print..DisplayBacktrace$u20$as$u20$core..fmt..Display$GT$3fmt17hcde33371d8bba08bE', symObjAddr: 0x4C07C, symBinAddr: 0x5911C, symSize: 0x210 }
  - { offset: 0x103837, size: 0x8, addend: 0x0, symName: __RNvCs5QKde7ScR4H_7___rustc11___rdl_alloc, symObjAddr: 0x48, symBinAddr: 0x3B3E8, symSize: 0x6C }
  - { offset: 0x1038B5, size: 0x8, addend: 0x0, symName: __RNvCs5QKde7ScR4H_7___rustc13___rdl_dealloc, symObjAddr: 0xC0, symBinAddr: 0x3B454, symSize: 0x4 }
  - { offset: 0x1038D3, size: 0x8, addend: 0x0, symName: __RNvCs5QKde7ScR4H_7___rustc13___rdl_dealloc, symObjAddr: 0xC0, symBinAddr: 0x3B454, symSize: 0x4 }
  - { offset: 0x1038E6, size: 0x8, addend: 0x0, symName: __RNvCs5QKde7ScR4H_7___rustc13___rdl_realloc, symObjAddr: 0xC4, symBinAddr: 0x3B458, symSize: 0xB0 }
  - { offset: 0x1039BA, size: 0x8, addend: 0x0, symName: __RNvCs5QKde7ScR4H_7___rustc18___rdl_alloc_zeroed, symObjAddr: 0x2AC, symBinAddr: 0x3B640, symSize: 0x90 }
  - { offset: 0x103A5E, size: 0x8, addend: 0x0, symName: __RNvCs5QKde7ScR4H_7___rustc26___rust_alloc_error_handler, symObjAddr: 0x454, symBinAddr: 0x6B548, symSize: 0x18 }
  - { offset: 0x103AA7, size: 0x8, addend: 0x0, symName: __ZN3std5alloc24default_alloc_error_hook17h9a182e317a6d74b3E, symObjAddr: 0x1FAAC, symBinAddr: 0x44A7C, symSize: 0x108 }
  - { offset: 0x103B17, size: 0x8, addend: 0x0, symName: __ZN3std5alloc8rust_oom17h16d1fdb40ae7ee58E, symObjAddr: 0x1FBB4, symBinAddr: 0x6BBD8, symSize: 0x18 }
  - { offset: 0x103B37, size: 0x8, addend: 0x0, symName: '__ZN3std5alloc8rust_oom28_$u7b$$u7b$closure$u7d$$u7d$17h417972e13eb2d7fdE', symObjAddr: 0x1FBCC, symBinAddr: 0x6BBF0, symSize: 0x34 }
  - { offset: 0x103BFC, size: 0x8, addend: 0x0, symName: __ZN3std2io5error5Error3new17h341eaf0fe1742dcbE, symObjAddr: 0x9AAC, symBinAddr: 0x41E08, symSize: 0x110 }
  - { offset: 0x104085, size: 0x8, addend: 0x0, symName: '__ZN3std2io5error83_$LT$impl$u20$core..fmt..Debug$u20$for$u20$std..io..error..repr_bitpacked..Repr$GT$3fmt17h93747d36033c46a0E', symObjAddr: 0x9CB0, symBinAddr: 0x41F18, symSize: 0x280 }
  - { offset: 0x10431F, size: 0x8, addend: 0x0, symName: '__ZN58_$LT$std..io..error..Error$u20$as$u20$core..fmt..Debug$GT$3fmt17h5fb65499dcf44dccE', symObjAddr: 0x33F60, symBinAddr: 0x4FA98, symSize: 0x4 }
  - { offset: 0x104339, size: 0x8, addend: 0x0, symName: '__ZN60_$LT$std..io..error..Error$u20$as$u20$core..fmt..Display$GT$3fmt17ha78d75a637bbf1cbE', symObjAddr: 0x411AC, symBinAddr: 0x57168, symSize: 0x1A8 }
  - { offset: 0x1045B0, size: 0x8, addend: 0x0, symName: '__ZN62_$LT$std..io..error..ErrorKind$u20$as$u20$core..fmt..Debug$GT$3fmt17h571dc9b8c1218ec7E', symObjAddr: 0x43C18, symBinAddr: 0x576CC, symSize: 0x28 }
  - { offset: 0x1045EB, size: 0x8, addend: 0x0, symName: __ZN3std2io5Write18write_all_vectored17h48a271e9304484ffE, symObjAddr: 0x94D4, symBinAddr: 0x41890, symSize: 0x184 }
  - { offset: 0x1047EF, size: 0x8, addend: 0x0, symName: __ZN3std2io5Write9write_all17hda6aef687a819ad9E, symObjAddr: 0x9658, symBinAddr: 0x41A14, symSize: 0xAC }
  - { offset: 0x1048B2, size: 0x8, addend: 0x0, symName: __ZN3std2io5Write9write_fmt17h2fd0abc6933d662dE, symObjAddr: 0x9704, symBinAddr: 0x41AC0, symSize: 0x118 }
  - { offset: 0x104B8B, size: 0x8, addend: 0x0, symName: __ZN3std2io5Write9write_fmt17h6cb699b8eb2cfe97E, symObjAddr: 0x981C, symBinAddr: 0x41BD8, symSize: 0x118 }
  - { offset: 0x104E6B, size: 0x8, addend: 0x0, symName: __ZN3std2io5Write9write_fmt17hb9f59d39d99988fcE, symObjAddr: 0x9934, symBinAddr: 0x41CF0, symSize: 0x118 }
  - { offset: 0x105197, size: 0x8, addend: 0x0, symName: __ZN3std2io5stdio22try_set_output_capture17h5c607be6387df45bE, symObjAddr: 0xA440, symBinAddr: 0x425A4, symSize: 0xEC }
  - { offset: 0x105449, size: 0x8, addend: 0x0, symName: __ZN3std2io5stdio31print_to_buffer_if_capture_used17h199ca6a30200a367E, symObjAddr: 0xA608, symBinAddr: 0x42690, symSize: 0x214 }
  - { offset: 0x105BCF, size: 0x8, addend: 0x0, symName: __ZN3std2io5stdio6Stderr4lock17h21051cfacb1429daE, symObjAddr: 0xAA80, symBinAddr: 0x428A4, symSize: 0xE4 }
  - { offset: 0x105E77, size: 0x8, addend: 0x0, symName: __ZN3std2io5stdio7_eprint17he932b65433564ac5E, symObjAddr: 0xAC74, symBinAddr: 0x42988, symSize: 0xC0 }
  - { offset: 0x105EBB, size: 0x8, addend: 0x0, symName: '__ZN61_$LT$$RF$std..io..stdio..Stderr$u20$as$u20$std..io..Write$GT$9write_fmt17h9e4c828e3b68f8a3E', symObjAddr: 0x42254, symBinAddr: 0x57310, symSize: 0x184 }
  - { offset: 0x106345, size: 0x8, addend: 0x0, symName: '__ZN61_$LT$std..io..stdio..StderrLock$u20$as$u20$std..io..Write$GT$9write_all17h4a680c83359cc4daE', symObjAddr: 0x42B68, symBinAddr: 0x57494, symSize: 0x104 }
  - { offset: 0x1065FD, size: 0x8, addend: 0x0, symName: '__ZN3std2io5impls74_$LT$impl$u20$std..io..Write$u20$for$u20$alloc..vec..Vec$LT$u8$C$A$GT$$GT$14write_vectored17hcf8e9deba73a3a65E', symObjAddr: 0x9F30, symBinAddr: 0x42198, symSize: 0x184 }
  - { offset: 0x10684C, size: 0x8, addend: 0x0, symName: '__ZN3std2io5impls74_$LT$impl$u20$std..io..Write$u20$for$u20$alloc..vec..Vec$LT$u8$C$A$GT$$GT$17is_write_vectored17hb3366cd68b776629E', symObjAddr: 0xA0B4, symBinAddr: 0x4231C, symSize: 0x8 }
  - { offset: 0x106874, size: 0x8, addend: 0x0, symName: '__ZN3std2io5impls74_$LT$impl$u20$std..io..Write$u20$for$u20$alloc..vec..Vec$LT$u8$C$A$GT$$GT$18write_all_vectored17hab2a20d141de6caaE', symObjAddr: 0xA0BC, symBinAddr: 0x42324, symSize: 0x174 }
  - { offset: 0x106892, size: 0x8, addend: 0x0, symName: '__ZN3std2io5impls74_$LT$impl$u20$std..io..Write$u20$for$u20$alloc..vec..Vec$LT$u8$C$A$GT$$GT$18write_all_vectored17hab2a20d141de6caaE', symObjAddr: 0xA0BC, symBinAddr: 0x42324, symSize: 0x174 }
  - { offset: 0x1068A7, size: 0x8, addend: 0x0, symName: '__ZN3std2io5impls74_$LT$impl$u20$std..io..Write$u20$for$u20$alloc..vec..Vec$LT$u8$C$A$GT$$GT$18write_all_vectored17hab2a20d141de6caaE', symObjAddr: 0xA0BC, symBinAddr: 0x42324, symSize: 0x174 }
  - { offset: 0x1068BC, size: 0x8, addend: 0x0, symName: '__ZN3std2io5impls74_$LT$impl$u20$std..io..Write$u20$for$u20$alloc..vec..Vec$LT$u8$C$A$GT$$GT$18write_all_vectored17hab2a20d141de6caaE', symObjAddr: 0xA0BC, symBinAddr: 0x42324, symSize: 0x174 }
  - { offset: 0x1068D1, size: 0x8, addend: 0x0, symName: '__ZN3std2io5impls74_$LT$impl$u20$std..io..Write$u20$for$u20$alloc..vec..Vec$LT$u8$C$A$GT$$GT$18write_all_vectored17hab2a20d141de6caaE', symObjAddr: 0xA0BC, symBinAddr: 0x42324, symSize: 0x174 }
  - { offset: 0x1068E5, size: 0x8, addend: 0x0, symName: '__ZN3std2io5impls74_$LT$impl$u20$std..io..Write$u20$for$u20$alloc..vec..Vec$LT$u8$C$A$GT$$GT$18write_all_vectored17hab2a20d141de6caaE', symObjAddr: 0xA0BC, symBinAddr: 0x42324, symSize: 0x174 }
  - { offset: 0x106B18, size: 0x8, addend: 0x0, symName: '__ZN3std2io5impls74_$LT$impl$u20$std..io..Write$u20$for$u20$alloc..vec..Vec$LT$u8$C$A$GT$$GT$5flush17h023578fd24d8e882E', symObjAddr: 0xA230, symBinAddr: 0x42498, symSize: 0x8 }
  - { offset: 0x106B33, size: 0x8, addend: 0x0, symName: '__ZN3std2io5impls74_$LT$impl$u20$std..io..Write$u20$for$u20$alloc..vec..Vec$LT$u8$C$A$GT$$GT$5write17h4f2190924240fa52E', symObjAddr: 0xA238, symBinAddr: 0x424A0, symSize: 0x84 }
  - { offset: 0x106C78, size: 0x8, addend: 0x0, symName: '__ZN3std2io5impls74_$LT$impl$u20$std..io..Write$u20$for$u20$alloc..vec..Vec$LT$u8$C$A$GT$$GT$9write_all17h1873854fb2fc9c7cE', symObjAddr: 0xA2BC, symBinAddr: 0x42524, symSize: 0x80 }
  - { offset: 0x106ED8, size: 0x8, addend: 0x0, symName: '__ZN81_$LT$std..io..default_write_fmt..Adapter$LT$T$GT$$u20$as$u20$core..fmt..Write$GT$9write_str17h3a963f31b03b2ffaE', symObjAddr: 0x49A6C, symBinAddr: 0x58528, symSize: 0x80 }
  - { offset: 0x107024, size: 0x8, addend: 0x0, symName: '__ZN81_$LT$std..io..default_write_fmt..Adapter$LT$T$GT$$u20$as$u20$core..fmt..Write$GT$9write_str17h49117fbce3cacf2cE', symObjAddr: 0x49AEC, symBinAddr: 0x585A8, symSize: 0xD8 }
  - { offset: 0x10710A, size: 0x8, addend: 0x0, symName: '__ZN81_$LT$std..io..default_write_fmt..Adapter$LT$T$GT$$u20$as$u20$core..fmt..Write$GT$9write_str17h6ca3bce49463d649E', symObjAddr: 0x49BC4, symBinAddr: 0x58680, symSize: 0xA0 }
  - { offset: 0x107235, size: 0x8, addend: 0x0, symName: '__ZN81_$LT$std..io..default_write_fmt..Adapter$LT$T$GT$$u20$as$u20$core..fmt..Write$GT$9write_str17hd69001acd09b0077E', symObjAddr: 0x49D8C, symBinAddr: 0x58720, symSize: 0x50 }
  - { offset: 0x107298, size: 0x8, addend: 0x0, symName: __ZN3std7process5abort17h356e677792aaa82eE, symObjAddr: 0x2161C, symBinAddr: 0x6BDBC, symSize: 0xC }
  - { offset: 0x107367, size: 0x8, addend: 0x0, symName: __ZN3std4path4Path13_strip_prefix17he6c0dac5845936beE, symObjAddr: 0x1CCF4, symBinAddr: 0x44664, symSize: 0x21C }
  - { offset: 0x107476, size: 0x8, addend: 0x0, symName: __ZN3std4path4Path5_join17h44575178964eb91bE, symObjAddr: 0x1D5D4, symBinAddr: 0x44880, symSize: 0x184 }
  - { offset: 0x1079D9, size: 0x8, addend: 0x0, symName: __ZN3std4path10Components25parse_next_component_back17h820dd9f8984cdd82E, symObjAddr: 0x1BEF8, symBinAddr: 0x442CC, symSize: 0x160 }
  - { offset: 0x107B30, size: 0x8, addend: 0x0, symName: __ZN3std4path10Components7as_path17he74005186aef2d8fE, symObjAddr: 0x1C058, symBinAddr: 0x4442C, symSize: 0x238 }
  - { offset: 0x107D29, size: 0x8, addend: 0x0, symName: '__ZN61_$LT$std..path..Component$u20$as$u20$core..cmp..PartialEq$GT$2eq17hf43800806b87a6dcE', symObjAddr: 0x43448, symBinAddr: 0x57598, symSize: 0x134 }
  - { offset: 0x107E83, size: 0x8, addend: 0x0, symName: '__ZN80_$LT$std..path..Components$u20$as$u20$core..iter..traits..iterator..Iterator$GT$4next17hbcfca30053db8263E', symObjAddr: 0x49500, symBinAddr: 0x58224, symSize: 0x304 }
  - { offset: 0x107F81, size: 0x8, addend: 0x0, symName: '__ZN95_$LT$std..path..Components$u20$as$u20$core..iter..traits..double_ended..DoubleEndedIterator$GT$9next_back17h6c3cc2590cbbcd71E', symObjAddr: 0x4B8B0, symBinAddr: 0x58B58, symSize: 0x41C }
  - { offset: 0x1080DC, size: 0x8, addend: 0x0, symName: '__ZN126_$LT$std..thread..thread..thread_name_string..ThreadNameString$u20$as$u20$core..convert..From$LT$alloc..string..String$GT$$GT$4from17h5e636d9fac3a2e7cE', symObjAddr: 0xB28, symBinAddr: 0x3B7E8, symSize: 0x128 }
  - { offset: 0x10834B, size: 0x8, addend: 0x0, symName: __ZN3std6thread6thread6Thread3new17hcd84da917c050e20E, symObjAddr: 0x1FEE8, symBinAddr: 0x44CA0, symSize: 0x18C }
  - { offset: 0x108763, size: 0x8, addend: 0x0, symName: __ZN3std6thread5local18panic_access_error17ha141f03af8fa9523E, symObjAddr: 0x1FD9C, symBinAddr: 0x6BC50, symSize: 0x30 }
  - { offset: 0x108783, size: 0x8, addend: 0x0, symName: '__ZN68_$LT$std..thread..local..AccessError$u20$as$u20$core..fmt..Debug$GT$3fmt17h6a4d57c12dd29b08E', symObjAddr: 0x45DE0, symBinAddr: 0x578A4, symSize: 0x38 }
  - { offset: 0x1087BF, size: 0x8, addend: 0x0, symName: __ZN3std6thread9functions4park17h10b0d1a105a89f2dE, symObjAddr: 0x209B0, symBinAddr: 0x451DC, symSize: 0xC8 }
  - { offset: 0x1089F3, size: 0x8, addend: 0x0, symName: '__ZN76_$LT$std..thread..functions..PanicGuard$u20$as$u20$core..ops..drop..Drop$GT$4drop17h5861351d3795efc5E', symObjAddr: 0x47ED0, symBinAddr: 0x6F230, symSize: 0x30 }
  - { offset: 0x108AFC, size: 0x8, addend: 0x0, symName: '__ZN3std6thread7current17with_current_name28_$u7b$$u7b$closure$u7d$$u7d$17h62776a1255d052e2E', symObjAddr: 0x202C4, symBinAddr: 0x44E2C, symSize: 0x368 }
  - { offset: 0x109327, size: 0x8, addend: 0x0, symName: __ZN3std6thread7current12init_current17ha92fdd47b5360b8bE, symObjAddr: 0x20188, symBinAddr: 0x6BC80, symSize: 0x13C }
  - { offset: 0x1095F9, size: 0x8, addend: 0x0, symName: __ZN3std6thread7current7current17hdf38cc5826cd64c8E, symObjAddr: 0x206E8, symBinAddr: 0x45194, symSize: 0x48 }
  - { offset: 0x10972D, size: 0x8, addend: 0x0, symName: __ZN3std6thread2id8ThreadId3new9exhausted17h5bd4e83d32c0c452E, symObjAddr: 0x1FD7C, symBinAddr: 0x6BC30, symSize: 0x20 }
  - { offset: 0x109787, size: 0x8, addend: 0x0, symName: __ZN3std12backtrace_rs5print17BacktraceFrameFmt21print_raw_with_column17hbdaeb8e58ae70d92E, symObjAddr: 0xCD0, symBinAddr: 0x3B94C, symSize: 0x378 }
  - { offset: 0x109A5B, size: 0x8, addend: 0x0, symName: __ZN3std12backtrace_rs9backtrace9libunwind5trace8trace_fn17hd3b93af9109e0040E, symObjAddr: 0x1048, symBinAddr: 0x3BCC4, symSize: 0x48 }
  - { offset: 0x109B16, size: 0x8, addend: 0x0, symName: __ZN3std12backtrace_rs9symbolize5gimli4mmap17h94ef6f388d4f1a02E, symObjAddr: 0x1090, symBinAddr: 0x3BD0C, symSize: 0x1FC }
  - { offset: 0x10A0D0, size: 0x8, addend: 0x0, symName: __ZN3std12backtrace_rs9symbolize5gimli5macho11find_header17h10129ed1adcf63dbE, symObjAddr: 0x128C, symBinAddr: 0x3BF08, symSize: 0x1E4 }
  - { offset: 0x10A0ED, size: 0x8, addend: 0x0, symName: __ZN3std12backtrace_rs9symbolize5gimli5macho11find_header17h10129ed1adcf63dbE, symObjAddr: 0x128C, symBinAddr: 0x3BF08, symSize: 0x1E4 }
  - { offset: 0x10A101, size: 0x8, addend: 0x0, symName: __ZN3std12backtrace_rs9symbolize5gimli5macho11find_header17h10129ed1adcf63dbE, symObjAddr: 0x128C, symBinAddr: 0x3BF08, symSize: 0x1E4 }
  - { offset: 0x10A115, size: 0x8, addend: 0x0, symName: __ZN3std12backtrace_rs9symbolize5gimli5macho11find_header17h10129ed1adcf63dbE, symObjAddr: 0x128C, symBinAddr: 0x3BF08, symSize: 0x1E4 }
  - { offset: 0x10A129, size: 0x8, addend: 0x0, symName: __ZN3std12backtrace_rs9symbolize5gimli5macho11find_header17h10129ed1adcf63dbE, symObjAddr: 0x128C, symBinAddr: 0x3BF08, symSize: 0x1E4 }
  - { offset: 0x10A13E, size: 0x8, addend: 0x0, symName: __ZN3std12backtrace_rs9symbolize5gimli5macho11find_header17h10129ed1adcf63dbE, symObjAddr: 0x128C, symBinAddr: 0x3BF08, symSize: 0x1E4 }
  - { offset: 0x10A153, size: 0x8, addend: 0x0, symName: __ZN3std12backtrace_rs9symbolize5gimli5macho11find_header17h10129ed1adcf63dbE, symObjAddr: 0x128C, symBinAddr: 0x3BF08, symSize: 0x1E4 }
  - { offset: 0x10A852, size: 0x8, addend: 0x0, symName: __ZN3std12backtrace_rs9symbolize5gimli5macho6Object5parse17he3bcf04599ad628dE, symObjAddr: 0x1470, symBinAddr: 0x3C0EC, symSize: 0xC9C }
  - { offset: 0x10C76B, size: 0x8, addend: 0x0, symName: __ZN3std12backtrace_rs9symbolize5gimli5macho6Object7section17hf33b0ac23b7158f7E, symObjAddr: 0x210C, symBinAddr: 0x3CD88, symSize: 0x154 }
  - { offset: 0x10CB50, size: 0x8, addend: 0x0, symName: __ZN3std12backtrace_rs9symbolize5gimli7Context11find_frames17h771c3d5892c8a8edE, symObjAddr: 0x2260, symBinAddr: 0x3CEDC, symSize: 0x398 }
  - { offset: 0x10CF81, size: 0x8, addend: 0x0, symName: __ZN3std12backtrace_rs9symbolize5gimli7Context3new17h622bc4cbf1e80765E, symObjAddr: 0x25F8, symBinAddr: 0x3D274, symSize: 0x1EDC }
  - { offset: 0x11145D, size: 0x8, addend: 0x0, symName: __ZN3std12backtrace_rs9symbolize5gimli7resolve17h7bad3477dbd5ab0eE, symObjAddr: 0x44D4, symBinAddr: 0x3F150, symSize: 0x266C }
  - { offset: 0x1172C4, size: 0x8, addend: 0x0, symName: __ZN3std12backtrace_rs9symbolize6Symbol4name17heb933bb5f95f7f9eE, symObjAddr: 0x6B78, symBinAddr: 0x417BC, symSize: 0xD4 }
  - { offset: 0x117430, size: 0x8, addend: 0x0, symName: '__ZN79_$LT$std..backtrace_rs..symbolize..SymbolName$u20$as$u20$core..fmt..Display$GT$3fmt17ha1cfd259ccd5081fE', symObjAddr: 0x48CF8, symBinAddr: 0x580B4, symSize: 0x104 }
  - { offset: 0x117570, size: 0x8, addend: 0x0, symName: '__ZN75_$LT$std..fs..ReadDir$u20$as$u20$core..iter..traits..iterator..Iterator$GT$4next17hc076ff689a5d953dE', symObjAddr: 0x476E4, symBinAddr: 0x57F28, symSize: 0x18C }
  - { offset: 0x11796B, size: 0x8, addend: 0x0, symName: '__ZN64_$LT$std..ffi..os_str..Display$u20$as$u20$core..fmt..Display$GT$3fmt17h51d66dc022a65b98E', symObjAddr: 0x44D9C, symBinAddr: 0x57740, symSize: 0xAC }
  - { offset: 0x1179EE, size: 0x8, addend: 0x0, symName: '__ZN3std4sync6poison5mutex14Mutex$LT$T$GT$4lock17h95b64927eb0c74cfE', symObjAddr: 0x1F060, symBinAddr: 0x44A04, symSize: 0x78 }
  - { offset: 0x117CD9, size: 0x8, addend: 0x0, symName: __ZN3std5panic13resume_unwind17h1dc586ddfdb3e7f7E, symObjAddr: 0x1FC00, symBinAddr: 0x6BC24, symSize: 0xC }
  - { offset: 0x117D07, size: 0x8, addend: 0x0, symName: __ZN3std5panic19get_backtrace_style17h62b53c396a4f30bdE, symObjAddr: 0x1FC0C, symBinAddr: 0x44B84, symSize: 0x11C }
  - { offset: 0x117D25, size: 0x8, addend: 0x0, symName: __ZN3std5panic19get_backtrace_style17h62b53c396a4f30bdE, symObjAddr: 0x1FC0C, symBinAddr: 0x44B84, symSize: 0x11C }
  - { offset: 0x117D3A, size: 0x8, addend: 0x0, symName: __ZN3std5panic19get_backtrace_style17h62b53c396a4f30bdE, symObjAddr: 0x1FC0C, symBinAddr: 0x44B84, symSize: 0x11C }
  - { offset: 0x118280, size: 0x8, addend: 0x0, symName: __ZN3std3env11current_dir17ha7be4ecd1271f71fE, symObjAddr: 0xCA7C, symBinAddr: 0x42A48, symSize: 0x18C }
  - { offset: 0x1186F3, size: 0x8, addend: 0x0, symName: __ZN3std3env7_var_os17hb51c74bab3da1b8fE, symObjAddr: 0xCD74, symBinAddr: 0x42BD4, symSize: 0x16C }
  - { offset: 0x11A4CE, size: 0x8, addend: 0x0, symName: '__ZN4core3ptr107drop_in_place$LT$core..pin..Pin$LT$alloc..boxed..Box$LT$std..sys..pal..unix..sync..mutex..Mutex$GT$$GT$$GT$17h2df49b87d3e08e82E', symObjAddr: 0x24C8C, symBinAddr: 0x461C4, symSize: 0x2C }
  - { offset: 0x11A590, size: 0x8, addend: 0x0, symName: '__ZN4core3ptr109drop_in_place$LT$alloc..sync..Arc$LT$std..sync..poison..mutex..Mutex$LT$alloc..vec..Vec$LT$u8$GT$$GT$$GT$$GT$17h1a27d77d497c2e4cE', symObjAddr: 0x24CB8, symBinAddr: 0x461F0, symSize: 0x20 }
  - { offset: 0x11A5A7, size: 0x8, addend: 0x0, symName: '__ZN4core3ptr109drop_in_place$LT$alloc..sync..Arc$LT$std..sync..poison..mutex..Mutex$LT$alloc..vec..Vec$LT$u8$GT$$GT$$GT$$GT$17h1a27d77d497c2e4cE', symObjAddr: 0x24CB8, symBinAddr: 0x461F0, symSize: 0x20 }
  - { offset: 0x11A5BC, size: 0x8, addend: 0x0, symName: '__ZN4core3ptr109drop_in_place$LT$alloc..sync..Arc$LT$std..sync..poison..mutex..Mutex$LT$alloc..vec..Vec$LT$u8$GT$$GT$$GT$$GT$17h1a27d77d497c2e4cE', symObjAddr: 0x24CB8, symBinAddr: 0x461F0, symSize: 0x20 }
  - { offset: 0x11A5D1, size: 0x8, addend: 0x0, symName: '__ZN4core3ptr109drop_in_place$LT$alloc..sync..Arc$LT$std..sync..poison..mutex..Mutex$LT$alloc..vec..Vec$LT$u8$GT$$GT$$GT$$GT$17h1a27d77d497c2e4cE', symObjAddr: 0x24CB8, symBinAddr: 0x461F0, symSize: 0x20 }
  - { offset: 0x11A625, size: 0x8, addend: 0x0, symName: '__ZN4core3ptr119drop_in_place$LT$std..io..default_write_fmt..Adapter$LT$std..io..cursor..Cursor$LT$$RF$mut$u20$$u5b$u8$u5d$$GT$$GT$$GT$17h5d84935f2dab4fa4E', symObjAddr: 0x24D54, symBinAddr: 0x46210, symSize: 0x10 }
  - { offset: 0x11A63C, size: 0x8, addend: 0x0, symName: '__ZN4core3ptr119drop_in_place$LT$std..io..default_write_fmt..Adapter$LT$std..io..cursor..Cursor$LT$$RF$mut$u20$$u5b$u8$u5d$$GT$$GT$$GT$17h5d84935f2dab4fa4E', symObjAddr: 0x24D54, symBinAddr: 0x46210, symSize: 0x10 }
  - { offset: 0x11A64F, size: 0x8, addend: 0x0, symName: '__ZN4core3ptr123drop_in_place$LT$addr2line..Context$LT$gimli..read..endian_slice..EndianSlice$LT$gimli..endianity..LittleEndian$GT$$GT$$GT$17hf39a22d4deac0acfE', symObjAddr: 0x24D64, symBinAddr: 0x46220, symSize: 0x70 }
  - { offset: 0x11A755, size: 0x8, addend: 0x0, symName: '__ZN4core3ptr129drop_in_place$LT$addr2line..unit..ResUnit$LT$gimli..read..endian_slice..EndianSlice$LT$gimli..endianity..LittleEndian$GT$$GT$$GT$17h8f5e828f1982fd36E', symObjAddr: 0x24F1C, symBinAddr: 0x46290, symSize: 0xE4 }
  - { offset: 0x11A973, size: 0x8, addend: 0x0, symName: '__ZN4core3ptr129drop_in_place$LT$addr2line..unit..SupUnit$LT$gimli..read..endian_slice..EndianSlice$LT$gimli..endianity..LittleEndian$GT$$GT$$GT$17h500d1bfb3690b988E', symObjAddr: 0x25000, symBinAddr: 0x46374, symSize: 0x54 }
  - { offset: 0x11AA31, size: 0x8, addend: 0x0, symName: '__ZN4core3ptr130drop_in_place$LT$addr2line..unit..ResUnits$LT$gimli..read..endian_slice..EndianSlice$LT$gimli..endianity..LittleEndian$GT$$GT$$GT$17h8a1c47b37cff57e6E', symObjAddr: 0x25054, symBinAddr: 0x463C8, symSize: 0xD0 }
  - { offset: 0x11AC57, size: 0x8, addend: 0x0, symName: '__ZN4core3ptr130drop_in_place$LT$addr2line..unit..SupUnits$LT$gimli..read..endian_slice..EndianSlice$LT$gimli..endianity..LittleEndian$GT$$GT$$GT$17hfeb69d9bfa4a9266E', symObjAddr: 0x25124, symBinAddr: 0x46498, symSize: 0xE4 }
  - { offset: 0x11AE5D, size: 0x8, addend: 0x0, symName: '__ZN4core3ptr130drop_in_place$LT$gimli..read..dwarf..Dwarf$LT$gimli..read..endian_slice..EndianSlice$LT$gimli..endianity..LittleEndian$GT$$GT$$GT$17h7c37341b5293d04eE', symObjAddr: 0x25208, symBinAddr: 0x4657C, symSize: 0x58 }
  - { offset: 0x11AEF3, size: 0x8, addend: 0x0, symName: '__ZN4core3ptr131drop_in_place$LT$$u5b$core..option..Option$LT$core..option..Option$LT$std..backtrace_rs..symbolize..gimli..Mapping$GT$$GT$$u5d$$GT$17hd87b4441aab0cc00E', symObjAddr: 0x25260, symBinAddr: 0x465D4, symSize: 0xCC }
  - { offset: 0x11AF9D, size: 0x8, addend: 0x0, symName: '__ZN4core3ptr137drop_in_place$LT$gimli..read..dwarf..Unit$LT$gimli..read..endian_slice..EndianSlice$LT$gimli..endianity..LittleEndian$GT$$C$usize$GT$$GT$17hf44d2a6966a873f6E', symObjAddr: 0x2532C, symBinAddr: 0x466A0, symSize: 0x54 }
  - { offset: 0x11B093, size: 0x8, addend: 0x0, symName: '__ZN4core3ptr138drop_in_place$LT$addr2line..function..LazyFunction$LT$gimli..read..endian_slice..EndianSlice$LT$gimli..endianity..LittleEndian$GT$$GT$$GT$17ha4d59f5b4eba1420E', symObjAddr: 0x25380, symBinAddr: 0x466F4, symSize: 0x64 }
  - { offset: 0x11B0AA, size: 0x8, addend: 0x0, symName: '__ZN4core3ptr138drop_in_place$LT$addr2line..function..LazyFunction$LT$gimli..read..endian_slice..EndianSlice$LT$gimli..endianity..LittleEndian$GT$$GT$$GT$17ha4d59f5b4eba1420E', symObjAddr: 0x25380, symBinAddr: 0x466F4, symSize: 0x64 }
  - { offset: 0x11B0BF, size: 0x8, addend: 0x0, symName: '__ZN4core3ptr138drop_in_place$LT$addr2line..function..LazyFunction$LT$gimli..read..endian_slice..EndianSlice$LT$gimli..endianity..LittleEndian$GT$$GT$$GT$17ha4d59f5b4eba1420E', symObjAddr: 0x25380, symBinAddr: 0x466F4, symSize: 0x64 }
  - { offset: 0x11B0D4, size: 0x8, addend: 0x0, symName: '__ZN4core3ptr138drop_in_place$LT$addr2line..function..LazyFunction$LT$gimli..read..endian_slice..EndianSlice$LT$gimli..endianity..LittleEndian$GT$$GT$$GT$17ha4d59f5b4eba1420E', symObjAddr: 0x25380, symBinAddr: 0x466F4, symSize: 0x64 }
  - { offset: 0x11B25E, size: 0x8, addend: 0x0, symName: '__ZN4core3ptr144drop_in_place$LT$alloc..vec..Vec$LT$core..option..Option$LT$core..option..Option$LT$std..backtrace_rs..symbolize..gimli..Mapping$GT$$GT$$GT$$GT$17he4b9c6024a582bf2E', symObjAddr: 0x253E4, symBinAddr: 0x46758, symSize: 0x78 }
  - { offset: 0x11B40E, size: 0x8, addend: 0x0, symName: '__ZN4core3ptr152drop_in_place$LT$alloc..vec..Vec$LT$addr2line..unit..ResUnit$LT$gimli..read..endian_slice..EndianSlice$LT$gimli..endianity..LittleEndian$GT$$GT$$GT$$GT$17h18a8b266d2222173E', symObjAddr: 0x25518, symBinAddr: 0x467D0, symSize: 0xC4 }
  - { offset: 0x11B5D1, size: 0x8, addend: 0x0, symName: '__ZN4core3ptr152drop_in_place$LT$alloc..vec..Vec$LT$addr2line..unit..SupUnit$LT$gimli..read..endian_slice..EndianSlice$LT$gimli..endianity..LittleEndian$GT$$GT$$GT$$GT$17haa029dd48deb3ebaE', symObjAddr: 0x255DC, symBinAddr: 0x46894, symSize: 0xF4 }
  - { offset: 0x11B83E, size: 0x8, addend: 0x0, symName: '__ZN4core3ptr152drop_in_place$LT$core..result..Result$LT$$RF$std..thread..thread..Thread$C$$LP$$RF$std..thread..thread..Thread$C$std..thread..thread..Thread$RP$$GT$$GT$17h18759a1374e55b00E', symObjAddr: 0x256D0, symBinAddr: 0x46988, symSize: 0x28 }
  - { offset: 0x11B932, size: 0x8, addend: 0x0, symName: '__ZN4core3ptr154drop_in_place$LT$alloc..boxed..Box$LT$dyn$u20$core..ops..function..FnOnce$LT$$LP$$RP$$GT$$u2b$Output$u20$$u3d$$u20$$LP$$RP$$u2b$core..marker..Send$GT$$GT$17hdc8c3818156ac0e9E', symObjAddr: 0x256F8, symBinAddr: 0x469B0, symSize: 0x78 }
  - { offset: 0x11BA80, size: 0x8, addend: 0x0, symName: '__ZN4core3ptr156drop_in_place$LT$alloc..boxed..Box$LT$$u5b$core..option..Option$LT$core..option..Option$LT$std..backtrace_rs..symbolize..gimli..Mapping$GT$$GT$$u5d$$GT$$GT$17hb6c3b22c784a7231E', symObjAddr: 0x25770, symBinAddr: 0x46A28, symSize: 0xF8 }
  - { offset: 0x11BBFE, size: 0x8, addend: 0x0, symName: '__ZN4core3ptr159drop_in_place$LT$alloc..sync..ArcInner$LT$gimli..read..dwarf..Dwarf$LT$gimli..read..endian_slice..EndianSlice$LT$gimli..endianity..LittleEndian$GT$$GT$$GT$$GT$17hc766f40eab1f7b4fE', symObjAddr: 0x258E4, symBinAddr: 0x46B20, symSize: 0x5C }
  - { offset: 0x11BCC0, size: 0x8, addend: 0x0, symName: '__ZN4core3ptr161drop_in_place$LT$alloc..vec..Vec$LT$addr2line..function..LazyFunction$LT$gimli..read..endian_slice..EndianSlice$LT$gimli..endianity..LittleEndian$GT$$GT$$GT$$GT$17h505e9c807ceae37bE', symObjAddr: 0x25940, symBinAddr: 0x46B7C, symSize: 0xAC }
  - { offset: 0x11BF7D, size: 0x8, addend: 0x0, symName: '__ZN4core3ptr173drop_in_place$LT$alloc..boxed..Box$LT$$u5b$addr2line..function..LazyFunction$LT$gimli..read..endian_slice..EndianSlice$LT$gimli..endianity..LittleEndian$GT$$GT$$u5d$$GT$$GT$17h29a7edcd8288108bE', symObjAddr: 0x25A98, symBinAddr: 0x46C28, symSize: 0x9C }
  - { offset: 0x11BF94, size: 0x8, addend: 0x0, symName: '__ZN4core3ptr173drop_in_place$LT$alloc..boxed..Box$LT$$u5b$addr2line..function..LazyFunction$LT$gimli..read..endian_slice..EndianSlice$LT$gimli..endianity..LittleEndian$GT$$GT$$u5d$$GT$$GT$17h29a7edcd8288108bE', symObjAddr: 0x25A98, symBinAddr: 0x46C28, symSize: 0x9C }
  - { offset: 0x11C1EA, size: 0x8, addend: 0x0, symName: '__ZN4core3ptr181drop_in_place$LT$core..option..Option$LT$gimli..read..line..IncompleteLineProgram$LT$gimli..read..endian_slice..EndianSlice$LT$gimli..endianity..LittleEndian$GT$$C$usize$GT$$GT$$GT$17h3df05a09ff9eb616E', symObjAddr: 0x25BA4, symBinAddr: 0x46CC4, symSize: 0x98 }
  - { offset: 0x11C4EF, size: 0x8, addend: 0x0, symName: '__ZN4core3ptr181drop_in_place$LT$core..result..Result$LT$addr2line..frame..FrameIter$LT$gimli..read..endian_slice..EndianSlice$LT$gimli..endianity..LittleEndian$GT$$GT$$C$gimli..read..Error$GT$$GT$17h0baa502b63bc3f2fE', symObjAddr: 0x25C3C, symBinAddr: 0x46D5C, symSize: 0x34 }
  - { offset: 0x11C655, size: 0x8, addend: 0x0, symName: '__ZN4core3ptr184drop_in_place$LT$core..result..Result$LT$addr2line..function..Functions$LT$gimli..read..endian_slice..EndianSlice$LT$gimli..endianity..LittleEndian$GT$$GT$$C$gimli..read..Error$GT$$GT$17h233998975e718504E', symObjAddr: 0x25C70, symBinAddr: 0x46D90, symSize: 0xD8 }
  - { offset: 0x11C9B8, size: 0x8, addend: 0x0, symName: '__ZN4core3ptr231drop_in_place$LT$core..result..Result$LT$core..option..Option$LT$alloc..boxed..Box$LT$addr2line..unit..DwoUnit$LT$gimli..read..endian_slice..EndianSlice$LT$gimli..endianity..LittleEndian$GT$$GT$$GT$$GT$$C$gimli..read..Error$GT$$GT$17h488d06a2dc977f62E', symObjAddr: 0x25E08, symBinAddr: 0x46E68, symSize: 0xD4 }
  - { offset: 0x11CBD9, size: 0x8, addend: 0x0, symName: '__ZN4core3ptr238drop_in_place$LT$alloc..boxed..convert..$LT$impl$u20$core..convert..From$LT$alloc..string..String$GT$$u20$for$u20$alloc..boxed..Box$LT$dyn$u20$core..error..Error$u2b$core..marker..Sync$u2b$core..marker..Send$GT$$GT$..from..StringError$GT$17hab70380e782b1eceE', symObjAddr: 0x25EDC, symBinAddr: 0x46F3C, symSize: 0x18 }
  - { offset: 0x11CBF0, size: 0x8, addend: 0x0, symName: '__ZN4core3ptr238drop_in_place$LT$alloc..boxed..convert..$LT$impl$u20$core..convert..From$LT$alloc..string..String$GT$$u20$for$u20$alloc..boxed..Box$LT$dyn$u20$core..error..Error$u2b$core..marker..Sync$u2b$core..marker..Send$GT$$GT$..from..StringError$GT$17hab70380e782b1eceE', symObjAddr: 0x25EDC, symBinAddr: 0x46F3C, symSize: 0x18 }
  - { offset: 0x11CC05, size: 0x8, addend: 0x0, symName: '__ZN4core3ptr238drop_in_place$LT$alloc..boxed..convert..$LT$impl$u20$core..convert..From$LT$alloc..string..String$GT$$u20$for$u20$alloc..boxed..Box$LT$dyn$u20$core..error..Error$u2b$core..marker..Sync$u2b$core..marker..Send$GT$$GT$..from..StringError$GT$17hab70380e782b1eceE', symObjAddr: 0x25EDC, symBinAddr: 0x46F3C, symSize: 0x18 }
  - { offset: 0x11CCAF, size: 0x8, addend: 0x0, symName: '__ZN4core3ptr275drop_in_place$LT$gimli..read..line..LineRows$LT$gimli..read..endian_slice..EndianSlice$LT$gimli..endianity..LittleEndian$GT$$C$gimli..read..line..IncompleteLineProgram$LT$gimli..read..endian_slice..EndianSlice$LT$gimli..endianity..LittleEndian$GT$$C$usize$GT$$C$usize$GT$$GT$17h0131afaeb5f79ec2E', symObjAddr: 0x25F38, symBinAddr: 0x46F54, symSize: 0x8C }
  - { offset: 0x11CFCE, size: 0x8, addend: 0x0, symName: '__ZN4core3ptr280drop_in_place$LT$$LT$alloc..collections..btree..map..IntoIter$LT$K$C$V$C$A$GT$$u20$as$u20$core..ops..drop..Drop$GT$..drop..DropGuard$LT$u64$C$core..result..Result$LT$alloc..sync..Arc$LT$gimli..read..abbrev..Abbreviations$GT$$C$gimli..read..Error$GT$$C$alloc..alloc..Global$GT$$GT$17h886aec1819de5f5cE', symObjAddr: 0x25FC4, symBinAddr: 0x46FE0, symSize: 0x84 }
  - { offset: 0x11D13D, size: 0x8, addend: 0x0, symName: '__ZN4core3ptr284drop_in_place$LT$core..result..Result$LT$$RF$core..result..Result$LT$addr2line..line..Lines$C$gimli..read..Error$GT$$C$$LP$$RF$core..result..Result$LT$addr2line..line..Lines$C$gimli..read..Error$GT$$C$core..result..Result$LT$addr2line..line..Lines$C$gimli..read..Error$GT$$RP$$GT$$GT$17he331a935851f963bE', symObjAddr: 0x26048, symBinAddr: 0x47064, symSize: 0x10 }
  - { offset: 0x11D16E, size: 0x8, addend: 0x0, symName: '__ZN4core3ptr42drop_in_place$LT$alloc..string..String$GT$17h38ea6ff68a2f6dd3E', symObjAddr: 0x261EC, symBinAddr: 0x47074, symSize: 0x18 }
  - { offset: 0x11D185, size: 0x8, addend: 0x0, symName: '__ZN4core3ptr42drop_in_place$LT$alloc..string..String$GT$17h38ea6ff68a2f6dd3E', symObjAddr: 0x261EC, symBinAddr: 0x47074, symSize: 0x18 }
  - { offset: 0x11D22E, size: 0x8, addend: 0x0, symName: '__ZN4core3ptr42drop_in_place$LT$std..io..error..Error$GT$17hb47a842e9535d8eaE', symObjAddr: 0x26204, symBinAddr: 0x4708C, symSize: 0xAC }
  - { offset: 0x11D4BE, size: 0x8, addend: 0x0, symName: '__ZN4core3ptr44drop_in_place$LT$object..read..ObjectMap$GT$17h103a96db4b91fe12E', symObjAddr: 0x262B0, symBinAddr: 0x47138, symSize: 0x58 }
  - { offset: 0x11D643, size: 0x8, addend: 0x0, symName: '__ZN4core3ptr46drop_in_place$LT$alloc..vec..Vec$LT$u8$GT$$GT$17ha092ea97ee9688bbE', symObjAddr: 0x263C8, symBinAddr: 0x47190, symSize: 0x18 }
  - { offset: 0x11D6ED, size: 0x8, addend: 0x0, symName: '__ZN4core3ptr46drop_in_place$LT$std..io..stdio..StdinLock$GT$17hda3059dbbe9b9703E', symObjAddr: 0x263E0, symBinAddr: 0x471A8, symSize: 0x54 }
  - { offset: 0x11D704, size: 0x8, addend: 0x0, symName: '__ZN4core3ptr46drop_in_place$LT$std..io..stdio..StdinLock$GT$17hda3059dbbe9b9703E', symObjAddr: 0x263E0, symBinAddr: 0x471A8, symSize: 0x54 }
  - { offset: 0x11D719, size: 0x8, addend: 0x0, symName: '__ZN4core3ptr46drop_in_place$LT$std..io..stdio..StdinLock$GT$17hda3059dbbe9b9703E', symObjAddr: 0x263E0, symBinAddr: 0x471A8, symSize: 0x54 }
  - { offset: 0x11D7FB, size: 0x8, addend: 0x0, symName: '__ZN4core3ptr48drop_in_place$LT$alloc..ffi..c_str..NulError$GT$17h8df9e7e666a443fdE', symObjAddr: 0x26518, symBinAddr: 0x471FC, symSize: 0x18 }
  - { offset: 0x11D812, size: 0x8, addend: 0x0, symName: '__ZN4core3ptr48drop_in_place$LT$alloc..ffi..c_str..NulError$GT$17h8df9e7e666a443fdE', symObjAddr: 0x26518, symBinAddr: 0x471FC, symSize: 0x18 }
  - { offset: 0x11D8C8, size: 0x8, addend: 0x0, symName: '__ZN4core3ptr557drop_in_place$LT$core..result..Result$LT$$RF$core..result..Result$LT$addr2line..function..Function$LT$gimli..read..endian_slice..EndianSlice$LT$gimli..endianity..LittleEndian$GT$$GT$$C$gimli..read..Error$GT$$C$$LP$$RF$core..result..Result$LT$addr2line..function..Function$LT$gimli..read..endian_slice..EndianSlice$LT$gimli..endianity..LittleEndian$GT$$GT$$C$gimli..read..Error$GT$$C$core..result..Result$LT$addr2line..function..Function$LT$gimli..read..endian_slice..EndianSlice$LT$gimli..endianity..LittleEndian$GT$$GT$$C$gimli..read..Error$GT$$RP$$GT$$GT$17haf2a8d06e6e1748dE', symObjAddr: 0x267FC, symBinAddr: 0x47214, symSize: 0x64 }
  - { offset: 0x11DAFD, size: 0x8, addend: 0x0, symName: '__ZN4core3ptr55drop_in_place$LT$gimli..read..abbrev..Abbreviations$GT$17h467a83f64a5cda7bE', symObjAddr: 0x26860, symBinAddr: 0x47278, symSize: 0x118 }
  - { offset: 0x11DEE0, size: 0x8, addend: 0x0, symName: '__ZN4core3ptr560drop_in_place$LT$core..result..Result$LT$$RF$core..result..Result$LT$addr2line..function..Functions$LT$gimli..read..endian_slice..EndianSlice$LT$gimli..endianity..LittleEndian$GT$$GT$$C$gimli..read..Error$GT$$C$$LP$$RF$core..result..Result$LT$addr2line..function..Functions$LT$gimli..read..endian_slice..EndianSlice$LT$gimli..endianity..LittleEndian$GT$$GT$$C$gimli..read..Error$GT$$C$core..result..Result$LT$addr2line..function..Functions$LT$gimli..read..endian_slice..EndianSlice$LT$gimli..endianity..LittleEndian$GT$$GT$$C$gimli..read..Error$GT$$RP$$GT$$GT$17h78a57019e46b5f10E', symObjAddr: 0x269FC, symBinAddr: 0x47390, symSize: 0x10 }
  - { offset: 0x11DF38, size: 0x8, addend: 0x0, symName: '__ZN4core3ptr60drop_in_place$LT$gimli..read..abbrev..AbbreviationsCache$GT$17ha8930bb3c16fd23fE', symObjAddr: 0x26A0C, symBinAddr: 0x473A0, symSize: 0xCC }
  - { offset: 0x11E0E3, size: 0x8, addend: 0x0, symName: '__ZN4core3ptr61drop_in_place$LT$std..panicking..resume_unwind..RewrapBox$GT$17hcc2785daaffec95aE', symObjAddr: 0x26AD8, symBinAddr: 0x4746C, symSize: 0x6C }
  - { offset: 0x11E232, size: 0x8, addend: 0x0, symName: '__ZN4core3ptr64drop_in_place$LT$std..sys..pal..unix..sync..mutex..AttrGuard$GT$17hf7f9c82cf23e8a3fE', symObjAddr: 0x26B44, symBinAddr: 0x474D8, symSize: 0x44 }
  - { offset: 0x11E26E, size: 0x8, addend: 0x0, symName: '__ZN4core3ptr65drop_in_place$LT$alloc..vec..Vec$LT$alloc..string..String$GT$$GT$17h5da31a873ae8dba7E', symObjAddr: 0x26C00, symBinAddr: 0x4751C, symSize: 0x80 }
  - { offset: 0x11E435, size: 0x8, addend: 0x0, symName: '__ZN4core3ptr65drop_in_place$LT$std..backtrace_rs..symbolize..gimli..Context$GT$17h34cca4caf72d8866E', symObjAddr: 0x26C80, symBinAddr: 0x4759C, symSize: 0xE8 }
  - { offset: 0x11E748, size: 0x8, addend: 0x0, symName: '__ZN4core3ptr66drop_in_place$LT$std..backtrace_rs..backtrace..libunwind..Bomb$GT$17ha91bd52f658fe1d7E', symObjAddr: 0x26D6C, symBinAddr: 0x47684, symSize: 0x28 }
  - { offset: 0x11E77E, size: 0x8, addend: 0x0, symName: '__ZN4core3ptr701drop_in_place$LT$core..result..Result$LT$$RF$core..result..Result$LT$core..option..Option$LT$alloc..boxed..Box$LT$addr2line..unit..DwoUnit$LT$gimli..read..endian_slice..EndianSlice$LT$gimli..endianity..LittleEndian$GT$$GT$$GT$$GT$$C$gimli..read..Error$GT$$C$$LP$$RF$core..result..Result$LT$core..option..Option$LT$alloc..boxed..Box$LT$addr2line..unit..DwoUnit$LT$gimli..read..endian_slice..EndianSlice$LT$gimli..endianity..LittleEndian$GT$$GT$$GT$$GT$$C$gimli..read..Error$GT$$C$core..result..Result$LT$core..option..Option$LT$alloc..boxed..Box$LT$addr2line..unit..DwoUnit$LT$gimli..read..endian_slice..EndianSlice$LT$gimli..endianity..LittleEndian$GT$$GT$$GT$$GT$$C$gimli..read..Error$GT$$RP$$GT$$GT$17hb5914df5ecaf4418E', symObjAddr: 0x26D94, symBinAddr: 0x476AC, symSize: 0x14 }
  - { offset: 0x11E817, size: 0x8, addend: 0x0, symName: '__ZN4core3ptr70drop_in_place$LT$std..backtrace_rs..symbolize..gimli..stash..Stash$GT$17hb592c439c896e374E', symObjAddr: 0x26E28, symBinAddr: 0x476C0, symSize: 0xB8 }
  - { offset: 0x11EB3C, size: 0x8, addend: 0x0, symName: '__ZN4core3ptr71drop_in_place$LT$std..backtrace_rs..symbolize..gimli..macho..Object$GT$17h2ca17ded4074048eE', symObjAddr: 0x26EE0, symBinAddr: 0x47778, symSize: 0xD8 }
  - { offset: 0x11EED8, size: 0x8, addend: 0x0, symName: '__ZN4core3ptr71drop_in_place$LT$std..panicking..panic_handler..FormatStringPayload$GT$17h0901b0d590f03152E', symObjAddr: 0x26FB8, symBinAddr: 0x47850, symSize: 0x1C }
  - { offset: 0x11EFBF, size: 0x8, addend: 0x0, symName: '__ZN4core3ptr72drop_in_place$LT$core..option..Option$LT$object..read..ObjectMap$GT$$GT$17h3a9d8e00e9891a9bE', symObjAddr: 0x26FD4, symBinAddr: 0x4786C, symSize: 0x64 }
  - { offset: 0x11F18E, size: 0x8, addend: 0x0, symName: '__ZN4core3ptr73drop_in_place$LT$alloc..vec..Vec$LT$addr2line..line..LineSequence$GT$$GT$17h0172abfa4ac0edebE', symObjAddr: 0x27038, symBinAddr: 0x478D0, symSize: 0x84 }
  - { offset: 0x11F33C, size: 0x8, addend: 0x0, symName: '__ZN4core3ptr77drop_in_place$LT$alloc..boxed..Box$LT$$u5b$alloc..string..String$u5d$$GT$$GT$17haf832d073508a4aaE', symObjAddr: 0x270F4, symBinAddr: 0x47954, symSize: 0x70 }
  - { offset: 0x11F353, size: 0x8, addend: 0x0, symName: '__ZN4core3ptr77drop_in_place$LT$alloc..boxed..Box$LT$$u5b$alloc..string..String$u5d$$GT$$GT$17haf832d073508a4aaE', symObjAddr: 0x270F4, symBinAddr: 0x47954, symSize: 0x70 }
  - { offset: 0x11F4A6, size: 0x8, addend: 0x0, symName: '__ZN4core3ptr79drop_in_place$LT$std..sync..poison..rwlock..RwLockReadGuard$LT$$LP$$RP$$GT$$GT$17h091e15822ffc9edbE', symObjAddr: 0x27194, symBinAddr: 0x479C4, symSize: 0x58 }
  - { offset: 0x11F540, size: 0x8, addend: 0x0, symName: '__ZN4core3ptr81drop_in_place$LT$core..result..Result$LT$$LP$$RP$$C$std..io..error..Error$GT$$GT$17h814d80e6c8b246c2E', symObjAddr: 0x27298, symBinAddr: 0x47A1C, symSize: 0x10 }
  - { offset: 0x11F56E, size: 0x8, addend: 0x0, symName: '__ZN4core3ptr82drop_in_place$LT$alloc..sync..ArcInner$LT$std..sys..fs..unix..InnerReadDir$GT$$GT$17h064c76c66badd045E', symObjAddr: 0x2737C, symBinAddr: 0x47A2C, symSize: 0x60 }
  - { offset: 0x11F78E, size: 0x8, addend: 0x0, symName: '__ZN4core3ptr92drop_in_place$LT$core..result..Result$LT$addr2line..line..Lines$C$gimli..read..Error$GT$$GT$17hc66e02df388e03ecE', symObjAddr: 0x27510, symBinAddr: 0x47A8C, symSize: 0xE4 }
  - { offset: 0x11FA7F, size: 0x8, addend: 0x0, symName: '__ZN4core3ptr93drop_in_place$LT$core..option..Option$LT$std..backtrace_rs..symbolize..gimli..Mapping$GT$$GT$17ha173ce148f3cf6eaE', symObjAddr: 0x275F4, symBinAddr: 0x47B70, symSize: 0x6C }
  - { offset: 0x121B71, size: 0x8, addend: 0x0, symName: __ZN4core5slice4sort8unstable7ipnsort17ha8a643003d62ef22E, symObjAddr: 0x31014, symBinAddr: 0x4E744, symSize: 0x1A8 }
  - { offset: 0x121E3B, size: 0x8, addend: 0x0, symName: __ZN4core5slice4sort8unstable7ipnsort17hfe78c4a2b765fcc9E, symObjAddr: 0x311BC, symBinAddr: 0x4E8EC, symSize: 0xEC }
  - { offset: 0x121F92, size: 0x8, addend: 0x0, symName: __ZN4core5slice4sort8unstable8heapsort8heapsort17h573befcd8eda61e5E, symObjAddr: 0x312A8, symBinAddr: 0x4E9D8, symSize: 0x160 }
  - { offset: 0x1222A2, size: 0x8, addend: 0x0, symName: __ZN4core5slice4sort8unstable8heapsort8heapsort17hdca824869f99829bE, symObjAddr: 0x31408, symBinAddr: 0x4EB38, symSize: 0x100 }
  - { offset: 0x122532, size: 0x8, addend: 0x0, symName: __ZN4core5slice4sort8unstable9quicksort9quicksort17h3638ec32060f422fE, symObjAddr: 0x31508, symBinAddr: 0x4EC38, symSize: 0x500 }
  - { offset: 0x122FDC, size: 0x8, addend: 0x0, symName: __ZN4core5slice4sort8unstable9quicksort9quicksort17h6f43a7e4639d7d90E, symObjAddr: 0x31A08, symBinAddr: 0x4F138, symSize: 0x3D8 }
  - { offset: 0x12379B, size: 0x8, addend: 0x0, symName: __ZN4core5slice4sort6stable14driftsort_main17h2b43a4226b91abb0E, symObjAddr: 0x2BD34, symBinAddr: 0x49464, symSize: 0x150 }
  - { offset: 0x123B36, size: 0x8, addend: 0x0, symName: __ZN4core5slice4sort6stable14driftsort_main17h61a17d40716aa9c6E, symObjAddr: 0x2BE84, symBinAddr: 0x495B4, symSize: 0x124 }
  - { offset: 0x123EB1, size: 0x8, addend: 0x0, symName: __ZN4core5slice4sort6stable14driftsort_main17h8f5e0d127f8c5934E, symObjAddr: 0x2BFA8, symBinAddr: 0x496D8, symSize: 0x124 }
  - { offset: 0x12422C, size: 0x8, addend: 0x0, symName: __ZN4core5slice4sort6stable14driftsort_main17hb1e3406f075f1867E, symObjAddr: 0x2C0CC, symBinAddr: 0x497FC, symSize: 0x124 }
  - { offset: 0x1245A7, size: 0x8, addend: 0x0, symName: __ZN4core5slice4sort6stable14driftsort_main17hc893b3697714d76aE, symObjAddr: 0x2C1F0, symBinAddr: 0x49920, symSize: 0x128 }
  - { offset: 0x12484A, size: 0x8, addend: 0x0, symName: __ZN4core5slice4sort6stable14driftsort_main17hcd30dcce867beb97E, symObjAddr: 0x2C318, symBinAddr: 0x49A48, symSize: 0x150 }
  - { offset: 0x124DF9, size: 0x8, addend: 0x0, symName: __ZN4core5slice4sort6stable5drift4sort17h5e38af9010a1a556E, symObjAddr: 0x2C468, symBinAddr: 0x49B98, symSize: 0x4F4 }
  - { offset: 0x1254A4, size: 0x8, addend: 0x0, symName: __ZN4core5slice4sort6stable5drift4sort17h80327560a6a1c94bE, symObjAddr: 0x2C95C, symBinAddr: 0x4A08C, symSize: 0x4F4 }
  - { offset: 0x125B4F, size: 0x8, addend: 0x0, symName: __ZN4core5slice4sort6stable5drift4sort17h8eec2dc203ad591bE, symObjAddr: 0x2CE50, symBinAddr: 0x4A580, symSize: 0x540 }
  - { offset: 0x126210, size: 0x8, addend: 0x0, symName: __ZN4core5slice4sort6stable5drift4sort17ha8d814c5c1d304f0E, symObjAddr: 0x2D390, symBinAddr: 0x4AAC0, symSize: 0x4D8 }
  - { offset: 0x126825, size: 0x8, addend: 0x0, symName: __ZN4core5slice4sort6stable5drift4sort17hc3241614963c3d1fE, symObjAddr: 0x2D868, symBinAddr: 0x4AF98, symSize: 0x538 }
  - { offset: 0x126EBA, size: 0x8, addend: 0x0, symName: __ZN4core5slice4sort6stable5drift4sort17hdb282faf6360b05fE, symObjAddr: 0x2DDA0, symBinAddr: 0x4B4D0, symSize: 0x5EC }
  - { offset: 0x1277CC, size: 0x8, addend: 0x0, symName: __ZN4core5slice4sort6stable9quicksort9quicksort17h4dd0d1c0b49d71a6E, symObjAddr: 0x2E38C, symBinAddr: 0x4BABC, symSize: 0x810 }
  - { offset: 0x1283BC, size: 0x8, addend: 0x0, symName: __ZN4core5slice4sort6stable9quicksort9quicksort17h5fbbd8b769a24b09E, symObjAddr: 0x2EB9C, symBinAddr: 0x4C2CC, symSize: 0x7FC }
  - { offset: 0x129379, size: 0x8, addend: 0x0, symName: __ZN4core5slice4sort6stable9quicksort9quicksort17h64319fbf65ad0bb7E, symObjAddr: 0x2F398, symBinAddr: 0x4CAC8, symSize: 0x6BC }
  - { offset: 0x129E57, size: 0x8, addend: 0x0, symName: __ZN4core5slice4sort6stable9quicksort9quicksort17h9cb0acdc055fe751E, symObjAddr: 0x2FA54, symBinAddr: 0x4D184, symSize: 0x720 }
  - { offset: 0x12A5BD, size: 0x8, addend: 0x0, symName: __ZN4core5slice4sort6stable9quicksort9quicksort17h9fd277f3d72f346bE, symObjAddr: 0x30174, symBinAddr: 0x4D8A4, symSize: 0x7EC }
  - { offset: 0x12B19F, size: 0x8, addend: 0x0, symName: __ZN4core5slice4sort6stable9quicksort9quicksort17ha6e1efa1ee21f84aE, symObjAddr: 0x30960, symBinAddr: 0x4E090, symSize: 0x6B4 }
  - { offset: 0x12BD36, size: 0x8, addend: 0x0, symName: __ZN4core5slice4sort6shared9smallsort12sort4_stable17h469156677824c224E, symObjAddr: 0x2AC08, symBinAddr: 0x48338, symSize: 0x180 }
  - { offset: 0x12C11F, size: 0x8, addend: 0x0, symName: __ZN4core5slice4sort6shared9smallsort12sort4_stable17h47cd5e0d6e97a400E, symObjAddr: 0x2AD88, symBinAddr: 0x484B8, symSize: 0x194 }
  - { offset: 0x12C2FC, size: 0x8, addend: 0x0, symName: __ZN4core5slice4sort6shared9smallsort12sort8_stable17h50b2266a3ed37fa9E, symObjAddr: 0x2AF1C, symBinAddr: 0x4864C, symSize: 0x2B8 }
  - { offset: 0x12C7D8, size: 0x8, addend: 0x0, symName: __ZN4core5slice4sort6shared9smallsort18small_sort_general17h6e7a9a9e6618d8a0E, symObjAddr: 0x2B1D4, symBinAddr: 0x48904, symSize: 0x490 }
  - { offset: 0x12CEED, size: 0x8, addend: 0x0, symName: __ZN4core5slice4sort6shared9smallsort18small_sort_general17ha4bd61284e5c0765E, symObjAddr: 0x2B664, symBinAddr: 0x48D94, symSize: 0x3E8 }
  - { offset: 0x12D419, size: 0x8, addend: 0x0, symName: __ZN4core5slice4sort6shared9smallsort25insertion_sort_shift_left17h5d52d1c7eb4e4745E, symObjAddr: 0x2BA4C, symBinAddr: 0x4917C, symSize: 0x94 }
  - { offset: 0x12D4EF, size: 0x8, addend: 0x0, symName: __ZN4core5slice4sort6shared9smallsort25insertion_sort_shift_left17h803c5d2110d164b3E, symObjAddr: 0x2BAE0, symBinAddr: 0x49210, symSize: 0xB8 }
  - { offset: 0x12D61A, size: 0x8, addend: 0x0, symName: __ZN4core5slice4sort6shared9smallsort25insertion_sort_shift_left17had99aba7dfc2ff8dE, symObjAddr: 0x2BB98, symBinAddr: 0x492C8, symSize: 0xA8 }
  - { offset: 0x12D6E3, size: 0x8, addend: 0x0, symName: __ZN4core5slice4sort6shared9smallsort25insertion_sort_shift_left17hd839558f15a084bbE, symObjAddr: 0x2BC40, symBinAddr: 0x49370, symSize: 0xF4 }
  - { offset: 0x12DA87, size: 0x8, addend: 0x0, symName: __ZN4core5slice4sort6shared5pivot11median3_rec17h1b560c2c546575d6E, symObjAddr: 0x2A4E4, symBinAddr: 0x47C14, symSize: 0x11C }
  - { offset: 0x12DB97, size: 0x8, addend: 0x0, symName: __ZN4core5slice4sort6shared5pivot11median3_rec17h43f45571122837c6E, symObjAddr: 0x2A600, symBinAddr: 0x47D30, symSize: 0xD0 }
  - { offset: 0x12DCA4, size: 0x8, addend: 0x0, symName: __ZN4core5slice4sort6shared5pivot11median3_rec17h7c4642b45abcfdf3E, symObjAddr: 0x2A6D0, symBinAddr: 0x47E00, symSize: 0xCC }
  - { offset: 0x12DDAF, size: 0x8, addend: 0x0, symName: __ZN4core5slice4sort6shared5pivot11median3_rec17ha4992078eee22457E, symObjAddr: 0x2A79C, symBinAddr: 0x47ECC, symSize: 0x134 }
  - { offset: 0x12DFEA, size: 0x8, addend: 0x0, symName: __ZN4core5slice4sort6shared5pivot11median3_rec17hb44e75e610ba05a4E, symObjAddr: 0x2A8D0, symBinAddr: 0x48000, symSize: 0xD0 }
  - { offset: 0x12E0F5, size: 0x8, addend: 0x0, symName: __ZN4core5slice4sort6shared5pivot11median3_rec17hb71c969603cdb7f6E, symObjAddr: 0x2A9A0, symBinAddr: 0x480D0, symSize: 0xCC }
  - { offset: 0x12E200, size: 0x8, addend: 0x0, symName: __ZN4core5slice4sort6shared5pivot11median3_rec17hc544ad2542f3ad8eE, symObjAddr: 0x2AA6C, symBinAddr: 0x4819C, symSize: 0xD0 }
  - { offset: 0x12E30B, size: 0x8, addend: 0x0, symName: __ZN4core5slice4sort6shared5pivot11median3_rec17hd6004b59113fbfecE, symObjAddr: 0x2AB3C, symBinAddr: 0x4826C, symSize: 0xCC }
  - { offset: 0x12EB97, size: 0x8, addend: 0x0, symName: __ZN4core5panic12PanicPayload6as_str17h14346476792e989cE, symObjAddr: 0x2A4DC, symBinAddr: 0x47C0C, symSize: 0x8 }
  - { offset: 0x130199, size: 0x8, addend: 0x0, symName: '__ZN42_$LT$$RF$T$u20$as$u20$core..fmt..Debug$GT$3fmt17h177c428d5772590dE', symObjAddr: 0x22E84, symBinAddr: 0x45A64, symSize: 0x1C }
  - { offset: 0x1301EE, size: 0x8, addend: 0x0, symName: '__ZN42_$LT$$RF$T$u20$as$u20$core..fmt..Debug$GT$3fmt17h8fb107d9d93bf5f3E', symObjAddr: 0x23524, symBinAddr: 0x45A80, symSize: 0x1C }
  - { offset: 0x130236, size: 0x8, addend: 0x0, symName: '__ZN42_$LT$$RF$T$u20$as$u20$core..fmt..Debug$GT$3fmt17ha66933743b08b6feE', symObjAddr: 0x23590, symBinAddr: 0x45A9C, symSize: 0x74 }
  - { offset: 0x13034D, size: 0x8, addend: 0x0, symName: '__ZN42_$LT$$RF$T$u20$as$u20$core..fmt..Debug$GT$3fmt17hc73e4cddec4aa4f1E', symObjAddr: 0x23804, symBinAddr: 0x45B10, symSize: 0x10 }
  - { offset: 0x130361, size: 0x8, addend: 0x0, symName: '__ZN42_$LT$$RF$T$u20$as$u20$core..fmt..Debug$GT$3fmt17hda426fb11ecf83d1E', symObjAddr: 0x23910, symBinAddr: 0x45B20, symSize: 0x10 }
  - { offset: 0x1303D2, size: 0x8, addend: 0x0, symName: '__ZN4core3fmt3num50_$LT$impl$u20$core..fmt..Debug$u20$for$u20$i32$GT$3fmt17h26d61a2b80e79249E', symObjAddr: 0x23DC4, symBinAddr: 0x45BA0, symSize: 0x18 }
  - { offset: 0x1303EA, size: 0x8, addend: 0x0, symName: '__ZN4core3fmt3num50_$LT$impl$u20$core..fmt..Debug$u20$for$u20$i32$GT$3fmt17h26d61a2b80e79249E', symObjAddr: 0x23DC4, symBinAddr: 0x45BA0, symSize: 0x18 }
  - { offset: 0x130403, size: 0x8, addend: 0x0, symName: '__ZN4core3fmt3num52_$LT$impl$u20$core..fmt..Debug$u20$for$u20$usize$GT$3fmt17hddf28bd83d4a73e6E', symObjAddr: 0x23E24, symBinAddr: 0x45BB8, symSize: 0x18 }
  - { offset: 0x13041B, size: 0x8, addend: 0x0, symName: '__ZN4core3fmt3num52_$LT$impl$u20$core..fmt..Debug$u20$for$u20$usize$GT$3fmt17hddf28bd83d4a73e6E', symObjAddr: 0x23E24, symBinAddr: 0x45BB8, symSize: 0x18 }
  - { offset: 0x130456, size: 0x8, addend: 0x0, symName: '__ZN44_$LT$$RF$T$u20$as$u20$core..fmt..Display$GT$3fmt17he413baf87c2d405bE', symObjAddr: 0x23A0C, symBinAddr: 0x45B30, symSize: 0x60 }
  - { offset: 0x1304CD, size: 0x8, addend: 0x0, symName: '__ZN44_$LT$$RF$T$u20$as$u20$core..fmt..Display$GT$3fmt17hf44a69cad7166c3fE', symObjAddr: 0x23A6C, symBinAddr: 0x45B90, symSize: 0x10 }
  - { offset: 0x130508, size: 0x8, addend: 0x0, symName: __ZN4core3fmt5Write10write_char17h319fd9fe76fafdd3E, symObjAddr: 0x23FA4, symBinAddr: 0x45BD0, symSize: 0x128 }
  - { offset: 0x130582, size: 0x8, addend: 0x0, symName: __ZN4core3fmt5Write10write_char17h97051c7b8f065692E, symObjAddr: 0x240CC, symBinAddr: 0x45CF8, symSize: 0x138 }
  - { offset: 0x130715, size: 0x8, addend: 0x0, symName: __ZN4core3fmt5Write10write_char17hcd7ef45195c85d9dE, symObjAddr: 0x24204, symBinAddr: 0x45E30, symSize: 0x110 }
  - { offset: 0x1308C9, size: 0x8, addend: 0x0, symName: __ZN4core3fmt5Write10write_char17he147b3d3d9aec1baE, symObjAddr: 0x24314, symBinAddr: 0x45F40, symSize: 0x168 }
  - { offset: 0x130A64, size: 0x8, addend: 0x0, symName: __ZN4core3fmt5Write9write_fmt17h538713431ac351bfE, symObjAddr: 0x245A4, symBinAddr: 0x460A8, symSize: 0x14 }
  - { offset: 0x130A93, size: 0x8, addend: 0x0, symName: __ZN4core3fmt5Write9write_fmt17h8ef5f396dd60f23fE, symObjAddr: 0x245B8, symBinAddr: 0x460BC, symSize: 0x14 }
  - { offset: 0x130AC2, size: 0x8, addend: 0x0, symName: __ZN4core3fmt5Write9write_fmt17h98e28ebb511e0c3fE, symObjAddr: 0x245CC, symBinAddr: 0x460D0, symSize: 0x14 }
  - { offset: 0x130AF1, size: 0x8, addend: 0x0, symName: __ZN4core3fmt5Write9write_fmt17ha89f7cbf0420f3c3E, symObjAddr: 0x245E0, symBinAddr: 0x460E4, symSize: 0x14 }
  - { offset: 0x130B20, size: 0x8, addend: 0x0, symName: __ZN4core3fmt5Write9write_fmt17hd0c7c5de1e8c1578E, symObjAddr: 0x2461C, symBinAddr: 0x460F8, symSize: 0x14 }
  - { offset: 0x130B7B, size: 0x8, addend: 0x0, symName: '__ZN50_$LT$$BP$mut$u20$T$u20$as$u20$core..fmt..Debug$GT$3fmt17hf3eb8438fbbf3411E', symObjAddr: 0x31E90, symBinAddr: 0x4F510, symSize: 0x8 }
  - { offset: 0x130B99, size: 0x8, addend: 0x0, symName: '__ZN50_$LT$$BP$mut$u20$T$u20$as$u20$core..fmt..Debug$GT$3fmt17hf3eb8438fbbf3411E', symObjAddr: 0x31E90, symBinAddr: 0x4F510, symSize: 0x8 }
  - { offset: 0x130BC8, size: 0x8, addend: 0x0, symName: '__ZN52_$LT$$RF$mut$u20$T$u20$as$u20$core..fmt..Display$GT$3fmt17hd4ecd60d35c8f9e8E', symObjAddr: 0x3245C, symBinAddr: 0x4F518, symSize: 0x10 }
  - { offset: 0x130C4F, size: 0x8, addend: 0x0, symName: '__ZN4core3ops8function6FnOnce40call_once$u7b$$u7b$vtable.shim$u7d$$u7d$17h4218539377a2a1b5E', symObjAddr: 0x24934, symBinAddr: 0x4610C, symSize: 0xC }
  - { offset: 0x130CA0, size: 0x8, addend: 0x0, symName: '__ZN4core3ops8function6FnOnce40call_once$u7b$$u7b$vtable.shim$u7d$$u7d$17h4e6c8110069f19edE', symObjAddr: 0x24940, symBinAddr: 0x46118, symSize: 0xC }
  - { offset: 0x130CF1, size: 0x8, addend: 0x0, symName: '__ZN4core3ops8function6FnOnce40call_once$u7b$$u7b$vtable.shim$u7d$$u7d$17h8aec2d2e62ce5f2eE', symObjAddr: 0x24AAC, symBinAddr: 0x46124, symSize: 0x98 }
  - { offset: 0x130E62, size: 0x8, addend: 0x0, symName: '__ZN4core3ops8function6FnOnce40call_once$u7b$$u7b$vtable.shim$u7d$$u7d$17h9d3a33d4686cf935E', symObjAddr: 0x24B84, symBinAddr: 0x461BC, symSize: 0x4 }
  - { offset: 0x130E7F, size: 0x8, addend: 0x0, symName: '__ZN4core3ops8function6FnOnce40call_once$u7b$$u7b$vtable.shim$u7d$$u7d$17h9d3a33d4686cf935E', symObjAddr: 0x24B84, symBinAddr: 0x461BC, symSize: 0x4 }
  - { offset: 0x130E9E, size: 0x8, addend: 0x0, symName: '__ZN4core3ops8function6FnOnce40call_once$u7b$$u7b$vtable.shim$u7d$$u7d$17hb601ef05c40b5e16E', symObjAddr: 0x24BF4, symBinAddr: 0x461C0, symSize: 0x4 }
  - { offset: 0x130EBB, size: 0x8, addend: 0x0, symName: '__ZN4core3ops8function6FnOnce40call_once$u7b$$u7b$vtable.shim$u7d$$u7d$17hb601ef05c40b5e16E', symObjAddr: 0x24BF4, symBinAddr: 0x461C0, symSize: 0x4 }
  - { offset: 0x131AB5, size: 0x8, addend: 0x0, symName: '__ZN36_$LT$T$u20$as$u20$core..any..Any$GT$7type_id17h39e909e33a34436fE', symObjAddr: 0xC94, symBinAddr: 0x3B910, symSize: 0x14 }
  - { offset: 0x131AD2, size: 0x8, addend: 0x0, symName: '__ZN36_$LT$T$u20$as$u20$core..any..Any$GT$7type_id17h39e909e33a34436fE', symObjAddr: 0xC94, symBinAddr: 0x3B910, symSize: 0x14 }
  - { offset: 0x131AE4, size: 0x8, addend: 0x0, symName: '__ZN36_$LT$T$u20$as$u20$core..any..Any$GT$7type_id17h9d86f0f0caa268bbE', symObjAddr: 0xCA8, symBinAddr: 0x3B924, symSize: 0x14 }
  - { offset: 0x131B01, size: 0x8, addend: 0x0, symName: '__ZN36_$LT$T$u20$as$u20$core..any..Any$GT$7type_id17h9d86f0f0caa268bbE', symObjAddr: 0xCA8, symBinAddr: 0x3B924, symSize: 0x14 }
  - { offset: 0x131B13, size: 0x8, addend: 0x0, symName: '__ZN36_$LT$T$u20$as$u20$core..any..Any$GT$7type_id17hd2a7cca6abfee825E', symObjAddr: 0xCBC, symBinAddr: 0x3B938, symSize: 0x14 }
  - { offset: 0x131B30, size: 0x8, addend: 0x0, symName: '__ZN36_$LT$T$u20$as$u20$core..any..Any$GT$7type_id17hd2a7cca6abfee825E', symObjAddr: 0xCBC, symBinAddr: 0x3B938, symSize: 0x14 }
  - { offset: 0x1330FA, size: 0x8, addend: 0x0, symName: '__ZN4core4cell4once17OnceCell$LT$T$GT$8try_init17h12931ad8a233136dE', symObjAddr: 0x27758, symBinAddr: 0x6BEEC, symSize: 0x68 }
  - { offset: 0x133198, size: 0x8, addend: 0x0, symName: '__ZN4core4cell4once17OnceCell$LT$T$GT$8try_init17h5e539301376400ccE', symObjAddr: 0x277C0, symBinAddr: 0x6BF54, symSize: 0x48 }
  - { offset: 0x1331B6, size: 0x8, addend: 0x0, symName: '__ZN4core4cell4once17OnceCell$LT$T$GT$8try_init17h5e539301376400ccE', symObjAddr: 0x277C0, symBinAddr: 0x6BF54, symSize: 0x48 }
  - { offset: 0x1331CB, size: 0x8, addend: 0x0, symName: '__ZN4core4cell4once17OnceCell$LT$T$GT$8try_init17h5e539301376400ccE', symObjAddr: 0x277C0, symBinAddr: 0x6BF54, symSize: 0x48 }
  - { offset: 0x1331DF, size: 0x8, addend: 0x0, symName: '__ZN4core4cell4once17OnceCell$LT$T$GT$8try_init17h5e539301376400ccE', symObjAddr: 0x277C0, symBinAddr: 0x6BF54, symSize: 0x48 }
  - { offset: 0x133221, size: 0x8, addend: 0x0, symName: '__ZN4core4cell4once17OnceCell$LT$T$GT$8try_init17h62b732aaca9d52ccE', symObjAddr: 0x27808, symBinAddr: 0x6BF9C, symSize: 0xFC }
  - { offset: 0x1334D6, size: 0x8, addend: 0x0, symName: '__ZN4core4cell4once17OnceCell$LT$T$GT$8try_init17ha23576e2981dd856E', symObjAddr: 0x27904, symBinAddr: 0x6C098, symSize: 0x186C }
  - { offset: 0x136F56, size: 0x8, addend: 0x0, symName: '__ZN4core4cell4once17OnceCell$LT$T$GT$8try_init17hb89f7791510a2e51E', symObjAddr: 0x29170, symBinAddr: 0x6D904, symSize: 0xBE4 }
  - { offset: 0x138AC0, size: 0x8, addend: 0x0, symName: '__ZN4core4cell4once17OnceCell$LT$T$GT$8try_init17hbb24d07687c9cbd6E', symObjAddr: 0x29D54, symBinAddr: 0x6E4E8, symSize: 0x62C }
  - { offset: 0x139C29, size: 0x8, addend: 0x0, symName: '__ZN55_$LT$$RF$str$u20$as$u20$core..str..pattern..Pattern$GT$15is_contained_in17h469e9c347de94ef2E', symObjAddr: 0x32A48, symBinAddr: 0x4F528, symSize: 0x3C0 }
  - { offset: 0x13A18A, size: 0x8, addend: 0x0, symName: __ZN4core5error5Error11description17h8e35abec80ad84e6E, symObjAddr: 0x2A47C, symBinAddr: 0x47BDC, symSize: 0x10 }
  - { offset: 0x13A1A5, size: 0x8, addend: 0x0, symName: __ZN4core5error5Error5cause17h953b607faec97eafE, symObjAddr: 0x2A49C, symBinAddr: 0x47BEC, symSize: 0x8 }
  - { offset: 0x13A1C0, size: 0x8, addend: 0x0, symName: __ZN4core5error5Error7provide17hc570ba63aa6f105dE, symObjAddr: 0x2A4B0, symBinAddr: 0x47BF4, symSize: 0x4 }
  - { offset: 0x13A1DC, size: 0x8, addend: 0x0, symName: __ZN4core5error5Error7type_id17hfbe707ce9411fd4cE, symObjAddr: 0x2A4C8, symBinAddr: 0x47BF8, symSize: 0x14 }
  - { offset: 0x13A1FB, size: 0x8, addend: 0x0, symName: __ZN4core5error5Error7type_id17hfbe707ce9411fd4cE, symObjAddr: 0x2A4C8, symBinAddr: 0x47BF8, symSize: 0x14 }
  - { offset: 0x13A215, size: 0x8, addend: 0x0, symName: __ZN4core9panicking13assert_failed17h1a99d922c16cfdaeE, symObjAddr: 0x31E08, symBinAddr: 0x6EB14, symSize: 0x28 }
  - { offset: 0x13A509, size: 0x8, addend: 0x0, symName: __ZN5alloc5alloc15exchange_malloc17h2651c83eb5e8d63cE, symObjAddr: 0x396F4, symBinAddr: 0x50208, symSize: 0x48 }
  - { offset: 0x13B343, size: 0x8, addend: 0x0, symName: '__ZN64_$LT$alloc..ffi..c_str..NulError$u20$as$u20$core..fmt..Debug$GT$3fmt17h332fbd8e6a73c2d4E', symObjAddr: 0x447E8, symBinAddr: 0x576F4, symSize: 0x4C }
  - { offset: 0x13B802, size: 0x8, addend: 0x0, symName: '__ZN5alloc11collections5btree3map25IntoIter$LT$K$C$V$C$A$GT$10dying_next17hb1b3a96cd69b8fe7E', symObjAddr: 0x3713C, symBinAddr: 0x4FA9C, symSize: 0x204 }
  - { offset: 0x13BC04, size: 0x8, addend: 0x0, symName: '__ZN5alloc11collections5btree3map25IntoIter$LT$K$C$V$C$A$GT$10dying_next17hd46bd43dd487bf34E', symObjAddr: 0x37340, symBinAddr: 0x4FCA0, symSize: 0x204 }
  - { offset: 0x13C66D, size: 0x8, addend: 0x0, symName: '__ZN5alloc7raw_vec20RawVecInner$LT$A$GT$11finish_grow17h49b462f7651a4ea0E', symObjAddr: 0x39C44, symBinAddr: 0x6EFDC, symSize: 0x94 }
  - { offset: 0x13C78A, size: 0x8, addend: 0x0, symName: '__ZN5alloc7raw_vec20RawVecInner$LT$A$GT$11finish_grow17h8d45e48f1584e635E', symObjAddr: 0x39CD8, symBinAddr: 0x6F070, symSize: 0xC4 }
  - { offset: 0x13C937, size: 0x8, addend: 0x0, symName: '__ZN5alloc7raw_vec20RawVecInner$LT$A$GT$14grow_amortized17h03e509d45a4990d0E', symObjAddr: 0x39D9C, symBinAddr: 0x6F134, symSize: 0x70 }
  - { offset: 0x13CEEE, size: 0x8, addend: 0x0, symName: '__ZN5alloc7raw_vec19RawVec$LT$T$C$A$GT$8grow_one17h0b3d4fedf5981691E', symObjAddr: 0x3973C, symBinAddr: 0x6EB3C, symSize: 0x68 }
  - { offset: 0x13CF71, size: 0x8, addend: 0x0, symName: '__ZN5alloc7raw_vec19RawVec$LT$T$C$A$GT$8grow_one17h1c6eeff65bf6bc15E', symObjAddr: 0x397A4, symBinAddr: 0x6EBA4, symSize: 0x68 }
  - { offset: 0x13CFF4, size: 0x8, addend: 0x0, symName: '__ZN5alloc7raw_vec19RawVec$LT$T$C$A$GT$8grow_one17h20c64cf665f15fe4E', symObjAddr: 0x3980C, symBinAddr: 0x6EC0C, symSize: 0x68 }
  - { offset: 0x13D077, size: 0x8, addend: 0x0, symName: '__ZN5alloc7raw_vec19RawVec$LT$T$C$A$GT$8grow_one17h37078fe3e5146b92E', symObjAddr: 0x39874, symBinAddr: 0x6EC74, symSize: 0x68 }
  - { offset: 0x13D0FA, size: 0x8, addend: 0x0, symName: '__ZN5alloc7raw_vec19RawVec$LT$T$C$A$GT$8grow_one17h39087719d60c73baE', symObjAddr: 0x398DC, symBinAddr: 0x6ECDC, symSize: 0x68 }
  - { offset: 0x13D17D, size: 0x8, addend: 0x0, symName: '__ZN5alloc7raw_vec19RawVec$LT$T$C$A$GT$8grow_one17h46115a12f843e2d3E', symObjAddr: 0x39944, symBinAddr: 0x6ED44, symSize: 0x68 }
  - { offset: 0x13D200, size: 0x8, addend: 0x0, symName: '__ZN5alloc7raw_vec19RawVec$LT$T$C$A$GT$8grow_one17h4f33bfe902b32a40E', symObjAddr: 0x399AC, symBinAddr: 0x6EDAC, symSize: 0x68 }
  - { offset: 0x13D283, size: 0x8, addend: 0x0, symName: '__ZN5alloc7raw_vec19RawVec$LT$T$C$A$GT$8grow_one17h57e45b391f3477e0E', symObjAddr: 0x39A14, symBinAddr: 0x6EE14, symSize: 0x68 }
  - { offset: 0x13D306, size: 0x8, addend: 0x0, symName: '__ZN5alloc7raw_vec19RawVec$LT$T$C$A$GT$8grow_one17h64dcbdae873e076bE', symObjAddr: 0x39A7C, symBinAddr: 0x6EE7C, symSize: 0x68 }
  - { offset: 0x13D389, size: 0x8, addend: 0x0, symName: '__ZN5alloc7raw_vec19RawVec$LT$T$C$A$GT$8grow_one17h69061b0f18a0f860E', symObjAddr: 0x39AE4, symBinAddr: 0x6EEE4, symSize: 0x28 }
  - { offset: 0x13D3B1, size: 0x8, addend: 0x0, symName: '__ZN5alloc7raw_vec19RawVec$LT$T$C$A$GT$8grow_one17ha3dab7cb867393e3E', symObjAddr: 0x39B0C, symBinAddr: 0x6EF0C, symSize: 0x68 }
  - { offset: 0x13D434, size: 0x8, addend: 0x0, symName: '__ZN5alloc7raw_vec19RawVec$LT$T$C$A$GT$8grow_one17ha689bd2f7dcd7353E', symObjAddr: 0x39B74, symBinAddr: 0x6EF74, symSize: 0x68 }
  - { offset: 0x13D71E, size: 0x8, addend: 0x0, symName: '__ZN5alloc7raw_vec20RawVecInner$LT$A$GT$7reserve21do_reserve_and_handle17h90344aef1e9872a3E', symObjAddr: 0x39E0C, symBinAddr: 0x6F1A4, symSize: 0x8C }
  - { offset: 0x13D8F5, size: 0x8, addend: 0x0, symName: '__ZN58_$LT$alloc..string..String$u20$as$u20$core..fmt..Debug$GT$3fmt17h099397a60a292922E', symObjAddr: 0x33D8C, symBinAddr: 0x4F8E8, symSize: 0x10 }
  - { offset: 0x13D9B0, size: 0x8, addend: 0x0, symName: '__ZN58_$LT$alloc..string..String$u20$as$u20$core..fmt..Write$GT$10write_char17h9904efafb51f78b8E', symObjAddr: 0x33D9C, symBinAddr: 0x4F8F8, symSize: 0x120 }
  - { offset: 0x13DB50, size: 0x8, addend: 0x0, symName: '__ZN58_$LT$alloc..string..String$u20$as$u20$core..fmt..Write$GT$9write_str17h3ffaf0979099dce0E', symObjAddr: 0x33EBC, symBinAddr: 0x4FA18, symSize: 0x80 }
  - { offset: 0x13DCA9, size: 0x8, addend: 0x0, symName: '__ZN60_$LT$alloc..string..String$u20$as$u20$core..fmt..Display$GT$3fmt17h620931148dfbd646E', symObjAddr: 0x40DA0, symBinAddr: 0x57158, symSize: 0x10 }
  - { offset: 0x13E0E0, size: 0x8, addend: 0x0, symName: '__ZN5alloc4sync16Arc$LT$T$C$A$GT$9drop_slow17h3dfbf94c2de416b8E', symObjAddr: 0x39390, symBinAddr: 0x4FEA4, symSize: 0x98 }
  - { offset: 0x13E2D8, size: 0x8, addend: 0x0, symName: '__ZN5alloc4sync16Arc$LT$T$C$A$GT$9drop_slow17h48a6351c7f0b3554E', symObjAddr: 0x39428, symBinAddr: 0x4FF3C, symSize: 0x70 }
  - { offset: 0x13E4D0, size: 0x8, addend: 0x0, symName: '__ZN5alloc4sync16Arc$LT$T$C$A$GT$9drop_slow17h90872bb592eff208E', symObjAddr: 0x39498, symBinAddr: 0x4FFAC, symSize: 0xD0 }
  - { offset: 0x13E73F, size: 0x8, addend: 0x0, symName: '__ZN5alloc4sync16Arc$LT$T$C$A$GT$9drop_slow17h9d4d3e529ec9deb6E', symObjAddr: 0x39568, symBinAddr: 0x5007C, symSize: 0x2C }
  - { offset: 0x13E81D, size: 0x8, addend: 0x0, symName: '__ZN5alloc4sync16Arc$LT$T$C$A$GT$9drop_slow17hcdc4884edf2028d1E', symObjAddr: 0x39594, symBinAddr: 0x500A8, symSize: 0xA0 }
  - { offset: 0x13EB98, size: 0x8, addend: 0x0, symName: '__ZN5alloc4sync16Arc$LT$T$C$A$GT$9drop_slow17hfb67952ed4e6e214E', symObjAddr: 0x39634, symBinAddr: 0x50148, symSize: 0xC0 }
  - { offset: 0x13F72E, size: 0x8, addend: 0x0, symName: __ZN6object4read7archive13ArchiveMember5parse17h9aa31a58ad5b9544E, symObjAddr: 0x45FD8, symBinAddr: 0x578DC, symSize: 0x598 }
  - { offset: 0x140AA4, size: 0x8, addend: 0x0, symName: '__ZN9addr2line4unit16ResUnit$LT$R$GT$25find_function_or_location28_$u7b$$u7b$closure$u7d$$u7d$17h4e866b147d18c9b8E', symObjAddr: 0x4CBD8, symBinAddr: 0x59C78, symSize: 0x310 }
  - { offset: 0x140E36, size: 0x8, addend: 0x0, symName: '__ZN9addr2line4unit16ResUnit$LT$R$GT$25find_function_or_location17hafbc6b9d9ff53700E', symObjAddr: 0x4C858, symBinAddr: 0x598F8, symSize: 0x380 }
  - { offset: 0x141358, size: 0x8, addend: 0x0, symName: '__ZN9addr2line16Context$LT$R$GT$9find_unit17h485426245181a6dcE', symObjAddr: 0x4C28C, symBinAddr: 0x5932C, symSize: 0x15C }
  - { offset: 0x1414D9, size: 0x8, addend: 0x0, symName: '__ZN9addr2line6lookup30LoopingLookup$LT$T$C$L$C$F$GT$10new_lookup17hb2f1ecfb9b5a84caE', symObjAddr: 0x4D1A8, symBinAddr: 0x5A248, symSize: 0x430 }
  - { offset: 0x141ACE, size: 0x8, addend: 0x0, symName: __ZN9addr2line4line11render_file17h085773b8bac0fe9eE, symObjAddr: 0x4C3E8, symBinAddr: 0x59488, symSize: 0x470 }
  - { offset: 0x1425B6, size: 0x8, addend: 0x0, symName: '__ZN9addr2line8function17Function$LT$R$GT$14parse_children17h2b0cdfd636c6d6deE', symObjAddr: 0x4D93C, symBinAddr: 0x5A9DC, symSize: 0xE7C }
  - { offset: 0x143E57, size: 0x8, addend: 0x0, symName: __ZN9addr2line8function10name_entry17h5366dd95e36d4758E, symObjAddr: 0x4D5D8, symBinAddr: 0x5A678, symSize: 0x364 }
  - { offset: 0x144346, size: 0x8, addend: 0x0, symName: __ZN9addr2line8function9name_attr17hccbb54a0d73a1a8bE, symObjAddr: 0x4E7B8, symBinAddr: 0x5B858, symSize: 0x1C0 }
  - { offset: 0x144532, size: 0x8, addend: 0x0, symName: '__ZN9addr2line5frame18FrameIter$LT$R$GT$4next17h2ba3b0627a0239ceE', symObjAddr: 0x4CEE8, symBinAddr: 0x59F88, symSize: 0x2C0 }
  - { offset: 0x144E82, size: 0x8, addend: 0x0, symName: '__ZN5gimli4read5dwarf14Dwarf$LT$R$GT$11attr_string17he154349ba08be5a0E', symObjAddr: 0x3EFA4, symBinAddr: 0x5535C, symSize: 0x220 }
  - { offset: 0x145535, size: 0x8, addend: 0x0, symName: '__ZN5gimli4read5dwarf13Unit$LT$R$GT$3new17h400d9e244b1626a5E', symObjAddr: 0x3D334, symBinAddr: 0x536EC, symSize: 0x1C70 }
  - { offset: 0x148EAD, size: 0x8, addend: 0x0, symName: '__ZN5gimli4read7aranges30ArangeHeader$LT$R$C$Offset$GT$5parse17h20d51668ce2d6637E', symObjAddr: 0x3FE24, symBinAddr: 0x561DC, symSize: 0x2A8 }
  - { offset: 0x149878, size: 0x8, addend: 0x0, symName: '__ZN5gimli4read4unit18Attribute$LT$R$GT$5value17h81c3099e26c0e9d3E', symObjAddr: 0x3C3E4, symBinAddr: 0x5279C, symSize: 0x654 }
  - { offset: 0x149C49, size: 0x8, addend: 0x0, symName: '__ZN90_$LT$gimli..read..unit..AttributeValue$LT$R$C$Offset$GT$$u20$as$u20$core..clone..Clone$GT$5clone17hef8533b4a5b56874E', symObjAddr: 0x4AFCC, symBinAddr: 0x58A90, symSize: 0x68 }
  - { offset: 0x149CA4, size: 0x8, addend: 0x0, symName: '__ZN5gimli4read4unit32AttributeValue$LT$R$C$Offset$GT$8u8_value17h6289747ce1bc1c8aE', symObjAddr: 0x3CCF0, symBinAddr: 0x530A8, symSize: 0x94 }
  - { offset: 0x149CDA, size: 0x8, addend: 0x0, symName: '__ZN5gimli4read4unit32AttributeValue$LT$R$C$Offset$GT$9u16_value17h78f20af31e13b996E', symObjAddr: 0x3CD84, symBinAddr: 0x5313C, symSize: 0x94 }
  - { offset: 0x149D52, size: 0x8, addend: 0x0, symName: __ZN5gimli4read4unit15parse_attribute17h8c90b5e54a619388E, symObjAddr: 0x3B004, symBinAddr: 0x513BC, symSize: 0xF74 }
  - { offset: 0x14C592, size: 0x8, addend: 0x0, symName: __ZN5gimli4read4unit15skip_attributes17hbaf24547b98a9a8eE, symObjAddr: 0x3BF78, symBinAddr: 0x52330, symSize: 0x46C }
  - { offset: 0x14CE59, size: 0x8, addend: 0x0, symName: '__ZN5gimli4read4unit22EntriesCursor$LT$R$GT$10next_entry17h6a357731a4552903E', symObjAddr: 0x3CA38, symBinAddr: 0x52DF0, symSize: 0x2B8 }
  - { offset: 0x14D3FF, size: 0x8, addend: 0x0, symName: '__ZN5gimli4read4unit33DebugInfoUnitHeadersIter$LT$R$GT$4next17h6fead1a387021658E', symObjAddr: 0x3CE18, symBinAddr: 0x531D0, symSize: 0x51C }
  - { offset: 0x14E5F1, size: 0x8, addend: 0x0, symName: __ZN5gimli4read6reader6Reader11read_offset17hf7d76506f84029ebE, symObjAddr: 0x3F970, symBinAddr: 0x55D28, symSize: 0xB4 }
  - { offset: 0x14E7E5, size: 0x8, addend: 0x0, symName: __ZN5gimli4read6reader6Reader12read_sleb12817h6d90c181d967cff9E, symObjAddr: 0x3FA24, symBinAddr: 0x55DDC, symSize: 0x23C }
  - { offset: 0x14E8B2, size: 0x8, addend: 0x0, symName: __ZN5gimli4read6reader6Reader12read_uleb12817hfc663b7a6ef2b5adE, symObjAddr: 0x3FC60, symBinAddr: 0x56018, symSize: 0xB8 }
  - { offset: 0x14E96E, size: 0x8, addend: 0x0, symName: __ZN5gimli4read6reader6Reader17read_sized_offset17h01b647283d461fdfE, symObjAddr: 0x3FD18, symBinAddr: 0x560D0, symSize: 0x10C }
  - { offset: 0x14EF9D, size: 0x8, addend: 0x0, symName: '__ZN5gimli4read8rnglists20RngListIter$LT$R$GT$4next17heee1885f9dd2ec49E', symObjAddr: 0x400CC, symBinAddr: 0x56484, symSize: 0xCD4 }
  - { offset: 0x151784, size: 0x8, addend: 0x0, symName: '__ZN5gimli4read5index18UnitIndex$LT$R$GT$5parse17hafff2d54389f565fE', symObjAddr: 0x3F1C4, symBinAddr: 0x5557C, symSize: 0x7AC }
  - { offset: 0x151E59, size: 0x8, addend: 0x0, symName: '__ZN5gimli4read4line27FileEntry$LT$R$C$Offset$GT$5parse17h2c6ab2f1a36bd80aE', symObjAddr: 0x3ADE8, symBinAddr: 0x511A0, symSize: 0x21C }
  - { offset: 0x152117, size: 0x8, addend: 0x0, symName: __ZN5gimli4read4line13parse_file_v517h94b73e56932facadE, symObjAddr: 0x39E98, symBinAddr: 0x50250, symSize: 0x2A8 }
  - { offset: 0x1522BD, size: 0x8, addend: 0x0, symName: __ZN5gimli4read4line15FileEntryFormat5parse17hcf9d6022172f9fcfE, symObjAddr: 0x3A140, symBinAddr: 0x504F8, symSize: 0x350 }
  - { offset: 0x152AE2, size: 0x8, addend: 0x0, symName: __ZN5gimli4read4line15parse_attribute17h973ae6180450771dE, symObjAddr: 0x3A490, symBinAddr: 0x50848, symSize: 0x874 }
  - { offset: 0x15407A, size: 0x8, addend: 0x0, symName: __ZN5gimli4read4line18parse_directory_v517h25176f2ce75ce1baE, symObjAddr: 0x3AD04, symBinAddr: 0x510BC, symSize: 0xE4 }
  - { offset: 0x15414D, size: 0x8, addend: 0x0, symName: '__ZN85_$LT$gimli..read..line..FileEntry$LT$R$C$Offset$GT$$u20$as$u20$core..clone..Clone$GT$5clone17h44768d28f42098d8E', symObjAddr: 0x4A8D4, symBinAddr: 0x58850, symSize: 0x1D4 }
  - { offset: 0x154370, size: 0x8, addend: 0x0, symName: _OUTLINED_FUNCTION_0, symObjAddr: 0x4EDFC, symBinAddr: 0x5BD90, symSize: 0xC }
  - { offset: 0x154388, size: 0x8, addend: 0x0, symName: _OUTLINED_FUNCTION_1, symObjAddr: 0x4EE08, symBinAddr: 0x5BD9C, symSize: 0x8 }
  - { offset: 0x1543A0, size: 0x8, addend: 0x0, symName: _OUTLINED_FUNCTION_2, symObjAddr: 0x4EE10, symBinAddr: 0x5BDA4, symSize: 0xC }
  - { offset: 0x1543B8, size: 0x8, addend: 0x0, symName: _OUTLINED_FUNCTION_3, symObjAddr: 0x4EE1C, symBinAddr: 0x5BDB0, symSize: 0xC }
  - { offset: 0x1543D0, size: 0x8, addend: 0x0, symName: _OUTLINED_FUNCTION_4, symObjAddr: 0x4EE28, symBinAddr: 0x5BDBC, symSize: 0x10 }
  - { offset: 0x1543E8, size: 0x8, addend: 0x0, symName: _OUTLINED_FUNCTION_5, symObjAddr: 0x4EE38, symBinAddr: 0x5BDCC, symSize: 0x10 }
  - { offset: 0x154400, size: 0x8, addend: 0x0, symName: _OUTLINED_FUNCTION_6, symObjAddr: 0x4EE48, symBinAddr: 0x5BDDC, symSize: 0xC }
  - { offset: 0x154418, size: 0x8, addend: 0x0, symName: _OUTLINED_FUNCTION_7, symObjAddr: 0x4EE54, symBinAddr: 0x5BDE8, symSize: 0xC }
  - { offset: 0x154430, size: 0x8, addend: 0x0, symName: _OUTLINED_FUNCTION_8, symObjAddr: 0x4EE60, symBinAddr: 0x5BDF4, symSize: 0xC }
  - { offset: 0x154448, size: 0x8, addend: 0x0, symName: _OUTLINED_FUNCTION_9, symObjAddr: 0x4EE6C, symBinAddr: 0x5BE00, symSize: 0xC }
  - { offset: 0x154460, size: 0x8, addend: 0x0, symName: _OUTLINED_FUNCTION_10, symObjAddr: 0x4EE78, symBinAddr: 0x5BE0C, symSize: 0x8 }
  - { offset: 0x154478, size: 0x8, addend: 0x0, symName: _OUTLINED_FUNCTION_11, symObjAddr: 0x4EE80, symBinAddr: 0x5BE14, symSize: 0x8 }
  - { offset: 0x154490, size: 0x8, addend: 0x0, symName: _OUTLINED_FUNCTION_12, symObjAddr: 0x4EE88, symBinAddr: 0x5BE1C, symSize: 0x24 }
  - { offset: 0x1544A8, size: 0x8, addend: 0x0, symName: _OUTLINED_FUNCTION_13, symObjAddr: 0x4EEAC, symBinAddr: 0x5BE40, symSize: 0x8 }
  - { offset: 0x1544C0, size: 0x8, addend: 0x0, symName: _OUTLINED_FUNCTION_14, symObjAddr: 0x4EEB4, symBinAddr: 0x5BE48, symSize: 0x14 }
  - { offset: 0x1544D8, size: 0x8, addend: 0x0, symName: _OUTLINED_FUNCTION_15, symObjAddr: 0x4EEC8, symBinAddr: 0x5BE5C, symSize: 0xC }
  - { offset: 0x1544F0, size: 0x8, addend: 0x0, symName: _OUTLINED_FUNCTION_16, symObjAddr: 0x4EED4, symBinAddr: 0x5BE68, symSize: 0x10 }
  - { offset: 0x154508, size: 0x8, addend: 0x0, symName: _OUTLINED_FUNCTION_17, symObjAddr: 0x4EEE4, symBinAddr: 0x5BE78, symSize: 0x10 }
  - { offset: 0x154520, size: 0x8, addend: 0x0, symName: _OUTLINED_FUNCTION_18, symObjAddr: 0x4EEF4, symBinAddr: 0x5BE88, symSize: 0x8 }
  - { offset: 0x154538, size: 0x8, addend: 0x0, symName: _OUTLINED_FUNCTION_19, symObjAddr: 0x4EEFC, symBinAddr: 0x5BE90, symSize: 0x8 }
  - { offset: 0x154550, size: 0x8, addend: 0x0, symName: _OUTLINED_FUNCTION_20, symObjAddr: 0x4EF04, symBinAddr: 0x5BE98, symSize: 0x8 }
  - { offset: 0x154568, size: 0x8, addend: 0x0, symName: _OUTLINED_FUNCTION_21, symObjAddr: 0x4EF0C, symBinAddr: 0x5BEA0, symSize: 0x18 }
  - { offset: 0x154580, size: 0x8, addend: 0x0, symName: _OUTLINED_FUNCTION_22, symObjAddr: 0x4EF24, symBinAddr: 0x5BEB8, symSize: 0x18 }
  - { offset: 0x154598, size: 0x8, addend: 0x0, symName: _OUTLINED_FUNCTION_23, symObjAddr: 0x4EF3C, symBinAddr: 0x5BED0, symSize: 0x8 }
  - { offset: 0x1545B0, size: 0x8, addend: 0x0, symName: _OUTLINED_FUNCTION_25, symObjAddr: 0x4EF50, symBinAddr: 0x5BED8, symSize: 0xC }
  - { offset: 0x1545C8, size: 0x8, addend: 0x0, symName: _OUTLINED_FUNCTION_26, symObjAddr: 0x4EF5C, symBinAddr: 0x5BEE4, symSize: 0x8 }
  - { offset: 0x1545E0, size: 0x8, addend: 0x0, symName: _OUTLINED_FUNCTION_27, symObjAddr: 0x4EF64, symBinAddr: 0x5BEEC, symSize: 0xC }
  - { offset: 0x1545F8, size: 0x8, addend: 0x0, symName: _OUTLINED_FUNCTION_28, symObjAddr: 0x4EF70, symBinAddr: 0x5BEF8, symSize: 0x8 }
  - { offset: 0x154610, size: 0x8, addend: 0x0, symName: _OUTLINED_FUNCTION_29, symObjAddr: 0x4EF78, symBinAddr: 0x5BF00, symSize: 0xC }
  - { offset: 0x154628, size: 0x8, addend: 0x0, symName: _OUTLINED_FUNCTION_30, symObjAddr: 0x4EF84, symBinAddr: 0x5BF0C, symSize: 0x8 }
  - { offset: 0x154640, size: 0x8, addend: 0x0, symName: _OUTLINED_FUNCTION_31, symObjAddr: 0x4EF8C, symBinAddr: 0x5BF14, symSize: 0xC }
  - { offset: 0x154658, size: 0x8, addend: 0x0, symName: _OUTLINED_FUNCTION_32, symObjAddr: 0x4EF98, symBinAddr: 0x5BF20, symSize: 0x8 }
  - { offset: 0x154670, size: 0x8, addend: 0x0, symName: _OUTLINED_FUNCTION_33, symObjAddr: 0x4EFA0, symBinAddr: 0x5BF28, symSize: 0xC }
  - { offset: 0x154688, size: 0x8, addend: 0x0, symName: _OUTLINED_FUNCTION_34, symObjAddr: 0x4EFAC, symBinAddr: 0x5BF34, symSize: 0xC }
  - { offset: 0x1546A0, size: 0x8, addend: 0x0, symName: _OUTLINED_FUNCTION_35, symObjAddr: 0x4EFB8, symBinAddr: 0x5BF40, symSize: 0x10 }
  - { offset: 0x1546B8, size: 0x8, addend: 0x0, symName: _OUTLINED_FUNCTION_36, symObjAddr: 0x4EFC8, symBinAddr: 0x5BF50, symSize: 0x14 }
  - { offset: 0x1546D0, size: 0x8, addend: 0x0, symName: _OUTLINED_FUNCTION_37, symObjAddr: 0x4EFDC, symBinAddr: 0x5BF64, symSize: 0x14 }
  - { offset: 0x1546E8, size: 0x8, addend: 0x0, symName: _OUTLINED_FUNCTION_38, symObjAddr: 0x4EFF0, symBinAddr: 0x5BF78, symSize: 0xC }
  - { offset: 0x154700, size: 0x8, addend: 0x0, symName: _OUTLINED_FUNCTION_39, symObjAddr: 0x4EFFC, symBinAddr: 0x5BF84, symSize: 0xC }
  - { offset: 0x154718, size: 0x8, addend: 0x0, symName: _OUTLINED_FUNCTION_40, symObjAddr: 0x4F008, symBinAddr: 0x5BF90, symSize: 0xC }
  - { offset: 0x154730, size: 0x8, addend: 0x0, symName: _OUTLINED_FUNCTION_41, symObjAddr: 0x4F014, symBinAddr: 0x5BF9C, symSize: 0x14 }
  - { offset: 0x154748, size: 0x8, addend: 0x0, symName: _OUTLINED_FUNCTION_42, symObjAddr: 0x4F028, symBinAddr: 0x5BFB0, symSize: 0xC }
  - { offset: 0x154760, size: 0x8, addend: 0x0, symName: _OUTLINED_FUNCTION_43, symObjAddr: 0x4F034, symBinAddr: 0x5BFBC, symSize: 0x14 }
  - { offset: 0x154778, size: 0x8, addend: 0x0, symName: _OUTLINED_FUNCTION_44, symObjAddr: 0x4F048, symBinAddr: 0x5BFD0, symSize: 0x14 }
  - { offset: 0x154790, size: 0x8, addend: 0x0, symName: _OUTLINED_FUNCTION_45, symObjAddr: 0x4F05C, symBinAddr: 0x5BFE4, symSize: 0xC }
  - { offset: 0x1547C5, size: 0x8, addend: 0x0, symName: __RNvCs5QKde7ScR4H_7___rustc18___rust_start_panic, symObjAddr: 0x0, symBinAddr: 0x5BFF0, symSize: 0xA0 }
  - { offset: 0x154903, size: 0x8, addend: 0x0, symName: __ZN12panic_unwind3imp5panic17exception_cleanup17h422a4f5df43e6584E, symObjAddr: 0x108, symBinAddr: 0x5C0F8, symSize: 0x18 }
  - { offset: 0x15491F, size: 0x8, addend: 0x0, symName: __RNvCs5QKde7ScR4H_7___rustc18___rust_start_panic, symObjAddr: 0x0, symBinAddr: 0x5BFF0, symSize: 0xA0 }
  - { offset: 0x1549C0, size: 0x8, addend: 0x0, symName: __RNvCs5QKde7ScR4H_7___rustc20___rust_panic_cleanup, symObjAddr: 0xA0, symBinAddr: 0x5C090, symSize: 0x68 }
  - { offset: 0x154ADC, size: 0x8, addend: 0x0, symName: '__ZN4core3ptr49drop_in_place$LT$panic_unwind..imp..Exception$GT$17h86c19963f3bb4ddfE', symObjAddr: 0x120, symBinAddr: 0x5C110, symSize: 0x78 }
  - { offset: 0x154C38, size: 0x8, addend: 0x0, symName: '__ZN4core3ptr74drop_in_place$LT$alloc..boxed..Box$LT$panic_unwind..imp..Exception$GT$$GT$17hd3523428b22dea99E', symObjAddr: 0x198, symBinAddr: 0x5C188, symSize: 0x8C }
  - { offset: 0x154EE2, size: 0x8, addend: 0x0, symName: __ZN9hashbrown3raw11Fallibility17capacity_overflow17h75e8185da1d79d57E, symObjAddr: 0x18C, symBinAddr: 0x63B98, symSize: 0x2C }
  - { offset: 0x154EFC, size: 0x8, addend: 0x0, symName: __ZN9hashbrown3raw11Fallibility9alloc_err17hb77386f9cefb6058E, symObjAddr: 0x1B8, symBinAddr: 0x63BC4, symSize: 0x24 }
  - { offset: 0x155030, size: 0x8, addend: 0x0, symName: __ZN5alloc5alloc18handle_alloc_error17h3b40831c24d87d14E, symObjAddr: 0x2E34, symBinAddr: 0x6F3C0, symSize: 0x18 }
  - { offset: 0x155088, size: 0x8, addend: 0x0, symName: '__ZN254_$LT$alloc..boxed..convert..$LT$impl$u20$core..convert..From$LT$alloc..string..String$GT$$u20$for$u20$alloc..boxed..Box$LT$dyn$u20$core..error..Error$u2b$core..marker..Sync$u2b$core..marker..Send$GT$$GT$..from..StringError$u20$as$u20$core..fmt..Debug$GT$3fmt17hc446d6bac796637dE', symObjAddr: 0xA8, symBinAddr: 0x63BF8, symSize: 0x10 }
  - { offset: 0x155159, size: 0x8, addend: 0x0, symName: '__ZN256_$LT$alloc..boxed..convert..$LT$impl$u20$core..convert..From$LT$alloc..string..String$GT$$u20$for$u20$alloc..boxed..Box$LT$dyn$u20$core..error..Error$u2b$core..marker..Sync$u2b$core..marker..Send$GT$$GT$..from..StringError$u20$as$u20$core..fmt..Display$GT$3fmt17h90f9c27648ab0a85E', symObjAddr: 0xB8, symBinAddr: 0x63C08, symSize: 0x10 }
  - { offset: 0x155238, size: 0x8, addend: 0x0, symName: __ZN5alloc3ffi5c_str7CString19_from_vec_unchecked17hd89d9cf25fc29871E, symObjAddr: 0x8D4, symBinAddr: 0x63DE8, symSize: 0x118 }
  - { offset: 0x1555BA, size: 0x8, addend: 0x0, symName: '__ZN81_$LT$$RF$$u5b$u8$u5d$$u20$as$u20$alloc..ffi..c_str..CString..new..SpecNewImpl$GT$13spec_new_impl17h96039c7f2f5d861bE', symObjAddr: 0x518C, symBinAddr: 0x643C8, symSize: 0x114 }
  - { offset: 0x1559CF, size: 0x8, addend: 0x0, symName: '__ZN5alloc7raw_vec20RawVecInner$LT$A$GT$11finish_grow17h1f24ed514a1bb79eE', symObjAddr: 0x47A4, symBinAddr: 0x6F46C, symSize: 0x8C }
  - { offset: 0x155BAF, size: 0x8, addend: 0x0, symName: '__ZN5alloc7raw_vec19RawVec$LT$T$C$A$GT$8grow_one17he6ac6a236e7a17bdE', symObjAddr: 0x4744, symBinAddr: 0x6F40C, symSize: 0x60 }
  - { offset: 0x155C5F, size: 0x8, addend: 0x0, symName: __ZN5alloc7raw_vec12handle_error17h97e8d61a4c5683faE, symObjAddr: 0x4710, symBinAddr: 0x6F3D8, symSize: 0x14 }
  - { offset: 0x155CA5, size: 0x8, addend: 0x0, symName: __ZN5alloc7raw_vec17capacity_overflow17h4852277d44d1c1c9E, symObjAddr: 0x4724, symBinAddr: 0x6F3EC, symSize: 0x20 }
  - { offset: 0x155CD6, size: 0x8, addend: 0x0, symName: '__ZN5alloc7raw_vec20RawVecInner$LT$A$GT$7reserve21do_reserve_and_handle17h90b3837adf483826E', symObjAddr: 0x4830, symBinAddr: 0x6F4F8, symSize: 0x78 }
  - { offset: 0x155FDD, size: 0x8, addend: 0x0, symName: __ZN5alloc6string6String15from_utf8_lossy17hde2382a5883ef92eE, symObjAddr: 0x3D68, symBinAddr: 0x64128, symSize: 0x21C }
  - { offset: 0x156565, size: 0x8, addend: 0x0, symName: '__ZN58_$LT$alloc..string..String$u20$as$u20$core..fmt..Write$GT$10write_char17h9904efafb51f78b8E', symObjAddr: 0x1C4, symBinAddr: 0x63C58, symSize: 0x118 }
  - { offset: 0x156705, size: 0x8, addend: 0x0, symName: '__ZN58_$LT$alloc..string..String$u20$as$u20$core..fmt..Write$GT$9write_str17h3ffaf0979099dce0E', symObjAddr: 0x2DC, symBinAddr: 0x63D70, symSize: 0x78 }
  - { offset: 0x15686B, size: 0x8, addend: 0x0, symName: '__ZN98_$LT$alloc..string..String$u20$as$u20$core..convert..From$LT$alloc..borrow..Cow$LT$str$GT$$GT$$GT$4from17h8575f17583162c5bE', symObjAddr: 0x58E4, symBinAddr: 0x644DC, symSize: 0x94 }
  - { offset: 0x1569AD, size: 0x8, addend: 0x0, symName: '__ZN60_$LT$alloc..string..String$u20$as$u20$core..clone..Clone$GT$5clone17h65381f6df886e978E', symObjAddr: 0x4924, symBinAddr: 0x64344, symSize: 0x70 }
  - { offset: 0x156B1E, size: 0x8, addend: 0x0, symName: __ZN5alloc3fmt6format12format_inner17hfd66a10598e1d54bE, symObjAddr: 0xABC, symBinAddr: 0x63F00, symSize: 0x1B4 }
  - { offset: 0x156E15, size: 0x8, addend: 0x0, symName: __ZN5alloc4sync32arcinner_layout_for_value_layout17hcd6ab4ca88c09aebE, symObjAddr: 0x2014, symBinAddr: 0x640B4, symSize: 0x74 }
  - { offset: 0x156FAC, size: 0x8, addend: 0x0, symName: '__ZN4core3ptr42drop_in_place$LT$alloc..string..String$GT$17hb29ec7c9ad6ce287E', symObjAddr: 0x104, symBinAddr: 0x63C2C, symSize: 0x18 }
  - { offset: 0x157161, size: 0x8, addend: 0x0, symName: __ZN4core3fmt5Write9write_fmt17h5b4f4a91d7d72e0fE, symObjAddr: 0xD8, symBinAddr: 0x63C18, symSize: 0x14 }
  - { offset: 0x1571A3, size: 0x8, addend: 0x0, symName: '__ZN53_$LT$core..fmt..Error$u20$as$u20$core..fmt..Debug$GT$3fmt17hae3bab0f290aff5aE', symObjAddr: 0x14C, symBinAddr: 0x63C44, symSize: 0x14 }
  - { offset: 0x157334, size: 0x8, addend: 0x0, symName: '__ZN69_$LT$core..alloc..layout..LayoutError$u20$as$u20$core..fmt..Debug$GT$3fmt17h51ac2ee096977db1E', symObjAddr: 0x4C50, symBinAddr: 0x643B4, symSize: 0x14 }
  - { offset: 0x1573D8, size: 0x8, addend: 0x0, symName: '__ZN71_$LT$core..ops..range..Range$LT$Idx$GT$$u20$as$u20$core..fmt..Debug$GT$3fmt17h11f4633ee40cde50E', symObjAddr: 0x1B7F8, symBinAddr: 0x69140, symSize: 0x5C }
  - { offset: 0x15760A, size: 0x8, addend: 0x0, symName: '__ZN4core4char7methods22_$LT$impl$u20$char$GT$16escape_debug_ext17h3246e5c7618a6259E', symObjAddr: 0x14964, symBinAddr: 0x68654, symSize: 0x284 }
  - { offset: 0x157995, size: 0x8, addend: 0x0, symName: '__ZN72_$LT$core..num..error..TryFromIntError$u20$as$u20$core..fmt..Display$GT$3fmt17ha4432a105d452806E', symObjAddr: 0x1B9E8, symBinAddr: 0x6919C, symSize: 0x14 }
  - { offset: 0x157C35, size: 0x8, addend: 0x0, symName: __ZN4core6option13expect_failed17h5631e2cc858bf370E, symObjAddr: 0x150D8, symBinAddr: 0x6F6B8, symSize: 0x30 }
  - { offset: 0x157C65, size: 0x8, addend: 0x0, symName: __ZN4core6option13unwrap_failed17h166c889ad3161268E, symObjAddr: 0x15108, symBinAddr: 0x6F6E8, symSize: 0x1C }
  - { offset: 0x158084, size: 0x8, addend: 0x0, symName: __ZN4core5slice5index16slice_index_fail17h5480dafd3d82e600E, symObjAddr: 0x14E28, symBinAddr: 0x6F604, symSize: 0xB4 }
  - { offset: 0x15815C, size: 0x8, addend: 0x0, symName: __ZN4core5slice6memchr14memchr_aligned17h658be0064b80f016E, symObjAddr: 0x14EDC, symBinAddr: 0x68904, symSize: 0xDC }
  - { offset: 0x158173, size: 0x8, addend: 0x0, symName: __ZN4core5slice6memchr14memchr_aligned17h658be0064b80f016E, symObjAddr: 0x14EDC, symBinAddr: 0x68904, symSize: 0xDC }
  - { offset: 0x158188, size: 0x8, addend: 0x0, symName: __ZN4core5slice6memchr14memchr_aligned17h658be0064b80f016E, symObjAddr: 0x14EDC, symBinAddr: 0x68904, symSize: 0xDC }
  - { offset: 0x15819C, size: 0x8, addend: 0x0, symName: __ZN4core5slice6memchr14memchr_aligned17h658be0064b80f016E, symObjAddr: 0x14EDC, symBinAddr: 0x68904, symSize: 0xDC }
  - { offset: 0x1581B1, size: 0x8, addend: 0x0, symName: __ZN4core5slice6memchr14memchr_aligned17h658be0064b80f016E, symObjAddr: 0x14EDC, symBinAddr: 0x68904, symSize: 0xDC }
  - { offset: 0x1582C5, size: 0x8, addend: 0x0, symName: __ZN4core5slice20copy_from_slice_impl17len_mismatch_fail17h7b4bcfb8a63a136eE, symObjAddr: 0x14CD0, symBinAddr: 0x6F5AC, symSize: 0x38 }
  - { offset: 0x15831A, size: 0x8, addend: 0x0, symName: __ZN4core5slice4sort6shared9smallsort22panic_on_ord_violation17h67b8176213e711b6E, symObjAddr: 0x14D2C, symBinAddr: 0x6F5E4, symSize: 0x20 }
  - { offset: 0x158341, size: 0x8, addend: 0x0, symName: __ZN4core5slice4sort6stable5drift11sqrt_approx17hb90d12192a85e22dE, symObjAddr: 0x14D4C, symBinAddr: 0x688D8, symSize: 0x2C }
  - { offset: 0x15842F, size: 0x8, addend: 0x0, symName: __ZN4core3fmt9Formatter10debug_list17h99697597ed026270E, symObjAddr: 0x964C, symBinAddr: 0x661FC, symSize: 0x48 }
  - { offset: 0x15846F, size: 0x8, addend: 0x0, symName: __ZN4core3fmt9Formatter11debug_tuple17hdd7c82e0f49ab5eaE, symObjAddr: 0x9694, symBinAddr: 0x66244, symSize: 0x50 }
  - { offset: 0x1584BC, size: 0x8, addend: 0x0, symName: __ZN4core3fmt9Formatter12debug_struct17h0a35edc54b908e18E, symObjAddr: 0x96E4, symBinAddr: 0x66294, symSize: 0x3C }
  - { offset: 0x158522, size: 0x8, addend: 0x0, symName: __ZN4core3fmt9Formatter12pad_integral17h53df9aeab2bf6d7eE, symObjAddr: 0x979C, symBinAddr: 0x6634C, symSize: 0x3B4 }
  - { offset: 0x158876, size: 0x8, addend: 0x0, symName: __ZN4core3fmt9Formatter25debug_tuple_field1_finish17hfe3074b00f708274E, symObjAddr: 0xA008, symBinAddr: 0x66700, symSize: 0x160 }
  - { offset: 0x158A71, size: 0x8, addend: 0x0, symName: __ZN4core3fmt9Formatter25debug_tuple_field2_finish17h4dc277e3104fd06eE, symObjAddr: 0xA168, symBinAddr: 0x66860, symSize: 0x1D8 }
  - { offset: 0x158D69, size: 0x8, addend: 0x0, symName: __ZN4core3fmt9Formatter26debug_struct_field1_finish17h5faa61f6e05c87e5E, symObjAddr: 0xAF20, symBinAddr: 0x66A38, symSize: 0xD0 }
  - { offset: 0x158E39, size: 0x8, addend: 0x0, symName: __ZN4core3fmt9Formatter26debug_struct_field2_finish17h13edb47884af88cbE, symObjAddr: 0xAFF0, symBinAddr: 0x66B08, symSize: 0x104 }
  - { offset: 0x158F10, size: 0x8, addend: 0x0, symName: __ZN4core3fmt9Formatter3pad17h83cad1b52a97ef58E, symObjAddr: 0xB604, symBinAddr: 0x66C0C, symSize: 0x30C }
  - { offset: 0x15926E, size: 0x8, addend: 0x0, symName: __ZN4core3fmt9Formatter9write_str17hbcdf83527753b9bcE, symObjAddr: 0xB9BC, symBinAddr: 0x66F18, symSize: 0x10 }
  - { offset: 0x1592DB, size: 0x8, addend: 0x0, symName: __ZN4core3fmt8builders11DebugStruct21finish_non_exhaustive17h9fb7dd5cc7a739dfE, symObjAddr: 0x8AF4, symBinAddr: 0x65D74, symSize: 0xC4 }
  - { offset: 0x159405, size: 0x8, addend: 0x0, symName: __ZN4core3fmt8builders11DebugStruct5field17ha008bc786cd9a2fdE, symObjAddr: 0x8BB8, symBinAddr: 0x65E38, symSize: 0x1B4 }
  - { offset: 0x159611, size: 0x8, addend: 0x0, symName: __ZN4core3fmt8builders11DebugStruct6finish17h93a36d829051f804E, symObjAddr: 0x8D6C, symBinAddr: 0x65FEC, symSize: 0x7C }
  - { offset: 0x159747, size: 0x8, addend: 0x0, symName: __ZN4core3fmt8builders10DebugTuple5field17h37c648eaf108365eE, symObjAddr: 0x88D4, symBinAddr: 0x65B54, symSize: 0x148 }
  - { offset: 0x1598C5, size: 0x8, addend: 0x0, symName: __ZN4core3fmt8builders10DebugTuple6finish17h8aef907a98092ddfE, symObjAddr: 0x8A1C, symBinAddr: 0x65C9C, symSize: 0xB4 }
  - { offset: 0x1599EA, size: 0x8, addend: 0x0, symName: __ZN4core3fmt8builders10PadAdapter4wrap17h88c3798902b212b6E, symObjAddr: 0x8AD0, symBinAddr: 0x65D50, symSize: 0x24 }
  - { offset: 0x159A01, size: 0x8, addend: 0x0, symName: __ZN4core3fmt8builders10PadAdapter4wrap17h88c3798902b212b6E, symObjAddr: 0x8AD0, symBinAddr: 0x65D50, symSize: 0x24 }
  - { offset: 0x159A5D, size: 0x8, addend: 0x0, symName: __ZN4core3fmt8builders8DebugSet5entry17h3629c8d83309d6d7E, symObjAddr: 0x93A4, symBinAddr: 0x66068, symSize: 0x148 }
  - { offset: 0x159C3A, size: 0x8, addend: 0x0, symName: __ZN4core3fmt8builders9DebugList6finish17hed8c8fff9412d267E, symObjAddr: 0x9600, symBinAddr: 0x661B0, symSize: 0x4C }
  - { offset: 0x159CB5, size: 0x8, addend: 0x0, symName: '__ZN68_$LT$core..fmt..builders..PadAdapter$u20$as$u20$core..fmt..Write$GT$10write_char17h1f40c6c36619927aE', symObjAddr: 0x1A5B4, symBinAddr: 0x68E98, symSize: 0x80 }
  - { offset: 0x159CDE, size: 0x8, addend: 0x0, symName: '__ZN68_$LT$core..fmt..builders..PadAdapter$u20$as$u20$core..fmt..Write$GT$9write_str17h739b9e2e5dbbd303E', symObjAddr: 0x1A634, symBinAddr: 0x68F18, symSize: 0x228 }
  - { offset: 0x159F57, size: 0x8, addend: 0x0, symName: '__ZN57_$LT$core..fmt..Formatter$u20$as$u20$core..fmt..Write$GT$10write_char17h984cbaf3daf0c8adE', symObjAddr: 0x16E34, symBinAddr: 0x68E64, symSize: 0x10 }
  - { offset: 0x159F91, size: 0x8, addend: 0x0, symName: '__ZN40_$LT$str$u20$as$u20$core..fmt..Debug$GT$3fmt17hd2d82a5aea2511e8E', symObjAddr: 0x2F4, symBinAddr: 0x64570, symSize: 0x38C }
  - { offset: 0x15A441, size: 0x8, addend: 0x0, symName: '__ZN41_$LT$char$u20$as$u20$core..fmt..Debug$GT$3fmt17h71c213358e065a2cE', symObjAddr: 0x680, symBinAddr: 0x648FC, symSize: 0xA8 }
  - { offset: 0x15A633, size: 0x8, addend: 0x0, symName: '__ZN4core3fmt3num3imp21_$LT$impl$u20$u32$GT$10_fmt_inner17h5b2b8fa1eacc0bcfE', symObjAddr: 0x1D60, symBinAddr: 0x64DC8, symSize: 0x1F0 }
  - { offset: 0x15A6ED, size: 0x8, addend: 0x0, symName: '__ZN4core3fmt3num3imp21_$LT$impl$u20$u64$GT$10_fmt_inner17hdc2ac0c47b5e6b6dE', symObjAddr: 0x1FAC, symBinAddr: 0x64FB8, symSize: 0x1F8 }
  - { offset: 0x15A7A7, size: 0x8, addend: 0x0, symName: '__ZN4core3fmt3num3imp51_$LT$impl$u20$core..fmt..Display$u20$for$u20$u8$GT$3fmt17h2aac956623a4145cE', symObjAddr: 0x22D0, symBinAddr: 0x651B0, symSize: 0xB0 }
  - { offset: 0x15A88C, size: 0x8, addend: 0x0, symName: '__ZN4core3fmt3num3imp52_$LT$impl$u20$core..fmt..Display$u20$for$u20$i32$GT$3fmt17h3e718042e4081c2fE', symObjAddr: 0x24A0, symBinAddr: 0x65260, symSize: 0x6C }
  - { offset: 0x15A936, size: 0x8, addend: 0x0, symName: '__ZN4core3fmt3num3imp52_$LT$impl$u20$core..fmt..Display$u20$for$u20$i64$GT$3fmt17h1c68ce92ca359dc7E', symObjAddr: 0x250C, symBinAddr: 0x652CC, symSize: 0x6C }
  - { offset: 0x15A9E0, size: 0x8, addend: 0x0, symName: '__ZN4core3fmt3num3imp52_$LT$impl$u20$core..fmt..Display$u20$for$u20$u32$GT$3fmt17h00f747df55cb6d6eE', symObjAddr: 0x2680, symBinAddr: 0x65338, symSize: 0x60 }
  - { offset: 0x15AA88, size: 0x8, addend: 0x0, symName: '__ZN4core3fmt3num3imp52_$LT$impl$u20$core..fmt..Display$u20$for$u20$u64$GT$3fmt17h085de41122354ce6E', symObjAddr: 0x26E0, symBinAddr: 0x65398, symSize: 0x60 }
  - { offset: 0x15AB3E, size: 0x8, addend: 0x0, symName: '__ZN4core3fmt3num52_$LT$impl$u20$core..fmt..LowerHex$u20$for$u20$u8$GT$3fmt17had034a1db393ea33E', symObjAddr: 0x4528, symBinAddr: 0x655EC, symSize: 0x74 }
  - { offset: 0x15ABAF, size: 0x8, addend: 0x0, symName: '__ZN4core3fmt3num52_$LT$impl$u20$core..fmt..UpperHex$u20$for$u20$u8$GT$3fmt17h4329988f9618996cE', symObjAddr: 0x4610, symBinAddr: 0x65660, symSize: 0x74 }
  - { offset: 0x15AC33, size: 0x8, addend: 0x0, symName: '__ZN4core3fmt3num53_$LT$impl$u20$core..fmt..LowerHex$u20$for$u20$i32$GT$3fmt17h669f6375ba8b2a89E', symObjAddr: 0x47D0, symBinAddr: 0x656D4, symSize: 0x74 }
  - { offset: 0x15ACCC, size: 0x8, addend: 0x0, symName: '__ZN4core3fmt3num53_$LT$impl$u20$core..fmt..UpperHex$u20$for$u20$i32$GT$3fmt17hcaa5ebb05661f33fE', symObjAddr: 0x4A88, symBinAddr: 0x65830, symSize: 0x74 }
  - { offset: 0x15AD52, size: 0x8, addend: 0x0, symName: '__ZN4core3fmt3num53_$LT$impl$u20$core..fmt..LowerHex$u20$for$u20$u64$GT$3fmt17h7e60cb090217ac48E', symObjAddr: 0x49A0, symBinAddr: 0x657BC, symSize: 0x74 }
  - { offset: 0x15ADC3, size: 0x8, addend: 0x0, symName: '__ZN4core3fmt3num53_$LT$impl$u20$core..fmt..LowerHex$u20$for$u20$i64$GT$3fmt17h8a6e748b7b98530fE', symObjAddr: 0x4844, symBinAddr: 0x65748, symSize: 0x74 }
  - { offset: 0x15AE49, size: 0x8, addend: 0x0, symName: '__ZN4core3fmt3num53_$LT$impl$u20$core..fmt..UpperHex$u20$for$u20$u64$GT$3fmt17ha5992a64247d5125E', symObjAddr: 0x4C58, symBinAddr: 0x65918, symSize: 0x74 }
  - { offset: 0x15AEBA, size: 0x8, addend: 0x0, symName: '__ZN4core3fmt3num53_$LT$impl$u20$core..fmt..UpperHex$u20$for$u20$i64$GT$3fmt17he045940fc332b671E', symObjAddr: 0x4AFC, symBinAddr: 0x658A4, symSize: 0x74 }
